
VoiceRcgExam.elf:     file format elf32-littleriscv
VoiceRcgExam.elf
architecture: riscv:rv32, flags 0x00000112:
EXEC_P, HAS_SYMS, D_PAGED
start address 0x00000000

Program Header:
    LOAD off    0x00001000 vaddr 0x00000000 paddr 0x00000000 align 2**12
         filesz 0x0000bf1c memsz 0x0000bf1c flags r-x
    LOAD off    0x0000d000 vaddr 0x20000000 paddr 0x0000bf1c align 2**12
         filesz 0x000000c0 memsz 0x0001317c flags rw-
    LOAD off    0x0000d800 vaddr 0x2001f800 paddr 0x2001f800 align 2**12
         filesz 0x00000000 memsz 0x00000800 flags rw-

Sections:
Idx Name          Size      VMA       LMA       File off  Algn
  0 .init         00000038  00000000  00000000  00001000  2**1
                  CONTENTS, ALLOC, LOAD, READONLY, CODE
  1 .vector       000001c8  00000038  00000038  00001038  2**1
                  CONTENTS, ALLOC, LOAD, READONLY, CODE
  2 .text         0000bd1c  00000200  00000200  00001200  2**3
                  CONTENTS, ALLOC, LOAD, READONLY, CODE
  3 .fini         00000000  0000bf1c  0000bf1c  0000d0c0  2**0
                  CONTENTS, ALLOC, LOAD, CODE
  4 .dalign       00000000  20000000  20000000  0000d0c0  2**0
                  CONTENTS
  5 .dlalign      00000000  0000bf1c  0000bf1c  0000d0c0  2**0
                  CONTENTS
  6 .data         000000c0  20000000  0000bf1c  0000d000  2**2
                  CONTENTS, ALLOC, LOAD, DATA
  7 .bss          000130bc  200000c0  0000bfdc  0000d0c0  2**2
                  ALLOC
  8 .stack        00000800  2001f800  2001f800  0000d800  2**0
                  ALLOC
  9 .comment      00000033  00000000  00000000  0000d0c0  2**0
                  CONTENTS, READONLY
 10 .debug_frame  00000dd0  00000000  00000000  0000d0f4  2**2
                  CONTENTS, READONLY, DEBUGGING
 11 .stab         00000084  00000000  00000000  0000dec4  2**2
                  CONTENTS, READONLY, DEBUGGING
 12 .stabstr      00000117  00000000  00000000  0000df48  2**0
                  CONTENTS, READONLY, DEBUGGING
SYMBOL TABLE:
00000000 l    d  .init	00000000 .init
00000038 l    d  .vector	00000000 .vector
00000200 l    d  .text	00000000 .text
0000bf1c l    d  .fini	00000000 .fini
20000000 l    d  .dalign	00000000 .dalign
0000bf1c l    d  .dlalign	00000000 .dlalign
20000000 l    d  .data	00000000 .data
200000c0 l    d  .bss	00000000 .bss
2001f800 l    d  .stack	00000000 .stack
00000000 l    d  .comment	00000000 .comment
00000000 l    d  .debug_frame	00000000 .debug_frame
00000000 l    d  .stab	00000000 .stab
00000000 l    d  .stabstr	00000000 .stabstr
00000000 l    df *ABS*	00000000 ./Startup/startup_ch32v30x_D8C.o
00000038 l       .vector	00000000 _vector_base
00000000 l    df *ABS*	00000000 Get_Data.c
00000000 l    df *ABS*	00000000 ch32v30x_it.c
00000000 l    df *ABS*	00000000 es8388.c
00000000 l    df *ABS*	00000000 lcd.c
00000000 l    df *ABS*	00000000 main.c
200000a2 l     O .data	00000001 song_name_index
00000000 l    df *ABS*	00000000 system_ch32v30x.c
00000000 l    df *ABS*	00000000 ch32v30x_dma.c
00000000 l    df *ABS*	00000000 ch32v30x_flash.c
00000000 l    df *ABS*	00000000 ch32v30x_fsmc.c
00000000 l    df *ABS*	00000000 ch32v30x_gpio.c
00000000 l    df *ABS*	00000000 ch32v30x_i2c.c
00000000 l    df *ABS*	00000000 ch32v30x_misc.c
00000000 l    df *ABS*	00000000 ch32v30x_rcc.c
20000030 l     O .data	00000010 APBAHBPrescTable
200000a8 l     O .data	00000004 ADCPrescTable
00000000 l    df *ABS*	00000000 ch32v30x_spi.c
00000000 l    df *ABS*	00000000 ch32v30x_usart.c
00000000 l    df *ABS*	00000000 debug.c
200000d4 l     O .bss	00000002 p_ms
200000d6 l     O .bss	00000001 p_us
200000ac l     O .data	00000004 curbrk.5231
00000000 l    df *ABS*	00000000 activedetect.c
00000000 l    df *ABS*	00000000 calcmfcc.c
00002896 l     F .text	0000008a fft.part.0
00000000 l    df *ABS*	00000000 chipflash.c
00000000 l    df *ABS*	00000000 match.c
200000d8 l     O .bss	00000002 X1
200000da l     O .bss	00000002 X2
200000dc l     O .bss	00000002 in_frm_num
200000de l     O .bss	00000002 mdl_frm_num
00000000 l    df *ABS*	00000000 wf_log.c
00000000 l    df *ABS*	00000000 wf_sqrt.c
00000000 l    df *ABS*	00000000 ef_log.c
00000000 l    df *ABS*	00000000 ef_sqrt.c
00000000 l    df *ABS*	00000000 s_matherr.c
00000000 l    df *ABS*	00000000 s_nan.c
00000000 l    df *ABS*	00000000 divdf3.c
00000000 l    df *ABS*	00000000 muldf3.c
00000000 l    df *ABS*	00000000 subdf3.c
00000000 l    df *ABS*	00000000 fixunsdfsi.c
00000000 l    df *ABS*	00000000 floatunsidf.c
00000000 l    df *ABS*	00000000 extendsfdf2.c
00000000 l    df *ABS*	00000000 truncdfsf2.c
00000000 l    df *ABS*	00000000 libgcc2.c
00000000 l    df *ABS*	00000000 errno.c
00000000 l    df *ABS*	00000000 printf.c
00000000 l    df *ABS*	00000000 puts.c
00000000 l    df *ABS*	00000000 vsnprintf.c
00000000 l    df *ABS*	00000000 wbuf.c
00000000 l    df *ABS*	00000000 wsetup.c
00000000 l    df *ABS*	00000000 fflush.c
00000000 l    df *ABS*	00000000 findfp.c
0000574a l     F .text	0000006a std
00000000 l    df *ABS*	00000000 fwalk.c
00000000 l    df *ABS*	00000000 makebuf.c
00000000 l    df *ABS*	00000000 nano-mallocr.c
00000000 l    df *ABS*	00000000 nano-mallocr.c
00000000 l    df *ABS*	00000000 nano-vfprintf.c
00000000 l    df *ABS*	00000000 nano-vfprintf.c
00005f58 l     F .text	0000002a __sfputc_r
00000000 l    df *ABS*	00000000 nano-vfprintf_i.c
00000000 l    df *ABS*	00000000 sbrkr.c
00000000 l    df *ABS*	00000000 stdio.c
00000000 l    df *ABS*	00000000 writer.c
00000000 l    df *ABS*	00000000 closer.c
00000000 l    df *ABS*	00000000 fstatr.c
00000000 l    df *ABS*	00000000 isattyr.c
00000000 l    df *ABS*	00000000 lseekr.c
00000000 l    df *ABS*	00000000 memchr.c
00000000 l    df *ABS*	00000000 memcpy.c
00000000 l    df *ABS*	00000000 memmove.c
00000000 l    df *ABS*	00000000 mlock.c
00000000 l    df *ABS*	00000000 nano-mallocr.c
00000000 l    df *ABS*	00000000 readr.c
00000000 l    df *ABS*	00000000 nano-mallocr.c
00000000 l    df *ABS*	00000000 close.c
00000000 l    df *ABS*	00000000 fstat.c
00000000 l    df *ABS*	00000000 isatty.c
00000000 l    df *ABS*	00000000 lseek.c
00000000 l    df *ABS*	00000000 read.c
00000000 l    df *ABS*	00000000 libgcc2.c
00000000 l    df *ABS*	00000000 impure.c
20000040 l     O .data	00000060 impure_data
00000000 l    df *ABS*	00000000 s_lib_ver.c
00000000 l    df *ABS*	00000000 reent.c
000069a6 g     F .text	00000014 _malloc_usable_size_r
00001892  w      .text	00000000 EXTI2_IRQHandler
000018dc  w      .text	00000000 TIM8_TRG_COM_IRQHandler
000018de  w      .text	00000000 TIM8_CC_IRQHandler
000002a8 g     F .text	000000ac I2S2_Init
00006798 g     F .text	00000030 _isatty_r
0000528a g     F .text	000000da _puts_r
000067c8 g     F .text	00000034 _lseek_r
00001b7c g     F .text	00000014 DMA_Cmd
00002920 g     F .text	000002e0 calc_mfcc_chara_para
00001914  w      .text	00000000 UART8_IRQHandler
00000880 g     F .text	00000016 ES8388_ADDA_Cfg
200000c0 g     O .bss	00000002 BACK_COLOR
0000b460 g     O .text	00000030 tri_cen
0000524a g     F .text	00000040 printf
200008a0 g       .data	00000000 __global_pointer$
00001c00 g     F .text	00000002 DMA_GetITStatus
000018b8  w      .text	00000000 TIM1_CC_IRQHandler
000066c4 g     F .text	00000036 __sseek
00005804 g     F .text	00000066 __sinit
000053de g     F .text	000000c0 __swbuf_r
000005a4 g     F .text	00000002 HardFault_Handler
000057be g     F .text	00000046 __sfmoreglue
00006918 g     F .text	00000002 __malloc_unlock
200000c4 g     O .bss	00000008 active_segment
0000144a g     F .text	0000003a key_init
000018ee  w      .text	00000000 TIM6_IRQHandler
0000187e  w      .text	00000000 SysTick_Handler
00001884  w      .text	00000000 PVD_IRQHandler
000018e4  w      .text	00000000 SDIO_IRQHandler
000068cc g     F .text	0000004a memmove
00001916  w      .text	00000000 TIM9_BRK_IRQHandler
00000778 g     F .text	000000c8 ES8388_Init
0000192a  w      .text	00000000 DMA2_Channel8_IRQHandler
000005a0 g     F .text	00000004 NMI_Handler
0000253c g     F .text	000000b2 environment_noise
00001904  w      .text	00000000 CAN2_RX1_IRQHandler
00001894  w      .text	00000000 EXTI3_IRQHandler
00000cf2 g     F .text	00000018 lcd_draw_point_color
00005242 g     F .text	00000008 __errno
0000190c  w      .text	00000000 USBHS_IRQHandler
00009d60 g     O .text	00000800 cos_tab
0000ac60 g     O .text	00000800 sin_tab
20000024 g     O .data	0000000c song_name
00002f6c g     F .text	000000fa logf
00001c60 g     F .text	00000064 FLASH_ProgramPage_Fast
000023e8 g     F .text	0000000c USART_GetFlagStatus
0000192c  w      .text	00000000 DMA2_Channel9_IRQHandler
00006766 g     F .text	00000032 _fstat_r
00001924  w      .text	00000000 TIM10_CC_IRQHandler
20013178 g     O .bss	00000004 errno
200000c0 g       .bss	00000000 _sbss
00000800 g       *ABS*	00000000 __stack_size
0000244c g     F .text	0000007a USART_Printf_Init
00001b44 g     F .text	00000038 DMA_Init
00003066 g     F .text	000000a2 sqrtf
200000cc g     O .bss	00000001 g_data_ready
00000a6c g     F .text	0000005e lcd_address_set
00001d7e g     F .text	0000001e FSMC_NORSRAMCmd
00001198 g     F .text	0000012e parameters_practice
00006816 g     F .text	000000b6 memcpy
000057b4 g     F .text	0000000a _cleanup_r
00005cd8 g     F .text	00000280 _svfprintf_r
200000a0 g     O .data	00000002 FORE_COLOR
0000188e  w      .text	00000000 EXTI0_IRQHandler
000018c4  w      .text	00000000 I2C2_EV_IRQHandler
00001922  w      .text	00000000 TIM10_TRG_COM_IRQHandler
00005364 g     F .text	0000000a puts
00003108 g     F .text	00000210 __ieee754_logf
200000a4 g     O .data	00000004 SystemCoreClock
000069ca g     F .text	00000010 _fstat
00000038 g       .init	00000000 _einit
0000084e g     F .text	00000032 ES8388_Set_Volume
00000a04 g     F .text	0000005a lcd_gpio_init
000053ce g     F .text	00000010 vsnprintf
00001c12 g     F .text	0000001e FLASH_Unlock_Fast
000021a2 g     F .text	0000001e RCC_APB2PeriphClockCmd
00004cc2 g     F .text	0000009e .hidden __fixunsdfsi
00001906  w      .text	00000000 CAN2_SCE_IRQHandler
000018a6  w      .text	00000000 ADC1_2_IRQHandler
00001d9c g     F .text	000000c2 GPIO_Init
0000187c  w      .text	00000000 Break_Point_Handler
200000d0 g     O .bss	00000004 NVIC_Priority_Group
000018c8  w      .text	00000000 SPI1_IRQHandler
000023c2 g     F .text	0000001c USART_Cmd
00006614 g     F .text	00000032 _sbrk_r
00001886  w      .text	00000000 TAMPER_IRQHandler
00006ffc g     O .text	000011a0 asc2_2412
0000110a g     F .text	0000008e save_chara_para_mdl
0000a560 g     O .text	00000480 dct_arg
00006972 g     F .text	00000034 _read_r
00001902  w      .text	00000000 CAN2_RX0_IRQHandler
00001c02 g     F .text	00000002 DMA_ClearITPendingBit
00002e16 g     F .text	00000156 calc_chara_para_match_dis
00004dc6 g     F .text	000000e8 .hidden __extendsfdf2
000018da  w      .text	00000000 TIM8_UP_IRQHandler
000021c0 g     F .text	0000001e RCC_APB1PeriphClockCmd
000010ac g     F .text	0000005e voice_record
00001878  w      .text	00000000 Ecall_M_Mode_Handler
2001f800 g       .stack	00000000 _heap_end
0000a9e0 g     O .text	00000280 hamm
000069da g     F .text	00000010 _isatty
200000b0 g     O .data	00000004 __fdlib_version
200000b8 g     O .data	00000004 _global_impure_ptr
0000691a g     F .text	00000058 _realloc_r
000018f4  w      .text	00000000 DMA2_Channel2_IRQHandler
00002184 g     F .text	0000001e RCC_AHBPeriphClockCmd
0000047e g     F .text	00000090 DMA1_Channel4_IRQHandler
00000aca g     F .text	0000004c lcd_clear
0000200a g     F .text	00000006 I2C_SendData
00004d60 g     F .text	00000066 .hidden __floatunsidf
00002512 g     F .text	0000002a _sbrk
000025ee g     F .text	0000015c active_segment_detect
0000065a g     F .text	00000030 ES8388_Contrl_Init
0000b890 g     O .text	00000400 tri_odd
000022b6 g     F .text	0000001e I2S_Cmd
00001c04 g     F .text	0000000e FLASH_Lock
00001e7a g     F .text	0000011a I2C_Init
00001918  w      .text	00000000 TIM9_UP_IRQHandler
00001ba2 g     F .text	00000032 DMA_GetFlagStatus
000018d0  w      .text	00000000 USART3_IRQHandler
00001888  w      .text	00000000 RTC_IRQHandler
2001317c g       .bss	00000000 _ebss
000018a4  w      .text	00000000 DMA1_Channel7_IRQHandler
20000000 g     O .data	00000024 key_words
00000d56 g     F .text	000001ae lcd_show_char
000053ce g     F .text	00000010 vsniprintf
000018ac  w      .text	00000000 CAN1_RX1_IRQHandler
000023f4 g     F .text	0000002a Delay_Init
200000e8 g     O .bss	0000fa00 V_Data
0000190e  w      .text	00000000 DVP_IRQHandler
000018ec  w      .text	00000000 UART5_IRQHandler
0000274a g     F .text	0000014c cr2_fft
00001e68 g     F .text	00000004 GPIO_SetBits
000018be  w      .text	00000000 TIM4_IRQHandler
200000c2 g     O .bss	00000001 SW1_DOWN
00001e70 g     F .text	0000000a GPIO_WriteBit
000018f2  w      .text	00000000 DMA2_Channel1_IRQHandler
000012c6 g     F .text	00000184 voice_recongition
00001fb0 g     F .text	0000001e I2C_GenerateSTART
0000be80 g     O .text	00000020 __sf_fake_stderr
000018c0  w      .text	00000000 I2C1_EV_IRQHandler
00000a5e g     F .text	0000000e lcd_set_color
00005bec g     F .text	000000ec __ssputs_r
00002076 g     F .text	0000010e RCC_GetClocksFreq
000018a2  w      .text	00000000 DMA1_Channel6_IRQHandler
000051cc g     F .text	00000076 .hidden __clzsi2
00005f82 g     F .text	00000042 __sfputs_r
000018ea  w      .text	00000000 UART4_IRQHandler
000018f8  w      .text	00000000 DMA2_Channel4_IRQHandler
000067fc g     F .text	0000001a memchr
000022ea g     F .text	000000d8 USART_Init
00005a6a g     F .text	000000a8 _free_r
000018bc  w      .text	00000000 TIM3_IRQHandler
0000188c  w      .text	00000000 RCC_IRQHandler
000018b6  w      .text	00000000 TIM1_TRG_COM_IRQHandler
00001898  w      .text	00000000 DMA1_Channel1_IRQHandler
00000000 g       .init	00000000 _start
00001928  w      .text	00000000 DMA2_Channel7_IRQHandler
0000203e g     F .text	00000032 I2C_GetFlagStatus
000069ea g     F .text	00000010 _lseek
000018d2  w      .text	00000000 EXTI15_10_IRQHandler
00001484 g     F .text	0000003a sw1_scan
00000896 g     F .text	00000016 lcd_write_half_word
00002c00 g     F .text	00000180 save_mfcc_chara_para
2001116c g     O .bss	0000000c dtg_para
00001f94 g     F .text	0000001c I2C_Cmd
00001e6c g     F .text	00000004 GPIO_ResetBits
000018f0  w      .text	00000000 TIM7_IRQHandler
00001c32 g     F .text	0000002e FLASH_ErasePage_Fast
00006736 g     F .text	00000030 _close_r
00001900  w      .text	00000000 CAN2_TX_IRQHandler
20000000 g       .dalign	00000000 _data_vma
000018e6  w      .text	00000000 TIM5_IRQHandler
200000c3 g     O .bss	00000001 SW2_DOWN
00001cc4 g     F .text	000000ba FSMC_NORSRAMInit
0000549e g     F .text	0000010c __swsetup_r
000018b0  w      .text	00000000 EXTI9_5_IRQHandler
000033f6 g     F .text	000007ea .hidden __divdf3
0000586a g     F .text	0000009c __sfp
000008c6 g     F .text	0000013e lcd_fsmc_init
0000536e g     F .text	00000060 _vsnprintf_r
00003be0 g     F .text	00000656 .hidden __muldf3
00006646 g     F .text	00000030 __sread
2000fae8 g     O .bss	00001684 chara_para
00002010 g     F .text	00000014 I2C_Send7bitAddress
000018fe  w      .text	00000000 ETH_WKUP_IRQHandler
00006916 g     F .text	00000002 __malloc_lock
000056e6 g     F .text	00000064 _fflush_r
000018ca  w      .text	00000000 SPI2_IRQHandler
0000bea0 g     O .text	00000020 __sf_fake_stdin
00000200 g     F .text	000000a8 memset
00003318 g     F .text	000000cc __ieee754_sqrtf
00000b16 g     F .text	000001dc lcd_init
000014fa g     F .text	0000027e main
00006a1c g     O .text	000005e0 asc2_1608
0000191e  w      .text	00000000 TIM10_BRK_IRQHandler
0000191c  w      .text	00000000 TIM9_CC_IRQHandler
000066fa g     F .text	00000006 __sclose
000033e4 g     F .text	00000004 matherr
000018fa  w      .text	00000000 DMA2_Channel5_IRQHandler
000005a6 g     F .text	000000b4 IIC_Init
00004eae g     F .text	0000031e .hidden __truncdfsf2
000022d4 g     F .text	00000016 SPI_I2S_DMACmd
00005b12 g     F .text	000000da _malloc_r
00000d0a g     F .text	0000004c lcd_fill
0000050e g     F .text	00000092 DMA1_Channel5_IRQHandler
00001896  w      .text	00000000 EXTI4_IRQHandler
0000241e g     F .text	0000002e Delay_Ms
000018aa  w      .text	00000000 USB_LP_CAN1_RX0_IRQHandler
00001778 g     F .text	000000fc SystemInit
000018e0  w      .text	00000000 RNG_IRQHandler
000014be g     F .text	0000003c sw2_scan
0000524a g     F .text	00000040 iprintf
00000354 g     F .text	00000062 DMA_Rx_Init
000018a8  w      .text	00000000 USB_HP_CAN1_TX_IRQHandler
0000bd80 g     O .text	00000100 .hidden __clz_tab
00000000 g       .init	00000000 _sinit
00002db2 g     F .text	00000064 dtw_limit
00006700 g     F .text	00000036 _write_r
0000189c  w      .text	00000000 DMA1_Channel3_IRQHandler
000018e2  w      .text	00000000 FSMC_IRQHandler
000018fc  w      .text	00000000 ETH_IRQHandler
0000625e g     F .text	0000010c _printf_common
200000b4 g     O .data	00000004 _impure_ptr
000018b4  w      .text	00000000 TIM1_UP_IRQHandler
000055aa g     F .text	0000013c __sflush_r
00000fd0 g     F .text	000000dc lcd_show_chinese
00005cd8 g     F .text	00000280 _svfiprintf_r
00001882  w      .text	00000000 WWDG_IRQHandler
0000190a  w      .text	00000000 USBHSWakeup_IRQHandler
00001930  w      .text	00000000 DMA2_Channel11_IRQHandler
0000187a  w      .text	00000000 Ecall_U_Mode_Handler
00001b90 g     F .text	00000012 DMA_ITConfig
00001926  w      .text	00000000 DMA2_Channel6_IRQHandler
000018ba  w      .text	00000000 TIM2_IRQHandler
20020000 g       .stack	00000000 _eusrstack
0000068a g     F .text	000000ee ES8388_Write_Reg
0000536e g     F .text	00000060 _vsniprintf_r
00001880  w      .text	00000000 SW_Handler
00000f04 g     F .text	000000cc lcd_show_string
20011178 g     O .bss	00002000 fft_out
000033e8 g     F .text	0000000e nan
00001c30 g     F .text	00000002 FLASH_Lock_Fast
000018b2  w      .text	00000000 TIM1_BRK_IRQHandler
00005972 g     F .text	0000005a __swhatbuf_r
000023de g     F .text	0000000a USART_SendData
0000192e  w      .text	00000000 DMA2_Channel10_IRQHandler
00001890  w      .text	00000000 EXTI1_IRQHandler
000024c6 g     F .text	0000004c _write
200000c0 g       .data	00000000 _edata
0000991c g     O .text	00000168 chinese_char
2001317c g       .bss	00000000 _end
0000819c g     O .text	00001780 asc2_3216
000018d4  w      .text	00000000 RTCAlarm_IRQHandler
0000bf1c g       .dlalign	00000000 _data_lma
00001920  w      .text	00000000 TIM10_UP_IRQHandler
0000191a  w      .text	00000000 TIM9_TRG_COM_IRQHandler
00001912  w      .text	00000000 UART7_IRQHandler
000018ce  w      .text	00000000 USART2_IRQHandler
00001910  w      .text	00000000 UART6_IRQHandler
00006676 g     F .text	0000004e __swrite
000003b6 g     F .text	00000070 DMA_Data_Tran
00005fc4 g     F .text	0000029a _vfiprintf_r
00005906 g     F .text	0000006c _fwalk_reent
000018c6  w      .text	00000000 I2C2_ER_IRQHandler
000008ac g     F .text	0000001a lcd_read_data
0000189a  w      .text	00000000 DMA1_Channel2_IRQHandler
0000bec0 g     O .text	00000020 __sf_fake_stdout
000018d8  w      .text	00000000 TIM8_BRK_IRQHandler
00001bd4 g     F .text	0000002c DMA_ClearFlag
000069fa g     F .text	00000010 _read
00001932  w      .text	00000000 handle_reset
000018ae  w      .text	00000000 CAN1_SCE_IRQHandler
0000188a  w      .text	00000000 FLASH_IRQHandler
000018cc  w      .text	00000000 USART1_IRQHandler
000059cc g     F .text	0000009e __smakebuf_r
00001fec g     F .text	0000001e I2C_AcknowledgeConfig
00001908  w      .text	00000000 OTG_FS_IRQHandler
0000636a g     F .text	000002aa _printf_i
000018e8  w      .text	00000000 SPI3_IRQHandler
200000e4 g     O .bss	00000004 __malloc_sbrk_start
00002024 g     F .text	0000001a I2C_CheckEvent
00000426 g     F .text	00000058 voice_init
00001fce g     F .text	0000001e I2C_GenerateSTOP
000018c2  w      .text	00000000 I2C1_ER_IRQHandler
00002070 g     F .text	00000006 NVIC_PriorityGroupConfig
000019d8 g     F .text	0000016c DMA_DeInit
200000e0 g     O .bss	00000004 __malloc_free_list
00004236 g     F .text	00000a8c .hidden __subdf3
00005fc4 g     F .text	0000029a _vfprintf_r
00000840 g     F .text	0000000e ES8388_I2S_Cfg
00001e5e g     F .text	0000000a GPIO_ReadInputDataBit
00002d80 g     F .text	00000032 get_dis
0000b490 g     O .text	00000400 tri_even
000021de g     F .text	000000d8 I2S_Init
000018d6  w      .text	00000000 USBWakeUp_IRQHandler
000069ba g     F .text	00000010 _close
000018f6  w      .text	00000000 DMA2_Channel3_IRQHandler



Disassembly of section .init:

00000000 <_sinit>:
   0:	1330106f          	j	1932 <handle_reset>
   4:	00000013          	nop
   8:	00000013          	nop
   c:	00000013          	nop
  10:	00000013          	nop
  14:	00000013          	nop
  18:	00000013          	nop
  1c:	00000013          	nop
  20:	00000013          	nop
  24:	00000013          	nop
  28:	00000013          	nop
  2c:	00000013          	nop
  30:	00000013          	nop
  34:	00100073          	ebreak

Disassembly of section .vector:

00000038 <_vector_base>:
	...
  40:	05a0                	addi	s0,sp,712
  42:	0000                	unimp
  44:	05a4                	addi	s1,sp,712
  46:	0000                	unimp
  48:	0000                	unimp
  4a:	0000                	unimp
  4c:	1878                	addi	a4,sp,60
	...
  56:	0000                	unimp
  58:	187a                	slli	a6,a6,0x3e
  5a:	0000                	unimp
  5c:	187c                	addi	a5,sp,60
	...
  66:	0000                	unimp
  68:	187e                	slli	a6,a6,0x3f
  6a:	0000                	unimp
  6c:	0000                	unimp
  6e:	0000                	unimp
  70:	1880                	addi	s0,sp,112
  72:	0000                	unimp
  74:	0000                	unimp
  76:	0000                	unimp
  78:	1882                	slli	a7,a7,0x20
  7a:	0000                	unimp
  7c:	1884                	addi	s1,sp,112
  7e:	0000                	unimp
  80:	1886                	slli	a7,a7,0x21
  82:	0000                	unimp
  84:	1888                	addi	a0,sp,112
  86:	0000                	unimp
  88:	188a                	slli	a7,a7,0x22
  8a:	0000                	unimp
  8c:	188c                	addi	a1,sp,112
  8e:	0000                	unimp
  90:	188e                	slli	a7,a7,0x23
  92:	0000                	unimp
  94:	1890                	addi	a2,sp,112
  96:	0000                	unimp
  98:	1892                	slli	a7,a7,0x24
  9a:	0000                	unimp
  9c:	1894                	addi	a3,sp,112
  9e:	0000                	unimp
  a0:	1896                	slli	a7,a7,0x25
  a2:	0000                	unimp
  a4:	1898                	addi	a4,sp,112
  a6:	0000                	unimp
  a8:	189a                	slli	a7,a7,0x26
  aa:	0000                	unimp
  ac:	189c                	addi	a5,sp,112
  ae:	0000                	unimp
  b0:	047e                	slli	s0,s0,0x1f
  b2:	0000                	unimp
  b4:	050e                	slli	a0,a0,0x3
  b6:	0000                	unimp
  b8:	18a2                	slli	a7,a7,0x28
  ba:	0000                	unimp
  bc:	18a4                	addi	s1,sp,120
  be:	0000                	unimp
  c0:	18a6                	slli	a7,a7,0x29
  c2:	0000                	unimp
  c4:	18a8                	addi	a0,sp,120
  c6:	0000                	unimp
  c8:	18aa                	slli	a7,a7,0x2a
  ca:	0000                	unimp
  cc:	18ac                	addi	a1,sp,120
  ce:	0000                	unimp
  d0:	18ae                	slli	a7,a7,0x2b
  d2:	0000                	unimp
  d4:	18b0                	addi	a2,sp,120
  d6:	0000                	unimp
  d8:	18b2                	slli	a7,a7,0x2c
  da:	0000                	unimp
  dc:	18b4                	addi	a3,sp,120
  de:	0000                	unimp
  e0:	18b6                	slli	a7,a7,0x2d
  e2:	0000                	unimp
  e4:	18b8                	addi	a4,sp,120
  e6:	0000                	unimp
  e8:	18ba                	slli	a7,a7,0x2e
  ea:	0000                	unimp
  ec:	18bc                	addi	a5,sp,120
  ee:	0000                	unimp
  f0:	18be                	slli	a7,a7,0x2f
  f2:	0000                	unimp
  f4:	18c0                	addi	s0,sp,116
  f6:	0000                	unimp
  f8:	18c2                	slli	a7,a7,0x30
  fa:	0000                	unimp
  fc:	18c4                	addi	s1,sp,116
  fe:	0000                	unimp
 100:	18c6                	slli	a7,a7,0x31
 102:	0000                	unimp
 104:	18c8                	addi	a0,sp,116
 106:	0000                	unimp
 108:	18ca                	slli	a7,a7,0x32
 10a:	0000                	unimp
 10c:	18cc                	addi	a1,sp,116
 10e:	0000                	unimp
 110:	18ce                	slli	a7,a7,0x33
 112:	0000                	unimp
 114:	18d0                	addi	a2,sp,116
 116:	0000                	unimp
 118:	18d2                	slli	a7,a7,0x34
 11a:	0000                	unimp
 11c:	18d4                	addi	a3,sp,116
 11e:	0000                	unimp
 120:	18d6                	slli	a7,a7,0x35
 122:	0000                	unimp
 124:	18d8                	addi	a4,sp,116
 126:	0000                	unimp
 128:	18da                	slli	a7,a7,0x36
 12a:	0000                	unimp
 12c:	18dc                	addi	a5,sp,116
 12e:	0000                	unimp
 130:	18de                	slli	a7,a7,0x37
 132:	0000                	unimp
 134:	18e0                	addi	s0,sp,124
 136:	0000                	unimp
 138:	18e2                	slli	a7,a7,0x38
 13a:	0000                	unimp
 13c:	18e4                	addi	s1,sp,124
 13e:	0000                	unimp
 140:	18e6                	slli	a7,a7,0x39
 142:	0000                	unimp
 144:	18e8                	addi	a0,sp,124
 146:	0000                	unimp
 148:	18ea                	slli	a7,a7,0x3a
 14a:	0000                	unimp
 14c:	18ec                	addi	a1,sp,124
 14e:	0000                	unimp
 150:	18ee                	slli	a7,a7,0x3b
 152:	0000                	unimp
 154:	18f0                	addi	a2,sp,124
 156:	0000                	unimp
 158:	18f2                	slli	a7,a7,0x3c
 15a:	0000                	unimp
 15c:	18f4                	addi	a3,sp,124
 15e:	0000                	unimp
 160:	18f6                	slli	a7,a7,0x3d
 162:	0000                	unimp
 164:	18f8                	addi	a4,sp,124
 166:	0000                	unimp
 168:	18fa                	slli	a7,a7,0x3e
 16a:	0000                	unimp
 16c:	18fc                	addi	a5,sp,124
 16e:	0000                	unimp
 170:	18fe                	slli	a7,a7,0x3f
 172:	0000                	unimp
 174:	1900                	addi	s0,sp,176
 176:	0000                	unimp
 178:	1902                	slli	s2,s2,0x20
 17a:	0000                	unimp
 17c:	1904                	addi	s1,sp,176
 17e:	0000                	unimp
 180:	1906                	slli	s2,s2,0x21
 182:	0000                	unimp
 184:	1908                	addi	a0,sp,176
 186:	0000                	unimp
 188:	190a                	slli	s2,s2,0x22
 18a:	0000                	unimp
 18c:	190c                	addi	a1,sp,176
 18e:	0000                	unimp
 190:	190e                	slli	s2,s2,0x23
 192:	0000                	unimp
 194:	1910                	addi	a2,sp,176
 196:	0000                	unimp
 198:	1912                	slli	s2,s2,0x24
 19a:	0000                	unimp
 19c:	1914                	addi	a3,sp,176
 19e:	0000                	unimp
 1a0:	1916                	slli	s2,s2,0x25
 1a2:	0000                	unimp
 1a4:	1918                	addi	a4,sp,176
 1a6:	0000                	unimp
 1a8:	191a                	slli	s2,s2,0x26
 1aa:	0000                	unimp
 1ac:	191c                	addi	a5,sp,176
 1ae:	0000                	unimp
 1b0:	191e                	slli	s2,s2,0x27
 1b2:	0000                	unimp
 1b4:	1920                	addi	s0,sp,184
 1b6:	0000                	unimp
 1b8:	1922                	slli	s2,s2,0x28
 1ba:	0000                	unimp
 1bc:	1924                	addi	s1,sp,184
 1be:	0000                	unimp
 1c0:	1926                	slli	s2,s2,0x29
 1c2:	0000                	unimp
 1c4:	1928                	addi	a0,sp,184
 1c6:	0000                	unimp
 1c8:	192a                	slli	s2,s2,0x2a
 1ca:	0000                	unimp
 1cc:	192c                	addi	a1,sp,184
 1ce:	0000                	unimp
 1d0:	192e                	slli	s2,s2,0x2b
 1d2:	0000                	unimp
 1d4:	1930                	addi	a2,sp,184
	...

Disassembly of section .text:

00000200 <memset>:
     200:	433d                	li	t1,15
     202:	872a                	mv	a4,a0
     204:	02c37363          	bgeu	t1,a2,22a <memset+0x2a>
     208:	00f77793          	andi	a5,a4,15
     20c:	efbd                	bnez	a5,28a <memset+0x8a>
     20e:	e5ad                	bnez	a1,278 <memset+0x78>
     210:	ff067693          	andi	a3,a2,-16
     214:	8a3d                	andi	a2,a2,15
     216:	96ba                	add	a3,a3,a4
     218:	c30c                	sw	a1,0(a4)
     21a:	c34c                	sw	a1,4(a4)
     21c:	c70c                	sw	a1,8(a4)
     21e:	c74c                	sw	a1,12(a4)
     220:	0741                	addi	a4,a4,16
     222:	fed76be3          	bltu	a4,a3,218 <memset+0x18>
     226:	e211                	bnez	a2,22a <memset+0x2a>
     228:	8082                	ret
     22a:	40c306b3          	sub	a3,t1,a2
     22e:	068a                	slli	a3,a3,0x2
     230:	00000297          	auipc	t0,0x0
     234:	9696                	add	a3,a3,t0
     236:	00a68067          	jr	10(a3)
     23a:	00b70723          	sb	a1,14(a4)
     23e:	00b706a3          	sb	a1,13(a4)
     242:	00b70623          	sb	a1,12(a4)
     246:	00b705a3          	sb	a1,11(a4)
     24a:	00b70523          	sb	a1,10(a4)
     24e:	00b704a3          	sb	a1,9(a4)
     252:	00b70423          	sb	a1,8(a4)
     256:	00b703a3          	sb	a1,7(a4)
     25a:	00b70323          	sb	a1,6(a4)
     25e:	00b702a3          	sb	a1,5(a4)
     262:	00b70223          	sb	a1,4(a4)
     266:	00b701a3          	sb	a1,3(a4)
     26a:	00b70123          	sb	a1,2(a4)
     26e:	00b700a3          	sb	a1,1(a4)
     272:	00b70023          	sb	a1,0(a4)
     276:	8082                	ret
     278:	0ff5f593          	andi	a1,a1,255
     27c:	00859693          	slli	a3,a1,0x8
     280:	8dd5                	or	a1,a1,a3
     282:	01059693          	slli	a3,a1,0x10
     286:	8dd5                	or	a1,a1,a3
     288:	b761                	j	210 <memset+0x10>
     28a:	00279693          	slli	a3,a5,0x2
     28e:	00000297          	auipc	t0,0x0
     292:	9696                	add	a3,a3,t0
     294:	8286                	mv	t0,ra
     296:	fa8680e7          	jalr	-88(a3)
     29a:	8096                	mv	ra,t0
     29c:	17c1                	addi	a5,a5,-16
     29e:	8f1d                	sub	a4,a4,a5
     2a0:	963e                	add	a2,a2,a5
     2a2:	f8c374e3          	bgeu	t1,a2,22a <memset+0x2a>
     2a6:	b7a5                	j	20e <memset+0xe>

000002a8 <I2S2_Init>:
     2a8:	7179                	addi	sp,sp,-48
     2aa:	4585                	li	a1,1
     2ac:	6511                	lui	a0,0x4
     2ae:	d606                	sw	ra,44(sp)
     2b0:	d422                	sw	s0,40(sp)
     2b2:	d226                	sw	s1,36(sp)
     2b4:	d04a                	sw	s2,32(sp)
     2b6:	70b010ef          	jal	ra,21c0 <RCC_APB1PeriphClockCmd>
     2ba:	4585                	li	a1,1
     2bc:	4561                	li	a0,24
     2be:	6e5010ef          	jal	ra,21a2 <RCC_APB2PeriphClockCmd>
     2c2:	40011937          	lui	s2,0x40011
     2c6:	440d                	li	s0,3
     2c8:	678d                	lui	a5,0x3
     2ca:	44e1                	li	s1,24
     2cc:	004c                	addi	a1,sp,4
     2ce:	c0090513          	addi	a0,s2,-1024 # 40010c00 <_eusrstack+0x1fff0c00>
     2d2:	00f11223          	sh	a5,4(sp)
     2d6:	c626                	sw	s1,12(sp)
     2d8:	c422                	sw	s0,8(sp)
     2da:	2c3010ef          	jal	ra,1d9c <GPIO_Init>
     2de:	77e1                	lui	a5,0xffff8
     2e0:	00f11223          	sh	a5,4(sp)
     2e4:	004c                	addi	a1,sp,4
     2e6:	4791                	li	a5,4
     2e8:	c0090513          	addi	a0,s2,-1024
     2ec:	c63e                	sw	a5,12(sp)
     2ee:	c422                	sw	s0,8(sp)
     2f0:	2ad010ef          	jal	ra,1d9c <GPIO_Init>
     2f4:	04000793          	li	a5,64
     2f8:	004c                	addi	a1,sp,4
     2fa:	40011537          	lui	a0,0x40011
     2fe:	00f11223          	sh	a5,4(sp)
     302:	c626                	sw	s1,12(sp)
     304:	c422                	sw	s0,8(sp)
     306:	297010ef          	jal	ra,1d9c <GPIO_Init>
     30a:	30000793          	li	a5,768
     30e:	c83e                	sw	a5,16(sp)
     310:	020007b7          	lui	a5,0x2000
     314:	ca3e                	sw	a5,20(sp)
     316:	6789                	lui	a5,0x2
     318:	40004437          	lui	s0,0x40004
     31c:	f4078793          	addi	a5,a5,-192 # 1f40 <I2C_Init+0xc6>
     320:	cc3e                	sw	a5,24(sp)
     322:	080c                	addi	a1,sp,16
     324:	47a1                	li	a5,8
     326:	80040513          	addi	a0,s0,-2048 # 40003800 <_eusrstack+0x1ffe3800>
     32a:	00f11e23          	sh	a5,28(sp)
     32e:	6b1010ef          	jal	ra,21de <I2S_Init>
     332:	80040513          	addi	a0,s0,-2048
     336:	4605                	li	a2,1
     338:	4585                	li	a1,1
     33a:	79b010ef          	jal	ra,22d4 <SPI_I2S_DMACmd>
     33e:	80040513          	addi	a0,s0,-2048
     342:	4581                	li	a1,0
     344:	773010ef          	jal	ra,22b6 <I2S_Cmd>
     348:	50b2                	lw	ra,44(sp)
     34a:	5422                	lw	s0,40(sp)
     34c:	5492                	lw	s1,36(sp)
     34e:	5902                	lw	s2,32(sp)
     350:	6145                	addi	sp,sp,48
     352:	8082                	ret

00000354 <DMA_Rx_Init>:
     354:	715d                	addi	sp,sp,-80
     356:	c4a2                	sw	s0,72(sp)
     358:	c2a6                	sw	s1,68(sp)
     35a:	842a                	mv	s0,a0
     35c:	84ae                	mv	s1,a1
     35e:	4505                	li	a0,1
     360:	4585                	li	a1,1
     362:	c686                	sw	ra,76(sp)
     364:	c632                	sw	a2,12(sp)
     366:	c436                	sw	a3,8(sp)
     368:	61d010ef          	jal	ra,2184 <RCC_AHBPeriphClockCmd>
     36c:	8522                	mv	a0,s0
     36e:	66a010ef          	jal	ra,19d8 <DMA_DeInit>
     372:	08000793          	li	a5,128
     376:	4632                	lw	a2,12(sp)
     378:	46a2                	lw	a3,8(sp)
     37a:	d43e                	sw	a5,40(sp)
     37c:	10000793          	li	a5,256
     380:	d63e                	sw	a5,44(sp)
     382:	40000793          	li	a5,1024
     386:	d83e                	sw	a5,48(sp)
     388:	084c                	addi	a1,sp,20
     38a:	6789                	lui	a5,0x2
     38c:	8522                	mv	a0,s0
     38e:	ca26                	sw	s1,20(sp)
     390:	cc32                	sw	a2,24(sp)
     392:	d036                	sw	a3,32(sp)
     394:	dc3e                	sw	a5,56(sp)
     396:	ce02                	sw	zero,28(sp)
     398:	d202                	sw	zero,36(sp)
     39a:	da02                	sw	zero,52(sp)
     39c:	de02                	sw	zero,60(sp)
     39e:	7a6010ef          	jal	ra,1b44 <DMA_Init>
     3a2:	8522                	mv	a0,s0
     3a4:	4605                	li	a2,1
     3a6:	4589                	li	a1,2
     3a8:	7e8010ef          	jal	ra,1b90 <DMA_ITConfig>
     3ac:	40b6                	lw	ra,76(sp)
     3ae:	4426                	lw	s0,72(sp)
     3b0:	4496                	lw	s1,68(sp)
     3b2:	6161                	addi	sp,sp,80
     3b4:	8082                	ret

000003b6 <DMA_Data_Tran>:
     3b6:	715d                	addi	sp,sp,-80
     3b8:	c4a2                	sw	s0,72(sp)
     3ba:	c2a6                	sw	s1,68(sp)
     3bc:	842a                	mv	s0,a0
     3be:	84ae                	mv	s1,a1
     3c0:	4505                	li	a0,1
     3c2:	4585                	li	a1,1
     3c4:	c686                	sw	ra,76(sp)
     3c6:	c632                	sw	a2,12(sp)
     3c8:	c436                	sw	a3,8(sp)
     3ca:	5bb010ef          	jal	ra,2184 <RCC_AHBPeriphClockCmd>
     3ce:	8522                	mv	a0,s0
     3d0:	608010ef          	jal	ra,19d8 <DMA_DeInit>
     3d4:	04000793          	li	a5,64
     3d8:	d23e                	sw	a5,36(sp)
     3da:	08000793          	li	a5,128
     3de:	d43e                	sw	a5,40(sp)
     3e0:	20000793          	li	a5,512
     3e4:	46a2                	lw	a3,8(sp)
     3e6:	4632                	lw	a2,12(sp)
     3e8:	d63e                	sw	a5,44(sp)
     3ea:	40000793          	li	a5,1024
     3ee:	d83e                	sw	a5,48(sp)
     3f0:	678d                	lui	a5,0x3
     3f2:	dc3e                	sw	a5,56(sp)
     3f4:	084c                	addi	a1,sp,20
     3f6:	6791                	lui	a5,0x4
     3f8:	8522                	mv	a0,s0
     3fa:	d036                	sw	a3,32(sp)
     3fc:	de3e                	sw	a5,60(sp)
     3fe:	ca26                	sw	s1,20(sp)
     400:	cc32                	sw	a2,24(sp)
     402:	ce02                	sw	zero,28(sp)
     404:	da02                	sw	zero,52(sp)
     406:	73e010ef          	jal	ra,1b44 <DMA_Init>
     40a:	8522                	mv	a0,s0
     40c:	4605                	li	a2,1
     40e:	4589                	li	a1,2
     410:	780010ef          	jal	ra,1b90 <DMA_ITConfig>
     414:	8522                	mv	a0,s0
     416:	4585                	li	a1,1
     418:	764010ef          	jal	ra,1b7c <DMA_Cmd>
     41c:	40b6                	lw	ra,76(sp)
     41e:	4426                	lw	s0,72(sp)
     420:	4496                	lw	s1,68(sp)
     422:	6161                	addi	sp,sp,80
     424:	8082                	ret

00000426 <voice_init>:
     426:	40011537          	lui	a0,0x40011
     42a:	1141                	addi	sp,sp,-16
     42c:	4605                	li	a2,1
     42e:	10000593          	li	a1,256
     432:	80050513          	addi	a0,a0,-2048 # 40010800 <_eusrstack+0x1fff0800>
     436:	c606                	sw	ra,12(sp)
     438:	239010ef          	jal	ra,1e70 <GPIO_WriteBit>
     43c:	2e35                	jal	778 <ES8388_Init>
     43e:	4559                	li	a0,22
     440:	2139                	jal	84e <ES8388_Set_Volume>
     442:	458d                	li	a1,3
     444:	4501                	li	a0,0
     446:	2eed                	jal	840 <ES8388_I2S_Cfg>
     448:	4505                	li	a0,1
     44a:	4581                	li	a1,0
     44c:	2915                	jal	880 <ES8388_ADDA_Cfg>
     44e:	3da9                	jal	2a8 <I2S2_Init>
     450:	e000e7b7          	lui	a5,0xe000e
     454:	5701                	li	a4,-32
     456:	40e78f23          	sb	a4,1054(a5) # e000e41e <_eusrstack+0xbffee41e>
     45a:	400006b7          	lui	a3,0x40000
     45e:	10d7a023          	sw	a3,256(a5)
     462:	40e78fa3          	sb	a4,1055(a5)
     466:	40b2                	lw	ra,12(sp)
     468:	80000737          	lui	a4,0x80000
     46c:	10e7a023          	sw	a4,256(a5)
     470:	00007537          	lui	a0,0x7
     474:	a0c50513          	addi	a0,a0,-1524 # 6a0c <_read+0x12>
     478:	0141                	addi	sp,sp,16
     47a:	6eb0406f          	j	5364 <puts>

0000047e <DMA1_Channel4_IRQHandler>:
     47e:	715d                	addi	sp,sp,-80
     480:	6509                	lui	a0,0x2
     482:	e682                	fsw	ft0,76(sp)
     484:	e486                	fsw	ft1,72(sp)
     486:	e28a                	fsw	ft2,68(sp)
     488:	e08e                	fsw	ft3,64(sp)
     48a:	fe12                	fsw	ft4,60(sp)
     48c:	fc16                	fsw	ft5,56(sp)
     48e:	fa1a                	fsw	ft6,52(sp)
     490:	f81e                	fsw	ft7,48(sp)
     492:	f62a                	fsw	fa0,44(sp)
     494:	f42e                	fsw	fa1,40(sp)
     496:	f232                	fsw	fa2,36(sp)
     498:	f036                	fsw	fa3,32(sp)
     49a:	ee3a                	fsw	fa4,28(sp)
     49c:	ec3e                	fsw	fa5,24(sp)
     49e:	ea42                	fsw	fa6,20(sp)
     4a0:	e846                	fsw	fa7,16(sp)
     4a2:	e672                	fsw	ft8,12(sp)
     4a4:	e476                	fsw	ft9,8(sp)
     4a6:	e27a                	fsw	ft10,4(sp)
     4a8:	e07e                	fsw	ft11,0(sp)
     4aa:	756010ef          	jal	ra,1c00 <DMA_GetITStatus>
     4ae:	c90d                	beqz	a0,4e0 <DMA1_Channel4_IRQHandler+0x62>
     4b0:	651d                	lui	a0,0x7
     4b2:	750010ef          	jal	ra,1c02 <DMA_ClearITPendingBit>
     4b6:	40004537          	lui	a0,0x40004
     4ba:	4581                	li	a1,0
     4bc:	80050513          	addi	a0,a0,-2048 # 40003800 <_eusrstack+0x1ffe3800>
     4c0:	5f7010ef          	jal	ra,22b6 <I2S_Cmd>
     4c4:	200005b7          	lui	a1,0x20000
     4c8:	6691                	lui	a3,0x4
     4ca:	40020537          	lui	a0,0x40020
     4ce:	0e858613          	addi	a2,a1,232 # 200000e8 <V_Data>
     4d2:	e8068693          	addi	a3,a3,-384 # 3e80 <__muldf3+0x2a0>
     4d6:	0e858593          	addi	a1,a1,232
     4da:	05850513          	addi	a0,a0,88 # 40020058 <_eusrstack+0x20000058>
     4de:	3de1                	jal	3b6 <DMA_Data_Tran>
     4e0:	6036                	flw	ft0,76(sp)
     4e2:	60a6                	flw	ft1,72(sp)
     4e4:	6116                	flw	ft2,68(sp)
     4e6:	6186                	flw	ft3,64(sp)
     4e8:	7272                	flw	ft4,60(sp)
     4ea:	72e2                	flw	ft5,56(sp)
     4ec:	7352                	flw	ft6,52(sp)
     4ee:	73c2                	flw	ft7,48(sp)
     4f0:	7532                	flw	fa0,44(sp)
     4f2:	75a2                	flw	fa1,40(sp)
     4f4:	7612                	flw	fa2,36(sp)
     4f6:	7682                	flw	fa3,32(sp)
     4f8:	6772                	flw	fa4,28(sp)
     4fa:	67e2                	flw	fa5,24(sp)
     4fc:	6852                	flw	fa6,20(sp)
     4fe:	68c2                	flw	fa7,16(sp)
     500:	6e32                	flw	ft8,12(sp)
     502:	6ea2                	flw	ft9,8(sp)
     504:	6f12                	flw	ft10,4(sp)
     506:	6f82                	flw	ft11,0(sp)
     508:	6161                	addi	sp,sp,80
     50a:	30200073          	mret

0000050e <DMA1_Channel5_IRQHandler>:
     50e:	715d                	addi	sp,sp,-80
     510:	00020537          	lui	a0,0x20
     514:	e682                	fsw	ft0,76(sp)
     516:	e486                	fsw	ft1,72(sp)
     518:	e28a                	fsw	ft2,68(sp)
     51a:	e08e                	fsw	ft3,64(sp)
     51c:	fe12                	fsw	ft4,60(sp)
     51e:	fc16                	fsw	ft5,56(sp)
     520:	fa1a                	fsw	ft6,52(sp)
     522:	f81e                	fsw	ft7,48(sp)
     524:	f62a                	fsw	fa0,44(sp)
     526:	f42e                	fsw	fa1,40(sp)
     528:	f232                	fsw	fa2,36(sp)
     52a:	f036                	fsw	fa3,32(sp)
     52c:	ee3a                	fsw	fa4,28(sp)
     52e:	ec3e                	fsw	fa5,24(sp)
     530:	ea42                	fsw	fa6,20(sp)
     532:	e846                	fsw	fa7,16(sp)
     534:	e672                	fsw	ft8,12(sp)
     536:	e476                	fsw	ft9,8(sp)
     538:	e27a                	fsw	ft10,4(sp)
     53a:	e07e                	fsw	ft11,0(sp)
     53c:	6c4010ef          	jal	ra,1c00 <DMA_GetITStatus>
     540:	c90d                	beqz	a0,572 <DMA1_Channel5_IRQHandler+0x64>
     542:	200007b7          	lui	a5,0x20000
     546:	6721                	lui	a4,0x8
     548:	0e878793          	addi	a5,a5,232 # 200000e8 <V_Data>
     54c:	d0070713          	addi	a4,a4,-768 # 7d00 <asc2_2412+0xd04>
     550:	973e                	add	a4,a4,a5
     552:	7661                	lui	a2,0xffff8
     554:	0007d683          	lhu	a3,0(a5)
     558:	0789                	addi	a5,a5,2
     55a:	96b2                	add	a3,a3,a2
     55c:	fed79f23          	sh	a3,-2(a5)
     560:	fee79ae3          	bne	a5,a4,554 <DMA1_Channel5_IRQHandler+0x46>
     564:	4705                	li	a4,1
     566:	00070537          	lui	a0,0x70
     56a:	82e18623          	sb	a4,-2004(gp) # 200000cc <g_data_ready>
     56e:	694010ef          	jal	ra,1c02 <DMA_ClearITPendingBit>
     572:	6036                	flw	ft0,76(sp)
     574:	60a6                	flw	ft1,72(sp)
     576:	6116                	flw	ft2,68(sp)
     578:	6186                	flw	ft3,64(sp)
     57a:	7272                	flw	ft4,60(sp)
     57c:	72e2                	flw	ft5,56(sp)
     57e:	7352                	flw	ft6,52(sp)
     580:	73c2                	flw	ft7,48(sp)
     582:	7532                	flw	fa0,44(sp)
     584:	75a2                	flw	fa1,40(sp)
     586:	7612                	flw	fa2,36(sp)
     588:	7682                	flw	fa3,32(sp)
     58a:	6772                	flw	fa4,28(sp)
     58c:	67e2                	flw	fa5,24(sp)
     58e:	6852                	flw	fa6,20(sp)
     590:	68c2                	flw	fa7,16(sp)
     592:	6e32                	flw	ft8,12(sp)
     594:	6ea2                	flw	ft9,8(sp)
     596:	6f12                	flw	ft10,4(sp)
     598:	6f82                	flw	ft11,0(sp)
     59a:	6161                	addi	sp,sp,80
     59c:	30200073          	mret

000005a0 <NMI_Handler>:
     5a0:	30200073          	mret

000005a4 <HardFault_Handler>:
     5a4:	a001                	j	5a4 <HardFault_Handler>

000005a6 <IIC_Init>:
     5a6:	7139                	addi	sp,sp,-64
     5a8:	d452                	sw	s4,40(sp)
     5aa:	d256                	sw	s5,36(sp)
     5ac:	8a2e                	mv	s4,a1
     5ae:	8aaa                	mv	s5,a0
     5b0:	4585                	li	a1,1
     5b2:	4521                	li	a0,8
     5b4:	de06                	sw	ra,60(sp)
     5b6:	dc22                	sw	s0,56(sp)
     5b8:	da26                	sw	s1,52(sp)
     5ba:	d84a                	sw	s2,48(sp)
     5bc:	d64e                	sw	s3,44(sp)
     5be:	c202                	sw	zero,4(sp)
     5c0:	c402                	sw	zero,8(sp)
     5c2:	c602                	sw	zero,12(sp)
     5c4:	c802                	sw	zero,16(sp)
     5c6:	ca02                	sw	zero,20(sp)
     5c8:	cc02                	sw	zero,24(sp)
     5ca:	ce02                	sw	zero,28(sp)
     5cc:	3d7010ef          	jal	ra,21a2 <RCC_APB2PeriphClockCmd>
     5d0:	4585                	li	a1,1
     5d2:	00400537          	lui	a0,0x400
     5d6:	3eb010ef          	jal	ra,21c0 <RCC_APB1PeriphClockCmd>
     5da:	400114b7          	lui	s1,0x40011
     5de:	40000413          	li	s0,1024
     5e2:	49f1                	li	s3,28
     5e4:	490d                	li	s2,3
     5e6:	004c                	addi	a1,sp,4
     5e8:	c0048513          	addi	a0,s1,-1024 # 40010c00 <_eusrstack+0x1fff0c00>
     5ec:	00811223          	sh	s0,4(sp)
     5f0:	c64e                	sw	s3,12(sp)
     5f2:	c44a                	sw	s2,8(sp)
     5f4:	7a8010ef          	jal	ra,1d9c <GPIO_Init>
     5f8:	6785                	lui	a5,0x1
     5fa:	80078793          	addi	a5,a5,-2048 # 800 <__stack_size>
     5fe:	004c                	addi	a1,sp,4
     600:	c0048513          	addi	a0,s1,-1024
     604:	00f11223          	sh	a5,4(sp)
     608:	c64e                	sw	s3,12(sp)
     60a:	c44a                	sw	s2,8(sp)
     60c:	790010ef          	jal	ra,1d9c <GPIO_Init>
     610:	400007b7          	lui	a5,0x40000
     614:	00811d23          	sh	s0,26(sp)
     618:	40006437          	lui	s0,0x40006
     61c:	ca3e                	sw	a5,20(sp)
     61e:	080c                	addi	a1,sp,16
     620:	6791                	lui	a5,0x4
     622:	80040513          	addi	a0,s0,-2048 # 40005800 <_eusrstack+0x1ffe5800>
     626:	00f11e23          	sh	a5,28(sp)
     62a:	c856                	sw	s5,16(sp)
     62c:	01411c23          	sh	s4,24(sp)
     630:	04b010ef          	jal	ra,1e7a <I2C_Init>
     634:	80040513          	addi	a0,s0,-2048
     638:	4585                	li	a1,1
     63a:	15b010ef          	jal	ra,1f94 <I2C_Cmd>
     63e:	80040513          	addi	a0,s0,-2048
     642:	4585                	li	a1,1
     644:	1a9010ef          	jal	ra,1fec <I2C_AcknowledgeConfig>
     648:	50f2                	lw	ra,60(sp)
     64a:	5462                	lw	s0,56(sp)
     64c:	54d2                	lw	s1,52(sp)
     64e:	5942                	lw	s2,48(sp)
     650:	59b2                	lw	s3,44(sp)
     652:	5a22                	lw	s4,40(sp)
     654:	5a92                	lw	s5,36(sp)
     656:	6121                	addi	sp,sp,64
     658:	8082                	ret

0000065a <ES8388_Contrl_Init>:
     65a:	1101                	addi	sp,sp,-32
     65c:	4585                	li	a1,1
     65e:	4511                	li	a0,4
     660:	ce06                	sw	ra,28(sp)
     662:	341010ef          	jal	ra,21a2 <RCC_APB2PeriphClockCmd>
     666:	10000793          	li	a5,256
     66a:	00f11223          	sh	a5,4(sp)
     66e:	40011537          	lui	a0,0x40011
     672:	47c1                	li	a5,16
     674:	c63e                	sw	a5,12(sp)
     676:	004c                	addi	a1,sp,4
     678:	478d                	li	a5,3
     67a:	80050513          	addi	a0,a0,-2048 # 40010800 <_eusrstack+0x1fff0800>
     67e:	c43e                	sw	a5,8(sp)
     680:	71c010ef          	jal	ra,1d9c <GPIO_Init>
     684:	40f2                	lw	ra,28(sp)
     686:	6105                	addi	sp,sp,32
     688:	8082                	ret

0000068a <ES8388_Write_Reg>:
     68a:	1101                	addi	sp,sp,-32
     68c:	cc22                	sw	s0,24(sp)
     68e:	40006437          	lui	s0,0x40006
     692:	ca26                	sw	s1,20(sp)
     694:	c84a                	sw	s2,16(sp)
     696:	c64e                	sw	s3,12(sp)
     698:	ce06                	sw	ra,28(sp)
     69a:	c452                	sw	s4,8(sp)
     69c:	89aa                	mv	s3,a0
     69e:	892e                	mv	s2,a1
     6a0:	80040493          	addi	s1,s0,-2048 # 40005800 <_eusrstack+0x1ffe5800>
     6a4:	000205b7          	lui	a1,0x20
     6a8:	8526                	mv	a0,s1
     6aa:	195010ef          	jal	ra,203e <I2C_GetFlagStatus>
     6ae:	f97d                	bnez	a0,6a4 <ES8388_Write_Reg+0x1a>
     6b0:	80040513          	addi	a0,s0,-2048
     6b4:	4585                	li	a1,1
     6b6:	00030437          	lui	s0,0x30
     6ba:	400064b7          	lui	s1,0x40006
     6be:	0f3010ef          	jal	ra,1fb0 <I2C_GenerateSTART>
     6c2:	0405                	addi	s0,s0,1
     6c4:	80048a13          	addi	s4,s1,-2048 # 40005800 <_eusrstack+0x1ffe5800>
     6c8:	85a2                	mv	a1,s0
     6ca:	8552                	mv	a0,s4
     6cc:	159010ef          	jal	ra,2024 <I2C_CheckEvent>
     6d0:	dd65                	beqz	a0,6c8 <ES8388_Write_Reg+0x3e>
     6d2:	80048513          	addi	a0,s1,-2048
     6d6:	4601                	li	a2,0
     6d8:	02000593          	li	a1,32
     6dc:	000704b7          	lui	s1,0x70
     6e0:	40006437          	lui	s0,0x40006
     6e4:	12d010ef          	jal	ra,2010 <I2C_Send7bitAddress>
     6e8:	08248493          	addi	s1,s1,130 # 70082 <_data_lma+0x64166>
     6ec:	80040413          	addi	s0,s0,-2048 # 40005800 <_eusrstack+0x1ffe5800>
     6f0:	85a6                	mv	a1,s1
     6f2:	8522                	mv	a0,s0
     6f4:	131010ef          	jal	ra,2024 <I2C_CheckEvent>
     6f8:	dd65                	beqz	a0,6f0 <ES8388_Write_Reg+0x66>
     6fa:	10000437          	lui	s0,0x10000
     6fe:	400064b7          	lui	s1,0x40006
     702:	08040413          	addi	s0,s0,128 # 10000080 <_data_lma+0xfff4164>
     706:	80048a13          	addi	s4,s1,-2048 # 40005800 <_eusrstack+0x1ffe5800>
     70a:	85a2                	mv	a1,s0
     70c:	8552                	mv	a0,s4
     70e:	131010ef          	jal	ra,203e <I2C_GetFlagStatus>
     712:	dd65                	beqz	a0,70a <ES8388_Write_Reg+0x80>
     714:	80048513          	addi	a0,s1,-2048
     718:	85ce                	mv	a1,s3
     71a:	000704b7          	lui	s1,0x70
     71e:	40006437          	lui	s0,0x40006
     722:	0e9010ef          	jal	ra,200a <I2C_SendData>
     726:	08448493          	addi	s1,s1,132 # 70084 <_data_lma+0x64168>
     72a:	80040413          	addi	s0,s0,-2048 # 40005800 <_eusrstack+0x1ffe5800>
     72e:	85a6                	mv	a1,s1
     730:	8522                	mv	a0,s0
     732:	0f3010ef          	jal	ra,2024 <I2C_CheckEvent>
     736:	dd65                	beqz	a0,72e <ES8388_Write_Reg+0xa4>
     738:	100004b7          	lui	s1,0x10000
     73c:	40006437          	lui	s0,0x40006
     740:	08048493          	addi	s1,s1,128 # 10000080 <_data_lma+0xfff4164>
     744:	80040993          	addi	s3,s0,-2048 # 40005800 <_eusrstack+0x1ffe5800>
     748:	85a6                	mv	a1,s1
     74a:	854e                	mv	a0,s3
     74c:	0f3010ef          	jal	ra,203e <I2C_GetFlagStatus>
     750:	dd65                	beqz	a0,748 <ES8388_Write_Reg+0xbe>
     752:	85ca                	mv	a1,s2
     754:	80040513          	addi	a0,s0,-2048
     758:	0b3010ef          	jal	ra,200a <I2C_SendData>
     75c:	80040513          	addi	a0,s0,-2048
     760:	4585                	li	a1,1
     762:	06d010ef          	jal	ra,1fce <I2C_GenerateSTOP>
     766:	40f2                	lw	ra,28(sp)
     768:	4462                	lw	s0,24(sp)
     76a:	44d2                	lw	s1,20(sp)
     76c:	4942                	lw	s2,16(sp)
     76e:	49b2                	lw	s3,12(sp)
     770:	4a22                	lw	s4,8(sp)
     772:	4501                	li	a0,0
     774:	6105                	addi	sp,sp,32
     776:	8082                	ret

00000778 <ES8388_Init>:
     778:	1141                	addi	sp,sp,-16
     77a:	c606                	sw	ra,12(sp)
     77c:	3df9                	jal	65a <ES8388_Contrl_Init>
     77e:	00031537          	lui	a0,0x31
     782:	4585                	li	a1,1
     784:	d4050513          	addi	a0,a0,-704 # 30d40 <_data_lma+0x24e24>
     788:	3d39                	jal	5a6 <IIC_Init>
     78a:	08000593          	li	a1,128
     78e:	4501                	li	a0,0
     790:	3ded                	jal	68a <ES8388_Write_Reg>
     792:	4581                	li	a1,0
     794:	4501                	li	a0,0
     796:	3dd5                	jal	68a <ES8388_Write_Reg>
     798:	06400513          	li	a0,100
     79c:	483010ef          	jal	ra,241e <Delay_Ms>
     7a0:	05800593          	li	a1,88
     7a4:	4505                	li	a0,1
     7a6:	35d5                	jal	68a <ES8388_Write_Reg>
     7a8:	05000593          	li	a1,80
     7ac:	4505                	li	a0,1
     7ae:	3df1                	jal	68a <ES8388_Write_Reg>
     7b0:	0f300593          	li	a1,243
     7b4:	4509                	li	a0,2
     7b6:	3dd1                	jal	68a <ES8388_Write_Reg>
     7b8:	0f000593          	li	a1,240
     7bc:	4509                	li	a0,2
     7be:	35f1                	jal	68a <ES8388_Write_Reg>
     7c0:	45a5                	li	a1,9
     7c2:	450d                	li	a0,3
     7c4:	35d9                	jal	68a <ES8388_Write_Reg>
     7c6:	4599                	li	a1,6
     7c8:	4501                	li	a0,0
     7ca:	35c1                	jal	68a <ES8388_Write_Reg>
     7cc:	4581                	li	a1,0
     7ce:	4511                	li	a0,4
     7d0:	3d6d                	jal	68a <ES8388_Write_Reg>
     7d2:	4581                	li	a1,0
     7d4:	4521                	li	a0,8
     7d6:	3d55                	jal	68a <ES8388_Write_Reg>
     7d8:	08000593          	li	a1,128
     7dc:	02b00513          	li	a0,43
     7e0:	356d                	jal	68a <ES8388_Write_Reg>
     7e2:	08800593          	li	a1,136
     7e6:	4525                	li	a0,9
     7e8:	354d                	jal	68a <ES8388_Write_Reg>
     7ea:	04c00593          	li	a1,76
     7ee:	4531                	li	a0,12
     7f0:	3d69                	jal	68a <ES8388_Write_Reg>
     7f2:	45c9                	li	a1,18
     7f4:	4535                	li	a0,13
     7f6:	3d51                	jal	68a <ES8388_Write_Reg>
     7f8:	4581                	li	a1,0
     7fa:	4541                	li	a0,16
     7fc:	3579                	jal	68a <ES8388_Write_Reg>
     7fe:	4581                	li	a1,0
     800:	4545                	li	a0,17
     802:	3561                	jal	68a <ES8388_Write_Reg>
     804:	45e1                	li	a1,24
     806:	455d                	li	a0,23
     808:	3549                	jal	68a <ES8388_Write_Reg>
     80a:	4589                	li	a1,2
     80c:	4561                	li	a0,24
     80e:	3db5                	jal	68a <ES8388_Write_Reg>
     810:	4581                	li	a1,0
     812:	4569                	li	a0,26
     814:	3d9d                	jal	68a <ES8388_Write_Reg>
     816:	4581                	li	a1,0
     818:	456d                	li	a0,27
     81a:	3d85                	jal	68a <ES8388_Write_Reg>
     81c:	0b800593          	li	a1,184
     820:	02700513          	li	a0,39
     824:	359d                	jal	68a <ES8388_Write_Reg>
     826:	0b800593          	li	a1,184
     82a:	02a00513          	li	a0,42
     82e:	3db1                	jal	68a <ES8388_Write_Reg>
     830:	06400513          	li	a0,100
     834:	3eb010ef          	jal	ra,241e <Delay_Ms>
     838:	40b2                	lw	ra,12(sp)
     83a:	4501                	li	a0,0
     83c:	0141                	addi	sp,sp,16
     83e:	8082                	ret

00000840 <ES8388_I2S_Cfg>:
     840:	890d                	andi	a0,a0,3
     842:	899d                	andi	a1,a1,7
     844:	0506                	slli	a0,a0,0x1
     846:	058e                	slli	a1,a1,0x3
     848:	8dc9                	or	a1,a1,a0
     84a:	455d                	li	a0,23
     84c:	bd3d                	j	68a <ES8388_Write_Reg>

0000084e <ES8388_Set_Volume>:
     84e:	1141                	addi	sp,sp,-16
     850:	c422                	sw	s0,8(sp)
     852:	c226                	sw	s1,4(sp)
     854:	c606                	sw	ra,12(sp)
     856:	84aa                	mv	s1,a0
     858:	4401                	li	s0,0
     85a:	00941763          	bne	s0,s1,868 <ES8388_Set_Volume+0x1a>
     85e:	40b2                	lw	ra,12(sp)
     860:	4422                	lw	s0,8(sp)
     862:	4492                	lw	s1,4(sp)
     864:	0141                	addi	sp,sp,16
     866:	8082                	ret
     868:	85a2                	mv	a1,s0
     86a:	02e00513          	li	a0,46
     86e:	3d31                	jal	68a <ES8388_Write_Reg>
     870:	85a2                	mv	a1,s0
     872:	02f00513          	li	a0,47
     876:	0405                	addi	s0,s0,1
     878:	3d09                	jal	68a <ES8388_Write_Reg>
     87a:	0ff47413          	andi	s0,s0,255
     87e:	bff1                	j	85a <ES8388_Set_Volume+0xc>

00000880 <ES8388_ADDA_Cfg>:
     880:	00159793          	slli	a5,a1,0x1
     884:	058e                	slli	a1,a1,0x3
     886:	8fcd                	or	a5,a5,a1
     888:	8fc9                	or	a5,a5,a0
     88a:	050a                	slli	a0,a0,0x2
     88c:	8fc9                	or	a5,a5,a0
     88e:	0ff7f593          	andi	a1,a5,255
     892:	4509                	li	a0,2
     894:	bbdd                	j	68a <ES8388_Write_Reg>

00000896 <lcd_write_half_word>:
     896:	00855713          	srli	a4,a0,0x8
     89a:	600207b7          	lui	a5,0x60020
     89e:	00e78023          	sb	a4,0(a5) # 60020000 <_eusrstack+0x40000000>
     8a2:	0ff57513          	andi	a0,a0,255
     8a6:	00a78023          	sb	a0,0(a5)
     8aa:	8082                	ret

000008ac <lcd_read_data>:
     8ac:	600207b7          	lui	a5,0x60020
     8b0:	0007c783          	lbu	a5,0(a5) # 60020000 <_eusrstack+0x40000000>
     8b4:	1141                	addi	sp,sp,-16
     8b6:	0ff7f793          	andi	a5,a5,255
     8ba:	00f107a3          	sb	a5,15(sp)
     8be:	00f14503          	lbu	a0,15(sp)
     8c2:	0141                	addi	sp,sp,16
     8c4:	8082                	ret

000008c6 <lcd_fsmc_init>:
     8c6:	7135                	addi	sp,sp,-160
     8c8:	03c00613          	li	a2,60
     8cc:	4581                	li	a1,0
     8ce:	00c8                	addi	a0,sp,68
     8d0:	cf06                	sw	ra,156(sp)
     8d2:	cd22                	sw	s0,152(sp)
     8d4:	cb26                	sw	s1,148(sp)
     8d6:	c94a                	sw	s2,144(sp)
     8d8:	c74e                	sw	s3,140(sp)
     8da:	c552                	sw	s4,136(sp)
     8dc:	c356                	sw	s5,132(sp)
     8de:	c15a                	sw	s6,128(sp)
     8e0:	00c10a93          	addi	s5,sp,12
     8e4:	c002                	sw	zero,0(sp)
     8e6:	c202                	sw	zero,4(sp)
     8e8:	c402                	sw	zero,8(sp)
     8ea:	917ff0ef          	jal	ra,200 <memset>
     8ee:	4671                	li	a2,28
     8f0:	4581                	li	a1,0
     8f2:	8556                	mv	a0,s5
     8f4:	90dff0ef          	jal	ra,200 <memset>
     8f8:	02810a13          	addi	s4,sp,40
     8fc:	4671                	li	a2,28
     8fe:	4581                	li	a1,0
     900:	8552                	mv	a0,s4
     902:	8ffff0ef          	jal	ra,200 <memset>
     906:	4585                	li	a1,1
     908:	10000513          	li	a0,256
     90c:	079010ef          	jal	ra,2184 <RCC_AHBPeriphClockCmd>
     910:	4585                	li	a1,1
     912:	16800513          	li	a0,360
     916:	08d010ef          	jal	ra,21a2 <RCC_APB2PeriphClockCmd>
     91a:	400114b7          	lui	s1,0x40011
     91e:	440d                	li	s0,3
     920:	6791                	lui	a5,0x4
     922:	4b41                	li	s6,16
     924:	858a                	mv	a1,sp
     926:	c0048513          	addi	a0,s1,-1024 # 40010c00 <_eusrstack+0x1fff0c00>
     92a:	00f11023          	sh	a5,0(sp)
     92e:	c45a                	sw	s6,8(sp)
     930:	c222                	sw	s0,4(sp)
     932:	46a010ef          	jal	ra,1d9c <GPIO_Init>
     936:	77f1                	lui	a5,0xffffc
     938:	49e1                	li	s3,24
     93a:	73378793          	addi	a5,a5,1843 # ffffc733 <_eusrstack+0xdffdc733>
     93e:	858a                	mv	a1,sp
     940:	40048513          	addi	a0,s1,1024
     944:	00f11023          	sh	a5,0(sp)
     948:	c44e                	sw	s3,8(sp)
     94a:	c222                	sw	s0,4(sp)
     94c:	450010ef          	jal	ra,1d9c <GPIO_Init>
     950:	40012537          	lui	a0,0x40012
     954:	f8000793          	li	a5,-128
     958:	858a                	mv	a1,sp
     95a:	80050513          	addi	a0,a0,-2048 # 40011800 <_eusrstack+0x1fff1800>
     95e:	00f11023          	sh	a5,0(sp)
     962:	c44e                	sw	s3,8(sp)
     964:	c222                	sw	s0,4(sp)
     966:	436010ef          	jal	ra,1d9c <GPIO_Init>
     96a:	858a                	mv	a1,sp
     96c:	40048513          	addi	a0,s1,1024
     970:	6905                	lui	s2,0x1
     972:	01211023          	sh	s2,0(sp)
     976:	c44e                	sw	s3,8(sp)
     978:	c222                	sw	s0,4(sp)
     97a:	422010ef          	jal	ra,1d9c <GPIO_Init>
     97e:	858a                	mv	a1,sp
     980:	40048513          	addi	a0,s1,1024
     984:	80090913          	addi	s2,s2,-2048 # 800 <__stack_size>
     988:	01211023          	sh	s2,0(sp)
     98c:	c45a                	sw	s6,8(sp)
     98e:	c222                	sw	s0,4(sp)
     990:	6905                	lui	s2,0x1
     992:	40a010ef          	jal	ra,1d9c <GPIO_Init>
     996:	80090593          	addi	a1,s2,-2048 # 800 <__stack_size>
     99a:	40048513          	addi	a0,s1,1024
     99e:	4ce010ef          	jal	ra,1e6c <GPIO_ResetBits>
     9a2:	4785                	li	a5,1
     9a4:	c63e                	sw	a5,12(sp)
     9a6:	47bd                	li	a5,15
     9a8:	ca3e                	sw	a5,20(sp)
     9aa:	00c8                	addi	a0,sp,68
     9ac:	6791                	lui	a5,0x4
     9ae:	d822                	sw	s0,48(sp)
     9b0:	d4ca                	sw	s2,104(sp)
     9b2:	d8be                	sw	a5,112(sp)
     9b4:	dcd6                	sw	s5,120(sp)
     9b6:	ded2                	sw	s4,124(sp)
     9b8:	c802                	sw	zero,16(sp)
     9ba:	cc02                	sw	zero,24(sp)
     9bc:	ce02                	sw	zero,28(sp)
     9be:	d002                	sw	zero,32(sp)
     9c0:	d202                	sw	zero,36(sp)
     9c2:	d402                	sw	zero,40(sp)
     9c4:	d602                	sw	zero,44(sp)
     9c6:	da02                	sw	zero,52(sp)
     9c8:	dc02                	sw	zero,56(sp)
     9ca:	de02                	sw	zero,60(sp)
     9cc:	c082                	sw	zero,64(sp)
     9ce:	c282                	sw	zero,68(sp)
     9d0:	c482                	sw	zero,72(sp)
     9d2:	c682                	sw	zero,76(sp)
     9d4:	c882                	sw	zero,80(sp)
     9d6:	ca82                	sw	zero,84(sp)
     9d8:	ce82                	sw	zero,92(sp)
     9da:	cc82                	sw	zero,88(sp)
     9dc:	d082                	sw	zero,96(sp)
     9de:	d282                	sw	zero,100(sp)
     9e0:	d682                	sw	zero,108(sp)
     9e2:	da82                	sw	zero,116(sp)
     9e4:	2e0010ef          	jal	ra,1cc4 <FSMC_NORSRAMInit>
     9e8:	4585                	li	a1,1
     9ea:	4501                	li	a0,0
     9ec:	392010ef          	jal	ra,1d7e <FSMC_NORSRAMCmd>
     9f0:	40fa                	lw	ra,156(sp)
     9f2:	446a                	lw	s0,152(sp)
     9f4:	44da                	lw	s1,148(sp)
     9f6:	494a                	lw	s2,144(sp)
     9f8:	49ba                	lw	s3,140(sp)
     9fa:	4a2a                	lw	s4,136(sp)
     9fc:	4a9a                	lw	s5,132(sp)
     9fe:	4b0a                	lw	s6,128(sp)
     a00:	610d                	addi	sp,sp,160
     a02:	8082                	ret

00000a04 <lcd_gpio_init>:
     a04:	1101                	addi	sp,sp,-32
     a06:	4585                	li	a1,1
     a08:	02000513          	li	a0,32
     a0c:	ce06                	sw	ra,28(sp)
     a0e:	cc22                	sw	s0,24(sp)
     a10:	792010ef          	jal	ra,21a2 <RCC_APB2PeriphClockCmd>
     a14:	6789                	lui	a5,0x2
     a16:	40011437          	lui	s0,0x40011
     a1a:	00f11223          	sh	a5,4(sp)
     a1e:	47c1                	li	a5,16
     a20:	c63e                	sw	a5,12(sp)
     a22:	004c                	addi	a1,sp,4
     a24:	478d                	li	a5,3
     a26:	40040513          	addi	a0,s0,1024 # 40011400 <_eusrstack+0x1fff1400>
     a2a:	c43e                	sw	a5,8(sp)
     a2c:	370010ef          	jal	ra,1d9c <GPIO_Init>
     a30:	40040513          	addi	a0,s0,1024
     a34:	6589                	lui	a1,0x2
     a36:	432010ef          	jal	ra,1e68 <GPIO_SetBits>
     a3a:	6589                	lui	a1,0x2
     a3c:	40040513          	addi	a0,s0,1024
     a40:	42c010ef          	jal	ra,1e6c <GPIO_ResetBits>
     a44:	06400513          	li	a0,100
     a48:	1d7010ef          	jal	ra,241e <Delay_Ms>
     a4c:	40040513          	addi	a0,s0,1024
     a50:	6589                	lui	a1,0x2
     a52:	416010ef          	jal	ra,1e68 <GPIO_SetBits>
     a56:	40f2                	lw	ra,28(sp)
     a58:	4462                	lw	s0,24(sp)
     a5a:	6105                	addi	sp,sp,32
     a5c:	8082                	ret

00000a5e <lcd_set_color>:
     a5e:	82a19023          	sh	a0,-2016(gp) # 200000c0 <_edata>
     a62:	200007b7          	lui	a5,0x20000
     a66:	0ab79023          	sh	a1,160(a5) # 200000a0 <FORE_COLOR>
     a6a:	8082                	ret

00000a6c <lcd_address_set>:
     a6c:	600207b7          	lui	a5,0x60020
     a70:	02a00713          	li	a4,42
     a74:	fee78fa3          	sb	a4,-1(a5) # 6001ffff <_eusrstack+0x3fffffff>
     a78:	00855713          	srli	a4,a0,0x8
     a7c:	00e78023          	sb	a4,0(a5)
     a80:	0ff57513          	andi	a0,a0,255
     a84:	00a78023          	sb	a0,0(a5)
     a88:	00865713          	srli	a4,a2,0x8
     a8c:	00e78023          	sb	a4,0(a5)
     a90:	0ff67613          	andi	a2,a2,255
     a94:	00c78023          	sb	a2,0(a5)
     a98:	02b00713          	li	a4,43
     a9c:	fee78fa3          	sb	a4,-1(a5)
     aa0:	0085d713          	srli	a4,a1,0x8
     aa4:	00e78023          	sb	a4,0(a5)
     aa8:	0ff5f593          	andi	a1,a1,255
     aac:	00b78023          	sb	a1,0(a5)
     ab0:	0086d713          	srli	a4,a3,0x8
     ab4:	00e78023          	sb	a4,0(a5)
     ab8:	0ff6f693          	andi	a3,a3,255
     abc:	00d78023          	sb	a3,0(a5)
     ac0:	02c00713          	li	a4,44
     ac4:	fee78fa3          	sb	a4,-1(a5)
     ac8:	8082                	ret

00000aca <lcd_clear>:
     aca:	1141                	addi	sp,sp,-16
     acc:	c422                	sw	s0,8(sp)
     ace:	c226                	sw	s1,4(sp)
     ad0:	0ef00693          	li	a3,239
     ad4:	00855493          	srli	s1,a0,0x8
     ad8:	0ff57413          	andi	s0,a0,255
     adc:	0ef00613          	li	a2,239
     ae0:	4581                	li	a1,0
     ae2:	4501                	li	a0,0
     ae4:	c606                	sw	ra,12(sp)
     ae6:	3759                	jal	a6c <lcd_address_set>
     ae8:	0f000713          	li	a4,240
     aec:	600206b7          	lui	a3,0x60020
     af0:	0f000793          	li	a5,240
     af4:	17fd                	addi	a5,a5,-1
     af6:	00968023          	sb	s1,0(a3) # 60020000 <_eusrstack+0x40000000>
     afa:	07c2                	slli	a5,a5,0x10
     afc:	00868023          	sb	s0,0(a3)
     b00:	83c1                	srli	a5,a5,0x10
     b02:	fbed                	bnez	a5,af4 <lcd_clear+0x2a>
     b04:	177d                	addi	a4,a4,-1
     b06:	0742                	slli	a4,a4,0x10
     b08:	8341                	srli	a4,a4,0x10
     b0a:	f37d                	bnez	a4,af0 <lcd_clear+0x26>
     b0c:	40b2                	lw	ra,12(sp)
     b0e:	4422                	lw	s0,8(sp)
     b10:	4492                	lw	s1,4(sp)
     b12:	0141                	addi	sp,sp,16
     b14:	8082                	ret

00000b16 <lcd_init>:
     b16:	1141                	addi	sp,sp,-16
     b18:	c606                	sw	ra,12(sp)
     b1a:	c422                	sw	s0,8(sp)
     b1c:	c226                	sw	s1,4(sp)
     b1e:	35dd                	jal	a04 <lcd_gpio_init>
     b20:	335d                	jal	8c6 <lcd_fsmc_init>
     b22:	60020437          	lui	s0,0x60020
     b26:	4791                	li	a5,4
     b28:	fef40fa3          	sb	a5,-1(s0) # 6001ffff <_eusrstack+0x3fffffff>
     b2c:	3341                	jal	8ac <lcd_read_data>
     b2e:	3bbd                	jal	8ac <lcd_read_data>
     b30:	3bb5                	jal	8ac <lcd_read_data>
     b32:	01051493          	slli	s1,a0,0x10
     b36:	80c1                	srli	s1,s1,0x10
     b38:	04a2                	slli	s1,s1,0x8
     b3a:	04c2                	slli	s1,s1,0x10
     b3c:	3b85                	jal	8ac <lcd_read_data>
     b3e:	80c1                	srli	s1,s1,0x10
     b40:	8d45                	or	a0,a0,s1
     b42:	01051593          	slli	a1,a0,0x10
     b46:	0000a537          	lui	a0,0xa
     b4a:	81c1                	srli	a1,a1,0x10
     b4c:	a8450513          	addi	a0,a0,-1404 # 9a84 <chinese_char+0x168>
     b50:	6fa040ef          	jal	ra,524a <iprintf>
     b54:	03200513          	li	a0,50
     b58:	0c7010ef          	jal	ra,241e <Delay_Ms>
     b5c:	03600793          	li	a5,54
     b60:	fef40fa3          	sb	a5,-1(s0)
     b64:	00040023          	sb	zero,0(s0)
     b68:	03a00613          	li	a2,58
     b6c:	fec40fa3          	sb	a2,-1(s0)
     b70:	4795                	li	a5,5
     b72:	00f40023          	sb	a5,0(s0)
     b76:	fb200793          	li	a5,-78
     b7a:	fef40fa3          	sb	a5,-1(s0)
     b7e:	46b1                	li	a3,12
     b80:	00d40023          	sb	a3,0(s0)
     b84:	00d40023          	sb	a3,0(s0)
     b88:	00040023          	sb	zero,0(s0)
     b8c:	03300793          	li	a5,51
     b90:	00f40023          	sb	a5,0(s0)
     b94:	00f40023          	sb	a5,0(s0)
     b98:	fb700713          	li	a4,-73
     b9c:	fee40fa3          	sb	a4,-1(s0)
     ba0:	00040023          	sb	zero,0(s0)
     ba4:	fbb00713          	li	a4,-69
     ba8:	fee40fa3          	sb	a4,-1(s0)
     bac:	03f00313          	li	t1,63
     bb0:	00640023          	sb	t1,0(s0)
     bb4:	fc000713          	li	a4,-64
     bb8:	fee40fa3          	sb	a4,-1(s0)
     bbc:	02c00713          	li	a4,44
     bc0:	00e40023          	sb	a4,0(s0)
     bc4:	fc200713          	li	a4,-62
     bc8:	fee40fa3          	sb	a4,-1(s0)
     bcc:	4705                	li	a4,1
     bce:	00e40023          	sb	a4,0(s0)
     bd2:	fc300713          	li	a4,-61
     bd6:	fee40fa3          	sb	a4,-1(s0)
     bda:	48b5                	li	a7,13
     bdc:	01140023          	sb	a7,0(s0)
     be0:	fc400713          	li	a4,-60
     be4:	fee40fa3          	sb	a4,-1(s0)
     be8:	02000713          	li	a4,32
     bec:	00e40023          	sb	a4,0(s0)
     bf0:	fc600713          	li	a4,-58
     bf4:	fee40fa3          	sb	a4,-1(s0)
     bf8:	470d                	li	a4,3
     bfa:	00e40023          	sb	a4,0(s0)
     bfe:	fd000593          	li	a1,-48
     c02:	feb40fa3          	sb	a1,-1(s0)
     c06:	fa400593          	li	a1,-92
     c0a:	00b40023          	sb	a1,0(s0)
     c0e:	fa100593          	li	a1,-95
     c12:	00b40023          	sb	a1,0(s0)
     c16:	5581                	li	a1,-32
     c18:	feb40fa3          	sb	a1,-1(s0)
     c1c:	5841                	li	a6,-16
     c1e:	01040023          	sb	a6,0(s0)
     c22:	00e40023          	sb	a4,0(s0)
     c26:	45a5                	li	a1,9
     c28:	00b40023          	sb	a1,0(s0)
     c2c:	00e40023          	sb	a4,0(s0)
     c30:	4541                	li	a0,16
     c32:	00e40023          	sb	a4,0(s0)
     c36:	02d00593          	li	a1,45
     c3a:	00a40023          	sb	a0,0(s0)
     c3e:	00b40023          	sb	a1,0(s0)
     c42:	04300713          	li	a4,67
     c46:	00e40023          	sb	a4,0(s0)
     c4a:	00640023          	sb	t1,0(s0)
     c4e:	00f40023          	sb	a5,0(s0)
     c52:	01140023          	sb	a7,0(s0)
     c56:	4739                	li	a4,14
     c58:	00e40023          	sb	a4,0(s0)
     c5c:	02900493          	li	s1,41
     c60:	00940023          	sb	s1,0(s0)
     c64:	03200893          	li	a7,50
     c68:	01140023          	sb	a7,0(s0)
     c6c:	5885                	li	a7,-31
     c6e:	ff140fa3          	sb	a7,-1(s0)
     c72:	01040023          	sb	a6,0(s0)
     c76:	00d40023          	sb	a3,0(s0)
     c7a:	00a40023          	sb	a0,0(s0)
     c7e:	00e40023          	sb	a4,0(s0)
     c82:	00e40023          	sb	a4,0(s0)
     c86:	4729                	li	a4,10
     c88:	00e40023          	sb	a4,0(s0)
     c8c:	00b40023          	sb	a1,0(s0)
     c90:	00f40023          	sb	a5,0(s0)
     c94:	04500793          	li	a5,69
     c98:	00f40023          	sb	a5,0(s0)
     c9c:	00c40023          	sb	a2,0(s0)
     ca0:	47d1                	li	a5,20
     ca2:	00f40023          	sb	a5,0(s0)
     ca6:	47e5                	li	a5,25
     ca8:	00f40023          	sb	a5,0(s0)
     cac:	03100793          	li	a5,49
     cb0:	00f40023          	sb	a5,0(s0)
     cb4:	03700793          	li	a5,55
     cb8:	00f40023          	sb	a5,0(s0)
     cbc:	02100793          	li	a5,33
     cc0:	fef40fa3          	sb	a5,-1(s0)
     cc4:	47c5                	li	a5,17
     cc6:	fef40fa3          	sb	a5,-1(s0)
     cca:	06400513          	li	a0,100
     cce:	750010ef          	jal	ra,241e <Delay_Ms>
     cd2:	4501                	li	a0,0
     cd4:	3bdd                	jal	aca <lcd_clear>
     cd6:	40011537          	lui	a0,0x40011
     cda:	6591                	lui	a1,0x4
     cdc:	c0050513          	addi	a0,a0,-1024 # 40010c00 <_eusrstack+0x1fff0c00>
     ce0:	188010ef          	jal	ra,1e68 <GPIO_SetBits>
     ce4:	fe940fa3          	sb	s1,-1(s0)
     ce8:	40b2                	lw	ra,12(sp)
     cea:	4422                	lw	s0,8(sp)
     cec:	4492                	lw	s1,4(sp)
     cee:	0141                	addi	sp,sp,16
     cf0:	8082                	ret

00000cf2 <lcd_draw_point_color>:
     cf2:	1141                	addi	sp,sp,-16
     cf4:	c422                	sw	s0,8(sp)
     cf6:	86ae                	mv	a3,a1
     cf8:	8432                	mv	s0,a2
     cfa:	862a                	mv	a2,a0
     cfc:	c606                	sw	ra,12(sp)
     cfe:	33bd                	jal	a6c <lcd_address_set>
     d00:	8522                	mv	a0,s0
     d02:	4422                	lw	s0,8(sp)
     d04:	40b2                	lw	ra,12(sp)
     d06:	0141                	addi	sp,sp,16
     d08:	b679                	j	896 <lcd_write_half_word>

00000d0a <lcd_fill>:
     d0a:	1101                	addi	sp,sp,-32
     d0c:	cc22                	sw	s0,24(sp)
     d0e:	c84a                	sw	s2,16(sp)
     d10:	c64e                	sw	s3,12(sp)
     d12:	c452                	sw	s4,8(sp)
     d14:	c256                	sw	s5,4(sp)
     d16:	ce06                	sw	ra,28(sp)
     d18:	ca26                	sw	s1,20(sp)
     d1a:	89aa                	mv	s3,a0
     d1c:	842e                	mv	s0,a1
     d1e:	8a32                	mv	s4,a2
     d20:	8936                	mv	s2,a3
     d22:	8aba                	mv	s5,a4
     d24:	33a1                	jal	a6c <lcd_address_set>
     d26:	02897663          	bgeu	s2,s0,d52 <lcd_fill+0x48>
     d2a:	40f2                	lw	ra,28(sp)
     d2c:	4462                	lw	s0,24(sp)
     d2e:	44d2                	lw	s1,20(sp)
     d30:	4942                	lw	s2,16(sp)
     d32:	49b2                	lw	s3,12(sp)
     d34:	4a22                	lw	s4,8(sp)
     d36:	4a92                	lw	s5,4(sp)
     d38:	6105                	addi	sp,sp,32
     d3a:	8082                	ret
     d3c:	0485                	addi	s1,s1,1
     d3e:	8556                	mv	a0,s5
     d40:	04c2                	slli	s1,s1,0x10
     d42:	3e91                	jal	896 <lcd_write_half_word>
     d44:	80c1                	srli	s1,s1,0x10
     d46:	fe9a7be3          	bgeu	s4,s1,d3c <lcd_fill+0x32>
     d4a:	0405                	addi	s0,s0,1
     d4c:	0442                	slli	s0,s0,0x10
     d4e:	8041                	srli	s0,s0,0x10
     d50:	bfd9                	j	d26 <lcd_fill+0x1c>
     d52:	84ce                	mv	s1,s3
     d54:	bfcd                	j	d46 <lcd_fill+0x3c>

00000d56 <lcd_show_char>:
     d56:	0016d893          	srli	a7,a3,0x1
     d5a:	0f000813          	li	a6,240
     d5e:	411808b3          	sub	a7,a6,a7
     d62:	1aa8e063          	bltu	a7,a0,f02 <lcd_show_char+0x1ac>
     d66:	40d80833          	sub	a6,a6,a3
     d6a:	18b86c63          	bltu	a6,a1,f02 <lcd_show_char+0x1ac>
     d6e:	7179                	addi	sp,sp,-48
     d70:	d422                	sw	s0,40(sp)
     d72:	d606                	sw	ra,44(sp)
     d74:	fe060413          	addi	s0,a2,-32 # ffff7fe0 <_eusrstack+0xdffd7fe0>
     d78:	d226                	sw	s1,36(sp)
     d7a:	d04a                	sw	s2,32(sp)
     d7c:	ce4e                	sw	s3,28(sp)
     d7e:	cc52                	sw	s4,24(sp)
     d80:	ca56                	sw	s5,20(sp)
     d82:	c85a                	sw	s6,16(sp)
     d84:	c65e                	sw	s7,12(sp)
     d86:	c462                	sw	s8,8(sp)
     d88:	4641                	li	a2,16
     d8a:	0ff47413          	andi	s0,s0,255
     d8e:	06c69a63          	bne	a3,a2,e02 <lcd_show_char+0xac>
     d92:	00f58693          	addi	a3,a1,15 # 400f <__muldf3+0x42f>
     d96:	00750613          	addi	a2,a0,7
     d9a:	06c2                	slli	a3,a3,0x10
     d9c:	0642                	slli	a2,a2,0x10
     d9e:	82c1                	srli	a3,a3,0x10
     da0:	8241                	srli	a2,a2,0x10
     da2:	6a1d                	lui	s4,0x7
     da4:	31e1                	jal	a6c <lcd_address_set>
     da6:	0412                	slli	s0,s0,0x4
     da8:	4981                	li	s3,0
     daa:	a1ca0a13          	addi	s4,s4,-1508 # 6a1c <asc2_1608>
     dae:	20000bb7          	lui	s7,0x20000
     db2:	4ac1                	li	s5,16
     db4:	013407b3          	add	a5,s0,s3
     db8:	97d2                	add	a5,a5,s4
     dba:	0007c903          	lbu	s2,0(a5)
     dbe:	44a1                	li	s1,8
     dc0:	01891793          	slli	a5,s2,0x18
     dc4:	87e1                	srai	a5,a5,0x18
     dc6:	0207db63          	bgez	a5,dfc <lcd_show_char+0xa6>
     dca:	0a0bd503          	lhu	a0,160(s7) # 200000a0 <FORE_COLOR>
     dce:	14fd                	addi	s1,s1,-1
     dd0:	0906                	slli	s2,s2,0x1
     dd2:	0ff4f493          	andi	s1,s1,255
     dd6:	34c1                	jal	896 <lcd_write_half_word>
     dd8:	0ff97913          	andi	s2,s2,255
     ddc:	f0f5                	bnez	s1,dc0 <lcd_show_char+0x6a>
     dde:	0985                	addi	s3,s3,1
     de0:	fd599ae3          	bne	s3,s5,db4 <lcd_show_char+0x5e>
     de4:	50b2                	lw	ra,44(sp)
     de6:	5422                	lw	s0,40(sp)
     de8:	5492                	lw	s1,36(sp)
     dea:	5902                	lw	s2,32(sp)
     dec:	49f2                	lw	s3,28(sp)
     dee:	4a62                	lw	s4,24(sp)
     df0:	4ad2                	lw	s5,20(sp)
     df2:	4b42                	lw	s6,16(sp)
     df4:	4bb2                	lw	s7,12(sp)
     df6:	4c22                	lw	s8,8(sp)
     df8:	6145                	addi	sp,sp,48
     dfa:	8082                	ret
     dfc:	8201d503          	lhu	a0,-2016(gp) # 200000c0 <_edata>
     e00:	b7f9                	j	dce <lcd_show_char+0x78>
     e02:	4661                	li	a2,24
     e04:	06c69b63          	bne	a3,a2,e7a <lcd_show_char+0x124>
     e08:	01758693          	addi	a3,a1,23
     e0c:	00b50613          	addi	a2,a0,11
     e10:	06c2                	slli	a3,a3,0x10
     e12:	0642                	slli	a2,a2,0x10
     e14:	82c1                	srli	a3,a3,0x10
     e16:	8241                	srli	a2,a2,0x10
     e18:	3991                	jal	a6c <lcd_address_set>
     e1a:	18000793          	li	a5,384
     e1e:	02f40433          	mul	s0,s0,a5
     e22:	6a1d                	lui	s4,0x7
     e24:	4481                	li	s1,0
     e26:	03000b13          	li	s6,48
     e2a:	ffca0a13          	addi	s4,s4,-4 # 6ffc <asc2_2412>
     e2e:	20000c37          	lui	s8,0x20000
     e32:	800d                	srli	s0,s0,0x3
     e34:	0ff4f793          	andi	a5,s1,255
     e38:	fb6486e3          	beq	s1,s6,de4 <lcd_show_char+0x8e>
     e3c:	00940733          	add	a4,s0,s1
     e40:	9752                	add	a4,a4,s4
     e42:	8b85                	andi	a5,a5,1
     e44:	00074983          	lbu	s3,0(a4)
     e48:	4a91                	li	s5,4
     e4a:	e391                	bnez	a5,e4e <lcd_show_char+0xf8>
     e4c:	4aa1                	li	s5,8
     e4e:	4901                	li	s2,0
     e50:	01899793          	slli	a5,s3,0x18
     e54:	87e1                	srai	a5,a5,0x18
     e56:	0007df63          	bgez	a5,e74 <lcd_show_char+0x11e>
     e5a:	0a0c5503          	lhu	a0,160(s8) # 200000a0 <FORE_COLOR>
     e5e:	0905                	addi	s2,s2,1
     e60:	0986                	slli	s3,s3,0x1
     e62:	0ff97913          	andi	s2,s2,255
     e66:	3c05                	jal	896 <lcd_write_half_word>
     e68:	0ff9f993          	andi	s3,s3,255
     e6c:	ff2a92e3          	bne	s5,s2,e50 <lcd_show_char+0xfa>
     e70:	0485                	addi	s1,s1,1
     e72:	b7c9                	j	e34 <lcd_show_char+0xde>
     e74:	8201d503          	lhu	a0,-2016(gp) # 200000c0 <_edata>
     e78:	b7dd                	j	e5e <lcd_show_char+0x108>
     e7a:	02000613          	li	a2,32
     e7e:	06c69163          	bne	a3,a2,ee0 <lcd_show_char+0x18a>
     e82:	01f58693          	addi	a3,a1,31
     e86:	00f50613          	addi	a2,a0,15
     e8a:	06c2                	slli	a3,a3,0x10
     e8c:	0642                	slli	a2,a2,0x10
     e8e:	82c1                	srli	a3,a3,0x10
     e90:	8241                	srli	a2,a2,0x10
     e92:	6a21                	lui	s4,0x8
     e94:	3ee1                	jal	a6c <lcd_address_set>
     e96:	041a                	slli	s0,s0,0x6
     e98:	4981                	li	s3,0
     e9a:	19ca0a13          	addi	s4,s4,412 # 819c <asc2_3216>
     e9e:	20000bb7          	lui	s7,0x20000
     ea2:	04000a93          	li	s5,64
     ea6:	008987b3          	add	a5,s3,s0
     eaa:	97d2                	add	a5,a5,s4
     eac:	0007c903          	lbu	s2,0(a5)
     eb0:	44a1                	li	s1,8
     eb2:	01891793          	slli	a5,s2,0x18
     eb6:	87e1                	srai	a5,a5,0x18
     eb8:	0207d163          	bgez	a5,eda <lcd_show_char+0x184>
     ebc:	0a0bd503          	lhu	a0,160(s7) # 200000a0 <FORE_COLOR>
     ec0:	14fd                	addi	s1,s1,-1
     ec2:	0906                	slli	s2,s2,0x1
     ec4:	0ff4f493          	andi	s1,s1,255
     ec8:	9cfff0ef          	jal	ra,896 <lcd_write_half_word>
     ecc:	0ff97913          	andi	s2,s2,255
     ed0:	f0ed                	bnez	s1,eb2 <lcd_show_char+0x15c>
     ed2:	0985                	addi	s3,s3,1
     ed4:	fd5999e3          	bne	s3,s5,ea6 <lcd_show_char+0x150>
     ed8:	b731                	j	de4 <lcd_show_char+0x8e>
     eda:	8201d503          	lhu	a0,-2016(gp) # 200000c0 <_edata>
     ede:	b7cd                	j	ec0 <lcd_show_char+0x16a>
     ee0:	5422                	lw	s0,40(sp)
     ee2:	50b2                	lw	ra,44(sp)
     ee4:	5492                	lw	s1,36(sp)
     ee6:	5902                	lw	s2,32(sp)
     ee8:	49f2                	lw	s3,28(sp)
     eea:	4a62                	lw	s4,24(sp)
     eec:	4ad2                	lw	s5,20(sp)
     eee:	4b42                	lw	s6,16(sp)
     ef0:	4bb2                	lw	s7,12(sp)
     ef2:	4c22                	lw	s8,8(sp)
     ef4:	0000a537          	lui	a0,0xa
     ef8:	a9050513          	addi	a0,a0,-1392 # 9a90 <chinese_char+0x174>
     efc:	6145                	addi	sp,sp,48
     efe:	34c0406f          	j	524a <iprintf>
     f02:	8082                	ret

00000f04 <lcd_show_string>:
     f04:	7155                	addi	sp,sp,-208
     f06:	db26                	sw	s1,180(sp)
     f08:	d94a                	sw	s2,176(sp)
     f0a:	d74e                	sw	s3,172(sp)
     f0c:	84aa                	mv	s1,a0
     f0e:	89b2                	mv	s3,a2
     f10:	892e                	mv	s2,a1
     f12:	08000613          	li	a2,128
     f16:	4581                	li	a1,0
     f18:	0808                	addi	a0,sp,16
     f1a:	dd22                	sw	s0,184(sp)
     f1c:	c1ba                	sw	a4,192(sp)
     f1e:	c3be                	sw	a5,196(sp)
     f20:	df06                	sw	ra,188(sp)
     f22:	d552                	sw	s4,168(sp)
     f24:	d356                	sw	s5,164(sp)
     f26:	d15a                	sw	s6,160(sp)
     f28:	cf5e                	sw	s7,156(sp)
     f2a:	8436                	mv	s0,a3
     f2c:	c5c2                	sw	a6,200(sp)
     f2e:	c7c6                	sw	a7,204(sp)
     f30:	ad0ff0ef          	jal	ra,200 <memset>
     f34:	ff79f713          	andi	a4,s3,-9
     f38:	47c1                	li	a5,16
     f3a:	00f70d63          	beq	a4,a5,f54 <lcd_show_string+0x50>
     f3e:	02000793          	li	a5,32
     f42:	00f98963          	beq	s3,a5,f54 <lcd_show_string+0x50>
     f46:	0000a537          	lui	a0,0xa
     f4a:	85ce                	mv	a1,s3
     f4c:	adc50513          	addi	a0,a0,-1316 # 9adc <chinese_char+0x1c0>
     f50:	2fa040ef          	jal	ra,524a <iprintf>
     f54:	0194                	addi	a3,sp,192
     f56:	8622                	mv	a2,s0
     f58:	06400593          	li	a1,100
     f5c:	0808                	addi	a0,sp,16
     f5e:	c636                	sw	a3,12(sp)
     f60:	46e040ef          	jal	ra,53ce <vsniprintf>
     f64:	0019d713          	srli	a4,s3,0x1
     f68:	0f000793          	li	a5,240
     f6c:	01071b13          	slli	s6,a4,0x10
     f70:	6ac1                	lui	s5,0x10
     f72:	40e78bb3          	sub	s7,a5,a4
     f76:	010b5b13          	srli	s6,s6,0x10
     f7a:	0800                	addi	s0,sp,16
     f7c:	41378a33          	sub	s4,a5,s3
     f80:	800a8a93          	addi	s5,s5,-2048 # f800 <_data_lma+0x38e4>
     f84:	00044783          	lbu	a5,0(s0)
     f88:	ef81                	bnez	a5,fa0 <lcd_show_string+0x9c>
     f8a:	50fa                	lw	ra,188(sp)
     f8c:	546a                	lw	s0,184(sp)
     f8e:	54da                	lw	s1,180(sp)
     f90:	594a                	lw	s2,176(sp)
     f92:	59ba                	lw	s3,172(sp)
     f94:	5a2a                	lw	s4,168(sp)
     f96:	5a9a                	lw	s5,164(sp)
     f98:	5b0a                	lw	s6,160(sp)
     f9a:	4bfa                	lw	s7,156(sp)
     f9c:	6169                	addi	sp,sp,208
     f9e:	8082                	ret
     fa0:	009bf763          	bgeu	s7,s1,fae <lcd_show_string+0xaa>
     fa4:	994e                	add	s2,s2,s3
     fa6:	0942                	slli	s2,s2,0x10
     fa8:	01095913          	srli	s2,s2,0x10
     fac:	4481                	li	s1,0
     fae:	012a7663          	bgeu	s4,s2,fba <lcd_show_string+0xb6>
     fb2:	8556                	mv	a0,s5
     fb4:	3e19                	jal	aca <lcd_clear>
     fb6:	4901                	li	s2,0
     fb8:	4481                	li	s1,0
     fba:	00044603          	lbu	a2,0(s0)
     fbe:	8526                	mv	a0,s1
     fc0:	94da                	add	s1,s1,s6
     fc2:	86ce                	mv	a3,s3
     fc4:	85ca                	mv	a1,s2
     fc6:	04c2                	slli	s1,s1,0x10
     fc8:	3379                	jal	d56 <lcd_show_char>
     fca:	80c1                	srli	s1,s1,0x10
     fcc:	0405                	addi	s0,s0,1
     fce:	bf5d                	j	f84 <lcd_show_string+0x80>

00000fd0 <lcd_show_chinese>:
     fd0:	715d                	addi	sp,sp,-80
     fd2:	d06a                	sw	s10,32(sp)
     fd4:	8d3a                	mv	s10,a4
     fd6:	0f000713          	li	a4,240
     fda:	c686                	sw	ra,76(sp)
     fdc:	c4a2                	sw	s0,72(sp)
     fde:	c2a6                	sw	s1,68(sp)
     fe0:	c0ca                	sw	s2,64(sp)
     fe2:	de4e                	sw	s3,60(sp)
     fe4:	dc52                	sw	s4,56(sp)
     fe6:	da56                	sw	s5,52(sp)
     fe8:	d85a                	sw	s6,48(sp)
     fea:	d65e                	sw	s7,44(sp)
     fec:	d462                	sw	s8,40(sp)
     fee:	d266                	sw	s9,36(sp)
     ff0:	ce6e                	sw	s11,28(sp)
     ff2:	8f1d                	sub	a4,a4,a5
     ff4:	04a74563          	blt	a4,a0,103e <lcd_show_chinese+0x6e>
     ff8:	84ae                	mv	s1,a1
     ffa:	04b74263          	blt	a4,a1,103e <lcd_show_chinese+0x6e>
     ffe:	01079a93          	slli	s5,a5,0x10
    1002:	010ada93          	srli	s5,s5,0x10
    1006:	0077f713          	andi	a4,a5,7
    100a:	8c36                	mv	s8,a3
    100c:	00e03733          	snez	a4,a4
    1010:	003ad693          	srli	a3,s5,0x3
    1014:	9736                	add	a4,a4,a3
    1016:	02ea8ab3          	mul	s5,s5,a4
    101a:	04800713          	li	a4,72
    101e:	6ba9                	lui	s7,0xa
    1020:	97aa                	add	a5,a5,a0
    1022:	892a                	mv	s2,a0
    1024:	842a                	mv	s0,a0
    1026:	4d81                	li	s11,0
    1028:	91cb8b93          	addi	s7,s7,-1764 # 991c <chinese_char>
    102c:	4ca1                	li	s9,8
    102e:	c63e                	sw	a5,12(sp)
    1030:	02e60b33          	mul	s6,a2,a4
    1034:	010d9793          	slli	a5,s11,0x10
    1038:	83c1                	srli	a5,a5,0x10
    103a:	0357e163          	bltu	a5,s5,105c <lcd_show_chinese+0x8c>
    103e:	40b6                	lw	ra,76(sp)
    1040:	4426                	lw	s0,72(sp)
    1042:	4496                	lw	s1,68(sp)
    1044:	4906                	lw	s2,64(sp)
    1046:	59f2                	lw	s3,60(sp)
    1048:	5a62                	lw	s4,56(sp)
    104a:	5ad2                	lw	s5,52(sp)
    104c:	5b42                	lw	s6,48(sp)
    104e:	5bb2                	lw	s7,44(sp)
    1050:	5c22                	lw	s8,40(sp)
    1052:	5c92                	lw	s9,36(sp)
    1054:	5d02                	lw	s10,32(sp)
    1056:	4df2                	lw	s11,28(sp)
    1058:	6161                	addi	sp,sp,80
    105a:	8082                	ret
    105c:	01bb07b3          	add	a5,s6,s11
    1060:	97de                	add	a5,a5,s7
    1062:	0007ca03          	lbu	s4,0(a5)
    1066:	4981                	li	s3,0
    1068:	01340533          	add	a0,s0,s3
    106c:	018a1793          	slli	a5,s4,0x18
    1070:	0542                	slli	a0,a0,0x10
    1072:	87e1                	srai	a5,a5,0x18
    1074:	8141                	srli	a0,a0,0x10
    1076:	866a                	mv	a2,s10
    1078:	0007c363          	bltz	a5,107e <lcd_show_chinese+0xae>
    107c:	8662                	mv	a2,s8
    107e:	0985                	addi	s3,s3,1
    1080:	09c2                	slli	s3,s3,0x10
    1082:	85a6                	mv	a1,s1
    1084:	0a06                	slli	s4,s4,0x1
    1086:	0109d993          	srli	s3,s3,0x10
    108a:	31a5                	jal	cf2 <lcd_draw_point_color>
    108c:	0ffa7a13          	andi	s4,s4,255
    1090:	fd999ce3          	bne	s3,s9,1068 <lcd_show_chinese+0x98>
    1094:	0421                	addi	s0,s0,8
    1096:	47b2                	lw	a5,12(sp)
    1098:	0442                	slli	s0,s0,0x10
    109a:	8041                	srli	s0,s0,0x10
    109c:	00f44663          	blt	s0,a5,10a8 <lcd_show_chinese+0xd8>
    10a0:	0485                	addi	s1,s1,1
    10a2:	04c2                	slli	s1,s1,0x10
    10a4:	80c1                	srli	s1,s1,0x10
    10a6:	844a                	mv	s0,s2
    10a8:	0d85                	addi	s11,s11,1
    10aa:	b769                	j	1034 <lcd_show_chinese+0x64>

000010ac <voice_record>:
    10ac:	1141                	addi	sp,sp,-16
    10ae:	c422                	sw	s0,8(sp)
    10b0:	40004437          	lui	s0,0x40004
    10b4:	4585                	li	a1,1
    10b6:	80040513          	addi	a0,s0,-2048 # 40003800 <_eusrstack+0x1ffe3800>
    10ba:	c606                	sw	ra,12(sp)
    10bc:	1fa010ef          	jal	ra,22b6 <I2S_Cmd>
    10c0:	19a00513          	li	a0,410
    10c4:	35a010ef          	jal	ra,241e <Delay_Ms>
    10c8:	80c40593          	addi	a1,s0,-2036
    10cc:	66a1                	lui	a3,0x8
    10ce:	40020437          	lui	s0,0x40020
    10d2:	20000637          	lui	a2,0x20000
    10d6:	d0068693          	addi	a3,a3,-768 # 7d00 <asc2_2412+0xd04>
    10da:	0e860613          	addi	a2,a2,232 # 200000e8 <V_Data>
    10de:	04440513          	addi	a0,s0,68 # 40020044 <_eusrstack+0x20000044>
    10e2:	a72ff0ef          	jal	ra,354 <DMA_Rx_Init>
    10e6:	04440513          	addi	a0,s0,68
    10ea:	4585                	li	a1,1
    10ec:	291000ef          	jal	ra,1b7c <DMA_Cmd>
    10f0:	12c00513          	li	a0,300
    10f4:	32a010ef          	jal	ra,241e <Delay_Ms>
    10f8:	4422                	lw	s0,8(sp)
    10fa:	40b2                	lw	ra,12(sp)
    10fc:	0000a537          	lui	a0,0xa
    1100:	d3450513          	addi	a0,a0,-716 # 9d34 <chinese_char+0x418>
    1104:	0141                	addi	sp,sp,16
    1106:	25e0406f          	j	5364 <puts>

0000110a <save_chara_para_mdl>:
    110a:	1101                	addi	sp,sp,-32
    110c:	cc22                	sw	s0,24(sp)
    110e:	c84a                	sw	s2,16(sp)
    1110:	20011437          	lui	s0,0x20011
    1114:	892e                	mv	s2,a1
    1116:	6585                	lui	a1,0x1
    1118:	16c40613          	addi	a2,s0,364 # 2001116c <dtg_para>
    111c:	96058593          	addi	a1,a1,-1696 # 960 <lcd_fsmc_init+0x9a>
    1120:	ce06                	sw	ra,28(sp)
    1122:	ca26                	sw	s1,20(sp)
    1124:	c64e                	sw	s3,12(sp)
    1126:	c452                	sw	s4,8(sp)
    1128:	8a2a                	mv	s4,a0
    112a:	412010ef          	jal	ra,253c <environment_noise>
    112e:	6591                	lui	a1,0x4
    1130:	16c40693          	addi	a3,s0,364
    1134:	82418613          	addi	a2,gp,-2012 # 200000c4 <active_segment>
    1138:	e8058593          	addi	a1,a1,-384 # 3e80 <__muldf3+0x2a0>
    113c:	8552                	mv	a0,s4
    113e:	82418993          	addi	s3,gp,-2012 # 200000c4 <active_segment>
    1142:	4ac010ef          	jal	ra,25ee <active_segment_detect>
    1146:	0049a783          	lw	a5,4(s3)
    114a:	cf85                	beqz	a5,1182 <save_chara_para_mdl+0x78>
    114c:	16c40613          	addi	a2,s0,364
    1150:	20010437          	lui	s0,0x20010
    1154:	ae840593          	addi	a1,s0,-1304 # 2000fae8 <chara_para>
    1158:	82418513          	addi	a0,gp,-2012 # 200000c4 <active_segment>
    115c:	7c4010ef          	jal	ra,2920 <calc_mfcc_chara_para>
    1160:	ae840793          	addi	a5,s0,-1304
    1164:	0027d783          	lhu	a5,2(a5)
    1168:	c795                	beqz	a5,1194 <save_chara_para_mdl+0x8a>
    116a:	ae840513          	addi	a0,s0,-1304
    116e:	4462                	lw	s0,24(sp)
    1170:	40f2                	lw	ra,28(sp)
    1172:	44d2                	lw	s1,20(sp)
    1174:	49b2                	lw	s3,12(sp)
    1176:	4a22                	lw	s4,8(sp)
    1178:	85ca                	mv	a1,s2
    117a:	4942                	lw	s2,16(sp)
    117c:	6105                	addi	sp,sp,32
    117e:	2830106f          	j	2c00 <save_mfcc_chara_para>
    1182:	4509                	li	a0,2
    1184:	40f2                	lw	ra,28(sp)
    1186:	4462                	lw	s0,24(sp)
    1188:	44d2                	lw	s1,20(sp)
    118a:	4942                	lw	s2,16(sp)
    118c:	49b2                	lw	s3,12(sp)
    118e:	4a22                	lw	s4,8(sp)
    1190:	6105                	addi	sp,sp,32
    1192:	8082                	ret
    1194:	450d                	li	a0,3
    1196:	b7fd                	j	1184 <save_chara_para_mdl+0x7a>

00001198 <parameters_practice>:
    1198:	7179                	addi	sp,sp,-48
    119a:	0000a537          	lui	a0,0xa
    119e:	d422                	sw	s0,40(sp)
    11a0:	d226                	sw	s1,36(sp)
    11a2:	b9450513          	addi	a0,a0,-1132 # 9b94 <chinese_char+0x278>
    11a6:	200004b7          	lui	s1,0x20000
    11aa:	0805f437          	lui	s0,0x805f
    11ae:	d04a                	sw	s2,32(sp)
    11b0:	ce4e                	sw	s3,28(sp)
    11b2:	cc52                	sw	s4,24(sp)
    11b4:	ca56                	sw	s5,20(sp)
    11b6:	c85a                	sw	s6,16(sp)
    11b8:	c65e                	sw	s7,12(sp)
    11ba:	c462                	sw	s8,8(sp)
    11bc:	d606                	sw	ra,44(sp)
    11be:	c266                	sw	s9,4(sp)
    11c0:	00048493          	mv	s1,s1
    11c4:	1a0040ef          	jal	ra,5364 <puts>
    11c8:	80040413          	addi	s0,s0,-2048 # 805e800 <_data_lma+0x80528e4>
    11cc:	4901                	li	s2,0
    11ce:	0000a9b7          	lui	s3,0xa
    11d2:	0000aa37          	lui	s4,0xa
    11d6:	0000aab7          	lui	s5,0xa
    11da:	20000bb7          	lui	s7,0x20000
    11de:	0000ac37          	lui	s8,0xa
    11e2:	bac98693          	addi	a3,s3,-1108 # 9bac <chinese_char+0x290>
    11e6:	4661                	li	a2,24
    11e8:	0d700593          	li	a1,215
    11ec:	02800513          	li	a0,40
    11f0:	3b11                	jal	f04 <lcd_show_string>
    11f2:	4ca5                	li	s9,9
    11f4:	408c                	lw	a1,0(s1)
    11f6:	bbca0513          	addi	a0,s4,-1092 # 9bbc <chinese_char+0x2a0>
    11fa:	050040ef          	jal	ra,524a <iprintf>
    11fe:	357d                	jal	10ac <voice_record>
    1200:	85a2                	mv	a1,s0
    1202:	bd0a8513          	addi	a0,s5,-1072 # 9bd0 <chinese_char+0x2b4>
    1206:	044040ef          	jal	ra,524a <iprintf>
    120a:	82c18793          	addi	a5,gp,-2004 # 200000cc <g_data_ready>
    120e:	0007c703          	lbu	a4,0(a5)
    1212:	0ff77713          	andi	a4,a4,255
    1216:	db75                	beqz	a4,120a <parameters_practice+0x72>
    1218:	0007c703          	lbu	a4,0(a5)
    121c:	0ff77713          	andi	a4,a4,255
    1220:	c315                	beqz	a4,1244 <parameters_practice+0xac>
    1222:	85a2                	mv	a1,s0
    1224:	0e8b8513          	addi	a0,s7,232 # 200000e8 <V_Data>
    1228:	00078023          	sb	zero,0(a5)
    122c:	3df9                	jal	110a <save_chara_para_mdl>
    122e:	408c                	lw	a1,0(s1)
    1230:	ed05                	bnez	a0,1268 <parameters_practice+0xd0>
    1232:	0000a537          	lui	a0,0xa
    1236:	bdc50513          	addi	a0,a0,-1060 # 9bdc <chinese_char+0x2c0>
    123a:	0905                	addi	s2,s2,1
    123c:	00e040ef          	jal	ra,524a <iprintf>
    1240:	0ff97913          	andi	s2,s2,255
    1244:	3e800513          	li	a0,1000
    1248:	1d6010ef          	jal	ra,241e <Delay_Ms>
    124c:	3e800513          	li	a0,1000
    1250:	1ce010ef          	jal	ra,241e <Delay_Ms>
    1254:	6789                	lui	a5,0x2
    1256:	943e                	add	s0,s0,a5
    1258:	080717b7          	lui	a5,0x8071
    125c:	80078793          	addi	a5,a5,-2048 # 8070800 <_data_lma+0x80648e4>
    1260:	0491                	addi	s1,s1,4
    1262:	f8f410e3          	bne	s0,a5,11e2 <parameters_practice+0x4a>
    1266:	a039                	j	1274 <parameters_practice+0xdc>
    1268:	bf8c0513          	addi	a0,s8,-1032 # 9bf8 <chinese_char+0x2dc>
    126c:	7df030ef          	jal	ra,524a <iprintf>
    1270:	f99912e3          	bne	s2,s9,11f4 <parameters_practice+0x5c>
    1274:	0000a537          	lui	a0,0xa
    1278:	c1050513          	addi	a0,a0,-1008 # 9c10 <chinese_char+0x2f4>
    127c:	0e8040ef          	jal	ra,5364 <puts>
    1280:	4701                	li	a4,0
    1282:	0ef00693          	li	a3,239
    1286:	0ef00613          	li	a2,239
    128a:	0d700593          	li	a1,215
    128e:	02800513          	li	a0,40
    1292:	a79ff0ef          	jal	ra,d0a <lcd_fill>
    1296:	0000a6b7          	lui	a3,0xa
    129a:	02800513          	li	a0,40
    129e:	c2468693          	addi	a3,a3,-988 # 9c24 <chinese_char+0x308>
    12a2:	4661                	li	a2,24
    12a4:	0d700593          	li	a1,215
    12a8:	39b1                	jal	f04 <lcd_show_string>
    12aa:	50b2                	lw	ra,44(sp)
    12ac:	5422                	lw	s0,40(sp)
    12ae:	5492                	lw	s1,36(sp)
    12b0:	5902                	lw	s2,32(sp)
    12b2:	49f2                	lw	s3,28(sp)
    12b4:	4a62                	lw	s4,24(sp)
    12b6:	4ad2                	lw	s5,20(sp)
    12b8:	4b42                	lw	s6,16(sp)
    12ba:	4bb2                	lw	s7,12(sp)
    12bc:	4c22                	lw	s8,8(sp)
    12be:	4c92                	lw	s9,4(sp)
    12c0:	4501                	li	a0,0
    12c2:	6145                	addi	sp,sp,48
    12c4:	8082                	ret

000012c6 <voice_recongition>:
    12c6:	7179                	addi	sp,sp,-48
    12c8:	d606                	sw	ra,44(sp)
    12ca:	d422                	sw	s0,40(sp)
    12cc:	d226                	sw	s1,36(sp)
    12ce:	d04a                	sw	s2,32(sp)
    12d0:	ce4e                	sw	s3,28(sp)
    12d2:	cc52                	sw	s4,24(sp)
    12d4:	ca56                	sw	s5,20(sp)
    12d6:	c85a                	sw	s6,16(sp)
    12d8:	c65e                	sw	s7,12(sp)
    12da:	c462                	sw	s8,8(sp)
    12dc:	3bc1                	jal	10ac <voice_record>
    12de:	82c18793          	addi	a5,gp,-2004 # 200000cc <g_data_ready>
    12e2:	0007c703          	lbu	a4,0(a5)
    12e6:	0ff77713          	andi	a4,a4,255
    12ea:	db75                	beqz	a4,12de <voice_recongition+0x18>
    12ec:	0007c703          	lbu	a4,0(a5)
    12f0:	0ff77713          	andi	a4,a4,255
    12f4:	12070663          	beqz	a4,1420 <voice_recongition+0x15a>
    12f8:	20011437          	lui	s0,0x20011
    12fc:	200004b7          	lui	s1,0x20000
    1300:	6585                	lui	a1,0x1
    1302:	16c40613          	addi	a2,s0,364 # 2001116c <dtg_para>
    1306:	0e848513          	addi	a0,s1,232 # 200000e8 <V_Data>
    130a:	96058593          	addi	a1,a1,-1696 # 960 <lcd_fsmc_init+0x9a>
    130e:	00078023          	sb	zero,0(a5)
    1312:	22a010ef          	jal	ra,253c <environment_noise>
    1316:	6591                	lui	a1,0x4
    1318:	16c40693          	addi	a3,s0,364
    131c:	82418613          	addi	a2,gp,-2012 # 200000c4 <active_segment>
    1320:	0e848513          	addi	a0,s1,232
    1324:	e8058593          	addi	a1,a1,-384 # 3e80 <__muldf3+0x2a0>
    1328:	2c6010ef          	jal	ra,25ee <active_segment_detect>
    132c:	16c40613          	addi	a2,s0,364
    1330:	20010437          	lui	s0,0x20010
    1334:	82418993          	addi	s3,gp,-2012 # 200000c4 <active_segment>
    1338:	82418513          	addi	a0,gp,-2012 # 200000c4 <active_segment>
    133c:	ae840593          	addi	a1,s0,-1304 # 2000fae8 <chara_para>
    1340:	0049a483          	lw	s1,4(s3)
    1344:	5dc010ef          	jal	ra,2920 <calc_mfcc_chara_para>
    1348:	ae840793          	addi	a5,s0,-1304
    134c:	0027d783          	lhu	a5,2(a5)
    1350:	8922                	mv	s2,s0
    1352:	5b7d                	li	s6,-1
    1354:	c789                	beqz	a5,135e <voice_recongition+0x98>
    1356:	0014b493          	seqz	s1,s1
    135a:	40900b33          	neg	s6,s1
    135e:	0805fa37          	lui	s4,0x805f
    1362:	6a95                	lui	s5,0x5
    1364:	4481                	li	s1,0
    1366:	4429                	li	s0,10
    1368:	59fd                	li	s3,-1
    136a:	800a0a13          	addi	s4,s4,-2048 # 805e800 <_data_lma+0x80528e4>
    136e:	5aaa8a93          	addi	s5,s5,1450 # 55aa <__sflush_r>
    1372:	4ba5                	li	s7,9
    1374:	00d49593          	slli	a1,s1,0xd
    1378:	95d2                	add	a1,a1,s4
    137a:	0015c783          	lbu	a5,1(a1)
    137e:	0005c703          	lbu	a4,0(a1)
    1382:	0ff4fc13          	andi	s8,s1,255
    1386:	07a2                	slli	a5,a5,0x8
    1388:	8fd9                	or	a5,a5,a4
    138a:	01579a63          	bne	a5,s5,139e <voice_recongition+0xd8>
    138e:	ae890513          	addi	a0,s2,-1304
    1392:	285010ef          	jal	ra,2e16 <calc_chara_para_match_dis>
    1396:	01357463          	bgeu	a0,s3,139e <voice_recongition+0xd8>
    139a:	89aa                	mv	s3,a0
    139c:	8462                	mv	s0,s8
    139e:	0485                	addi	s1,s1,1
    13a0:	fd749ae3          	bne	s1,s7,1374 <voice_recongition+0xae>
    13a4:	0f500793          	li	a5,245
    13a8:	0137e463          	bltu	a5,s3,13b0 <voice_recongition+0xea>
    13ac:	040b0363          	beqz	s6,13f2 <voice_recongition+0x12c>
    13b0:	0000a537          	lui	a0,0xa
    13b4:	cf850513          	addi	a0,a0,-776 # 9cf8 <chinese_char+0x3dc>
    13b8:	7ad030ef          	jal	ra,5364 <puts>
    13bc:	65c1                	lui	a1,0x10
    13be:	80058593          	addi	a1,a1,-2048 # f800 <_data_lma+0x38e4>
    13c2:	4501                	li	a0,0
    13c4:	e9aff0ef          	jal	ra,a5e <lcd_set_color>
    13c8:	5422                	lw	s0,40(sp)
    13ca:	50b2                	lw	ra,44(sp)
    13cc:	5492                	lw	s1,36(sp)
    13ce:	5902                	lw	s2,32(sp)
    13d0:	49f2                	lw	s3,28(sp)
    13d2:	4a62                	lw	s4,24(sp)
    13d4:	4ad2                	lw	s5,20(sp)
    13d6:	4b42                	lw	s6,16(sp)
    13d8:	4bb2                	lw	s7,12(sp)
    13da:	4c22                	lw	s8,8(sp)
    13dc:	0000a6b7          	lui	a3,0xa
    13e0:	d0868693          	addi	a3,a3,-760 # 9d08 <chinese_char+0x3ec>
    13e4:	4661                	li	a2,24
    13e6:	0d700593          	li	a1,215
    13ea:	03200513          	li	a0,50
    13ee:	6145                	addi	sp,sp,48
    13f0:	be11                	j	f04 <lcd_show_string>
    13f2:	20000737          	lui	a4,0x20000
    13f6:	00070713          	mv	a4,a4
    13fa:	00241793          	slli	a5,s0,0x2
    13fe:	97ba                	add	a5,a5,a4
    1400:	438c                	lw	a1,0(a5)
    1402:	0000a537          	lui	a0,0xa
    1406:	d1450513          	addi	a0,a0,-748 # 9d14 <chinese_char+0x3f8>
    140a:	641030ef          	jal	ra,524a <iprintf>
    140e:	200007b7          	lui	a5,0x20000
    1412:	4709                	li	a4,2
    1414:	0a278793          	addi	a5,a5,162 # 200000a2 <song_name_index>
    1418:	02876063          	bltu	a4,s0,1438 <voice_recongition+0x172>
    141c:	00078023          	sb	zero,0(a5)
    1420:	50b2                	lw	ra,44(sp)
    1422:	5422                	lw	s0,40(sp)
    1424:	5492                	lw	s1,36(sp)
    1426:	5902                	lw	s2,32(sp)
    1428:	49f2                	lw	s3,28(sp)
    142a:	4a62                	lw	s4,24(sp)
    142c:	4ad2                	lw	s5,20(sp)
    142e:	4b42                	lw	s6,16(sp)
    1430:	4bb2                	lw	s7,12(sp)
    1432:	4c22                	lw	s8,8(sp)
    1434:	6145                	addi	sp,sp,48
    1436:	8082                	ret
    1438:	1475                	addi	s0,s0,-3
    143a:	0ff47413          	andi	s0,s0,255
    143e:	00876363          	bltu	a4,s0,1444 <voice_recongition+0x17e>
    1442:	4705                	li	a4,1
    1444:	00e78023          	sb	a4,0(a5)
    1448:	bfe1                	j	1420 <voice_recongition+0x15a>

0000144a <key_init>:
    144a:	1101                	addi	sp,sp,-32
    144c:	4585                	li	a1,1
    144e:	04000513          	li	a0,64
    1452:	ce06                	sw	ra,28(sp)
    1454:	c202                	sw	zero,4(sp)
    1456:	c402                	sw	zero,8(sp)
    1458:	c602                	sw	zero,12(sp)
    145a:	549000ef          	jal	ra,21a2 <RCC_APB2PeriphClockCmd>
    145e:	03000793          	li	a5,48
    1462:	00f11223          	sh	a5,4(sp)
    1466:	40012537          	lui	a0,0x40012
    146a:	04800793          	li	a5,72
    146e:	c63e                	sw	a5,12(sp)
    1470:	004c                	addi	a1,sp,4
    1472:	478d                	li	a5,3
    1474:	80050513          	addi	a0,a0,-2048 # 40011800 <_eusrstack+0x1fff1800>
    1478:	c43e                	sw	a5,8(sp)
    147a:	123000ef          	jal	ra,1d9c <GPIO_Init>
    147e:	40f2                	lw	ra,28(sp)
    1480:	6105                	addi	sp,sp,32
    1482:	8082                	ret

00001484 <sw1_scan>:
    1484:	40012537          	lui	a0,0x40012
    1488:	1141                	addi	sp,sp,-16
    148a:	45c1                	li	a1,16
    148c:	80050513          	addi	a0,a0,-2048 # 40011800 <_eusrstack+0x1fff1800>
    1490:	c606                	sw	ra,12(sp)
    1492:	1cd000ef          	jal	ra,1e5e <GPIO_ReadInputDataBit>
    1496:	c511                	beqz	a0,14a2 <sw1_scan+0x1e>
    1498:	40b2                	lw	ra,12(sp)
    149a:	4551                	li	a0,20
    149c:	0141                	addi	sp,sp,16
    149e:	7810006f          	j	241e <Delay_Ms>
    14a2:	4551                	li	a0,20
    14a4:	77b000ef          	jal	ra,241e <Delay_Ms>
    14a8:	4705                	li	a4,1
    14aa:	40b2                	lw	ra,12(sp)
    14ac:	82e18123          	sb	a4,-2014(gp) # 200000c2 <SW1_DOWN>
    14b0:	200007b7          	lui	a5,0x20000
    14b4:	4729                	li	a4,10
    14b6:	0ae78123          	sb	a4,162(a5) # 200000a2 <song_name_index>
    14ba:	0141                	addi	sp,sp,16
    14bc:	8082                	ret

000014be <sw2_scan>:
    14be:	40012537          	lui	a0,0x40012
    14c2:	1141                	addi	sp,sp,-16
    14c4:	02000593          	li	a1,32
    14c8:	80050513          	addi	a0,a0,-2048 # 40011800 <_eusrstack+0x1fff1800>
    14cc:	c422                	sw	s0,8(sp)
    14ce:	c606                	sw	ra,12(sp)
    14d0:	18f000ef          	jal	ra,1e5e <GPIO_ReadInputDataBit>
    14d4:	82318413          	addi	s0,gp,-2013 # 200000c3 <SW2_DOWN>
    14d8:	c911                	beqz	a0,14ec <sw2_scan+0x2e>
    14da:	4551                	li	a0,20
    14dc:	743000ef          	jal	ra,241e <Delay_Ms>
    14e0:	00040023          	sb	zero,0(s0)
    14e4:	40b2                	lw	ra,12(sp)
    14e6:	4422                	lw	s0,8(sp)
    14e8:	0141                	addi	sp,sp,16
    14ea:	8082                	ret
    14ec:	4551                	li	a0,20
    14ee:	731000ef          	jal	ra,241e <Delay_Ms>
    14f2:	4785                	li	a5,1
    14f4:	00f40023          	sb	a5,0(s0)
    14f8:	b7f5                	j	14e4 <sw2_scan+0x26>

000014fa <main>:
    14fa:	7179                	addi	sp,sp,-48
    14fc:	4509                	li	a0,2
    14fe:	d606                	sw	ra,44(sp)
    1500:	d226                	sw	s1,36(sp)
    1502:	ce4e                	sw	s3,28(sp)
    1504:	cc52                	sw	s4,24(sp)
    1506:	ca56                	sw	s5,20(sp)
    1508:	d422                	sw	s0,40(sp)
    150a:	d04a                	sw	s2,32(sp)
    150c:	c85a                	sw	s6,16(sp)
    150e:	c65e                	sw	s7,12(sp)
    1510:	c462                	sw	s8,8(sp)
    1512:	35f000ef          	jal	ra,2070 <NVIC_PriorityGroupConfig>
    1516:	6df000ef          	jal	ra,23f4 <Delay_Init>
    151a:	6571                	lui	a0,0x1c
    151c:	20050513          	addi	a0,a0,512 # 1c200 <_data_lma+0x102e4>
    1520:	72d000ef          	jal	ra,244c <USART_Printf_Init>
    1524:	f03fe0ef          	jal	ra,426 <voice_init>
    1528:	370d                	jal	144a <key_init>
    152a:	decff0ef          	jal	ra,b16 <lcd_init>
    152e:	4701                	li	a4,0
    1530:	0ef00693          	li	a3,239
    1534:	0ef00613          	li	a2,239
    1538:	4581                	li	a1,0
    153a:	4501                	li	a0,0
    153c:	200004b7          	lui	s1,0x20000
    1540:	fcaff0ef          	jal	ra,d0a <lcd_fill>
    1544:	0000a9b7          	lui	s3,0xa
    1548:	0000aa37          	lui	s4,0xa
    154c:	0000aab7          	lui	s5,0xa
    1550:	02448493          	addi	s1,s1,36 # 20000024 <song_name>
    1554:	0000ab37          	lui	s6,0xa
    1558:	20000bb7          	lui	s7,0x20000
    155c:	65c1                	lui	a1,0x10
    155e:	15fd                	addi	a1,a1,-1
    1560:	4501                	li	a0,0
    1562:	cfcff0ef          	jal	ra,a5e <lcd_set_color>
    1566:	afc98693          	addi	a3,s3,-1284 # 9afc <chinese_char+0x1e0>
    156a:	4661                	li	a2,24
    156c:	45a9                	li	a1,10
    156e:	4551                	li	a0,20
    1570:	995ff0ef          	jal	ra,f04 <lcd_show_string>
    1574:	b10a0693          	addi	a3,s4,-1264 # 9b10 <chinese_char+0x1f4>
    1578:	4641                	li	a2,16
    157a:	02000593          	li	a1,32
    157e:	4551                	li	a0,20
    1580:	985ff0ef          	jal	ra,f04 <lcd_show_string>
    1584:	b24b0693          	addi	a3,s6,-1244 # 9b24 <chinese_char+0x208>
    1588:	4641                	li	a2,16
    158a:	03200593          	li	a1,50
    158e:	4551                	li	a0,20
    1590:	975ff0ef          	jal	ra,f04 <lcd_show_string>
    1594:	3dc5                	jal	1484 <sw1_scan>
    1596:	3725                	jal	14be <sw2_scan>
    1598:	8221c783          	lbu	a5,-2014(gp) # 200000c2 <SW1_DOWN>
    159c:	82218c13          	addi	s8,gp,-2014 # 200000c2 <SW1_DOWN>
    15a0:	0a2b8413          	addi	s0,s7,162 # 200000a2 <song_name_index>
    15a4:	0c078a63          	beqz	a5,1678 <main+0x17e>
    15a8:	b3ca8693          	addi	a3,s5,-1220 # 9b3c <chinese_char+0x220>
    15ac:	4661                	li	a2,24
    15ae:	0af00593          	li	a1,175
    15b2:	02800513          	li	a0,40
    15b6:	94fff0ef          	jal	ra,f04 <lcd_show_string>
    15ba:	0000a6b7          	lui	a3,0xa
    15be:	b4c68693          	addi	a3,a3,-1204 # 9b4c <chinese_char+0x230>
    15c2:	4641                	li	a2,16
    15c4:	0c800593          	li	a1,200
    15c8:	4579                	li	a0,30
    15ca:	93bff0ef          	jal	ra,f04 <lcd_show_string>
    15ce:	4701                	li	a4,0
    15d0:	0a000693          	li	a3,160
    15d4:	0ef00613          	li	a2,239
    15d8:	05000593          	li	a1,80
    15dc:	4501                	li	a0,0
    15de:	f2cff0ef          	jal	ra,d0a <lcd_fill>
    15e2:	31d5                	jal	12c6 <voice_recongition>
    15e4:	3e800513          	li	a0,1000
    15e8:	637000ef          	jal	ra,241e <Delay_Ms>
    15ec:	00044703          	lbu	a4,0(s0)
    15f0:	4789                	li	a5,2
    15f2:	00e7e463          	bltu	a5,a4,15fa <main+0x100>
    15f6:	000c0023          	sb	zero,0(s8)
    15fa:	8231c783          	lbu	a5,-2013(gp) # 200000c3 <SW2_DOWN>
    15fe:	c399                	beqz	a5,1604 <main+0x10a>
    1600:	000c0023          	sb	zero,0(s8)
    1604:	00044783          	lbu	a5,0(s0)
    1608:	e7d9                	bnez	a5,1696 <main+0x19c>
    160a:	65c1                	lui	a1,0x10
    160c:	80058593          	addi	a1,a1,-2048 # f800 <_data_lma+0x38e4>
    1610:	4501                	li	a0,0
    1612:	c4cff0ef          	jal	ra,a5e <lcd_set_color>
    1616:	0000a6b7          	lui	a3,0xa
    161a:	b6468693          	addi	a3,a3,-1180 # 9b64 <chinese_char+0x248>
    161e:	4661                	li	a2,24
    1620:	06400593          	li	a1,100
    1624:	4551                	li	a0,20
    1626:	8dfff0ef          	jal	ra,f04 <lcd_show_string>
    162a:	00044783          	lbu	a5,0(s0)
    162e:	4661                	li	a2,24
    1630:	07800593          	li	a1,120
    1634:	078a                	slli	a5,a5,0x2
    1636:	97a6                	add	a5,a5,s1
    1638:	4394                	lw	a3,0(a5)
    163a:	4551                	li	a0,20
    163c:	8c9ff0ef          	jal	ra,f04 <lcd_show_string>
    1640:	40012437          	lui	s0,0x40012
    1644:	4591                	li	a1,4
    1646:	80040513          	addi	a0,s0,-2048 # 40011800 <_eusrstack+0x1fff1800>
    164a:	015000ef          	jal	ra,1e5e <GPIO_ReadInputDataBit>
    164e:	f00517e3          	bnez	a0,155c <main+0x62>
    1652:	4551                	li	a0,20
    1654:	5cb000ef          	jal	ra,241e <Delay_Ms>
    1658:	4591                	li	a1,4
    165a:	80040513          	addi	a0,s0,-2048
    165e:	001000ef          	jal	ra,1e5e <GPIO_ReadInputDataBit>
    1662:	ee051be3          	bnez	a0,1558 <main+0x5e>
    1666:	0000a537          	lui	a0,0xa
    166a:	b7450513          	addi	a0,a0,-1164 # 9b74 <chinese_char+0x258>
    166e:	4f7030ef          	jal	ra,5364 <puts>
    1672:	b27ff0ef          	jal	ra,1198 <parameters_practice>
    1676:	bdf9                	j	1554 <main+0x5a>
    1678:	4701                	li	a4,0
    167a:	0ef00693          	li	a3,239
    167e:	0ef00613          	li	a2,239
    1682:	0aa00593          	li	a1,170
    1686:	4501                	li	a0,0
    1688:	e82ff0ef          	jal	ra,d0a <lcd_fill>
    168c:	3e800513          	li	a0,1000
    1690:	58f000ef          	jal	ra,241e <Delay_Ms>
    1694:	bf85                	j	1604 <main+0x10a>
    1696:	4705                	li	a4,1
    1698:	f6e789e3          	beq	a5,a4,160a <main+0x110>
    169c:	4709                	li	a4,2
    169e:	fae791e3          	bne	a5,a4,1640 <main+0x146>
    16a2:	6441                	lui	s0,0x10
    16a4:	80040593          	addi	a1,s0,-2048 # f800 <_data_lma+0x38e4>
    16a8:	4501                	li	a0,0
    16aa:	bb4ff0ef          	jal	ra,a5e <lcd_set_color>
    16ae:	0000a6b7          	lui	a3,0xa
    16b2:	b6468693          	addi	a3,a3,-1180 # 9b64 <chinese_char+0x248>
    16b6:	4661                	li	a2,24
    16b8:	06400593          	li	a1,100
    16bc:	4551                	li	a0,20
    16be:	847ff0ef          	jal	ra,f04 <lcd_show_string>
    16c2:	0000a6b7          	lui	a3,0xa
    16c6:	b6c68693          	addi	a3,a3,-1172 # 9b6c <chinese_char+0x250>
    16ca:	4661                	li	a2,24
    16cc:	07800593          	li	a1,120
    16d0:	4551                	li	a0,20
    16d2:	833ff0ef          	jal	ra,f04 <lcd_show_string>
    16d6:	47e1                	li	a5,24
    16d8:	80040713          	addi	a4,s0,-2048
    16dc:	4681                	li	a3,0
    16de:	4601                	li	a2,0
    16e0:	07800593          	li	a1,120
    16e4:	02800513          	li	a0,40
    16e8:	8e9ff0ef          	jal	ra,fd0 <lcd_show_chinese>
    16ec:	47e1                	li	a5,24
    16ee:	80040713          	addi	a4,s0,-2048
    16f2:	4681                	li	a3,0
    16f4:	4605                	li	a2,1
    16f6:	07800593          	li	a1,120
    16fa:	04100513          	li	a0,65
    16fe:	8d3ff0ef          	jal	ra,fd0 <lcd_show_chinese>
    1702:	47e1                	li	a5,24
    1704:	80040713          	addi	a4,s0,-2048
    1708:	4681                	li	a3,0
    170a:	4601                	li	a2,0
    170c:	07800593          	li	a1,120
    1710:	05a00513          	li	a0,90
    1714:	8bdff0ef          	jal	ra,fd0 <lcd_show_chinese>
    1718:	47e1                	li	a5,24
    171a:	80040713          	addi	a4,s0,-2048
    171e:	4681                	li	a3,0
    1720:	4609                	li	a2,2
    1722:	07800593          	li	a1,120
    1726:	07300513          	li	a0,115
    172a:	8a7ff0ef          	jal	ra,fd0 <lcd_show_chinese>
    172e:	47e1                	li	a5,24
    1730:	80040713          	addi	a4,s0,-2048
    1734:	4681                	li	a3,0
    1736:	460d                	li	a2,3
    1738:	07800593          	li	a1,120
    173c:	08c00513          	li	a0,140
    1740:	891ff0ef          	jal	ra,fd0 <lcd_show_chinese>
    1744:	4681                	li	a3,0
    1746:	4611                	li	a2,4
    1748:	47e1                	li	a5,24
    174a:	80040713          	addi	a4,s0,-2048
    174e:	07800593          	li	a1,120
    1752:	0a500513          	li	a0,165
    1756:	87bff0ef          	jal	ra,fd0 <lcd_show_chinese>
    175a:	80040593          	addi	a1,s0,-2048
    175e:	4501                	li	a0,0
    1760:	afeff0ef          	jal	ra,a5e <lcd_set_color>
    1764:	0000a6b7          	lui	a3,0xa
    1768:	b7068693          	addi	a3,a3,-1168 # 9b70 <chinese_char+0x254>
    176c:	4661                	li	a2,24
    176e:	07800593          	li	a1,120
    1772:	0c300513          	li	a0,195
    1776:	b5d9                	j	163c <main+0x142>

00001778 <SystemInit>:
    1778:	400217b7          	lui	a5,0x40021
    177c:	4398                	lw	a4,0(a5)
    177e:	f8ff06b7          	lui	a3,0xf8ff0
    1782:	1141                	addi	sp,sp,-16
    1784:	00176713          	ori	a4,a4,1
    1788:	c398                	sw	a4,0(a5)
    178a:	43d8                	lw	a4,4(a5)
    178c:	00020637          	lui	a2,0x20
    1790:	8f75                	and	a4,a4,a3
    1792:	c3d8                	sw	a4,4(a5)
    1794:	4398                	lw	a4,0(a5)
    1796:	fef706b7          	lui	a3,0xfef70
    179a:	16fd                	addi	a3,a3,-1
    179c:	8f75                	and	a4,a4,a3
    179e:	c398                	sw	a4,0(a5)
    17a0:	4398                	lw	a4,0(a5)
    17a2:	fffc06b7          	lui	a3,0xfffc0
    17a6:	16fd                	addi	a3,a3,-1
    17a8:	8f75                	and	a4,a4,a3
    17aa:	c398                	sw	a4,0(a5)
    17ac:	43d8                	lw	a4,4(a5)
    17ae:	ff8106b7          	lui	a3,0xff810
    17b2:	16fd                	addi	a3,a3,-1
    17b4:	8f75                	and	a4,a4,a3
    17b6:	c3d8                	sw	a4,4(a5)
    17b8:	4398                	lw	a4,0(a5)
    17ba:	ec0006b7          	lui	a3,0xec000
    17be:	16fd                	addi	a3,a3,-1
    17c0:	8f75                	and	a4,a4,a3
    17c2:	c398                	sw	a4,0(a5)
    17c4:	00ff0737          	lui	a4,0xff0
    17c8:	c798                	sw	a4,8(a5)
    17ca:	0207a623          	sw	zero,44(a5) # 4002102c <_eusrstack+0x2000102c>
    17ce:	c402                	sw	zero,8(sp)
    17d0:	c602                	sw	zero,12(sp)
    17d2:	4398                	lw	a4,0(a5)
    17d4:	66c1                	lui	a3,0x10
    17d6:	8f55                	or	a4,a4,a3
    17d8:	c398                	sw	a4,0(a5)
    17da:	400216b7          	lui	a3,0x40021
    17de:	6705                	lui	a4,0x1
    17e0:	429c                	lw	a5,0(a3)
    17e2:	8ff1                	and	a5,a5,a2
    17e4:	c63e                	sw	a5,12(sp)
    17e6:	47a2                	lw	a5,8(sp)
    17e8:	0785                	addi	a5,a5,1
    17ea:	c43e                	sw	a5,8(sp)
    17ec:	47b2                	lw	a5,12(sp)
    17ee:	e781                	bnez	a5,17f6 <SystemInit+0x7e>
    17f0:	47a2                	lw	a5,8(sp)
    17f2:	fee797e3          	bne	a5,a4,17e0 <SystemInit+0x68>
    17f6:	400217b7          	lui	a5,0x40021
    17fa:	439c                	lw	a5,0(a5)
    17fc:	00e79713          	slli	a4,a5,0xe
    1800:	06075863          	bgez	a4,1870 <SystemInit+0xf8>
    1804:	4785                	li	a5,1
    1806:	c63e                	sw	a5,12(sp)
    1808:	4732                	lw	a4,12(sp)
    180a:	4785                	li	a5,1
    180c:	06f71063          	bne	a4,a5,186c <SystemInit+0xf4>
    1810:	400217b7          	lui	a5,0x40021
    1814:	43d8                	lw	a4,4(a5)
    1816:	6689                	lui	a3,0x2
    1818:	c3d8                	sw	a4,4(a5)
    181a:	43d8                	lw	a4,4(a5)
    181c:	8f55                	or	a4,a4,a3
    181e:	c3d8                	sw	a4,4(a5)
    1820:	43d8                	lw	a4,4(a5)
    1822:	ffc106b7          	lui	a3,0xffc10
    1826:	16fd                	addi	a3,a3,-1
    1828:	40076713          	ori	a4,a4,1024
    182c:	c3d8                	sw	a4,4(a5)
    182e:	43d8                	lw	a4,4(a5)
    1830:	8f75                	and	a4,a4,a3
    1832:	c3d8                	sw	a4,4(a5)
    1834:	43d8                	lw	a4,4(a5)
    1836:	66c1                	lui	a3,0x10
    1838:	8f55                	or	a4,a4,a3
    183a:	c3d8                	sw	a4,4(a5)
    183c:	4398                	lw	a4,0(a5)
    183e:	010006b7          	lui	a3,0x1000
    1842:	8f55                	or	a4,a4,a3
    1844:	c398                	sw	a4,0(a5)
    1846:	4398                	lw	a4,0(a5)
    1848:	00671693          	slli	a3,a4,0x6
    184c:	fe06dde3          	bgez	a3,1846 <SystemInit+0xce>
    1850:	43d8                	lw	a4,4(a5)
    1852:	400216b7          	lui	a3,0x40021
    1856:	9b71                	andi	a4,a4,-4
    1858:	c3d8                	sw	a4,4(a5)
    185a:	43d8                	lw	a4,4(a5)
    185c:	00276713          	ori	a4,a4,2
    1860:	c3d8                	sw	a4,4(a5)
    1862:	4721                	li	a4,8
    1864:	42dc                	lw	a5,4(a3)
    1866:	8bb1                	andi	a5,a5,12
    1868:	fee79ee3          	bne	a5,a4,1864 <SystemInit+0xec>
    186c:	0141                	addi	sp,sp,16
    186e:	8082                	ret
    1870:	c602                	sw	zero,12(sp)
    1872:	bf59                	j	1808 <SystemInit+0x90>
    1874:	a001                	j	1874 <SystemInit+0xfc>
    1876:	a001                	j	1876 <SystemInit+0xfe>

00001878 <Ecall_M_Mode_Handler>:
    1878:	a001                	j	1878 <Ecall_M_Mode_Handler>

0000187a <Ecall_U_Mode_Handler>:
    187a:	a001                	j	187a <Ecall_U_Mode_Handler>

0000187c <Break_Point_Handler>:
    187c:	a001                	j	187c <Break_Point_Handler>

0000187e <SysTick_Handler>:
    187e:	a001                	j	187e <SysTick_Handler>

00001880 <SW_Handler>:
    1880:	a001                	j	1880 <SW_Handler>

00001882 <WWDG_IRQHandler>:
    1882:	a001                	j	1882 <WWDG_IRQHandler>

00001884 <PVD_IRQHandler>:
    1884:	a001                	j	1884 <PVD_IRQHandler>

00001886 <TAMPER_IRQHandler>:
    1886:	a001                	j	1886 <TAMPER_IRQHandler>

00001888 <RTC_IRQHandler>:
    1888:	a001                	j	1888 <RTC_IRQHandler>

0000188a <FLASH_IRQHandler>:
    188a:	a001                	j	188a <FLASH_IRQHandler>

0000188c <RCC_IRQHandler>:
    188c:	a001                	j	188c <RCC_IRQHandler>

0000188e <EXTI0_IRQHandler>:
    188e:	a001                	j	188e <EXTI0_IRQHandler>

00001890 <EXTI1_IRQHandler>:
    1890:	a001                	j	1890 <EXTI1_IRQHandler>

00001892 <EXTI2_IRQHandler>:
    1892:	a001                	j	1892 <EXTI2_IRQHandler>

00001894 <EXTI3_IRQHandler>:
    1894:	a001                	j	1894 <EXTI3_IRQHandler>

00001896 <EXTI4_IRQHandler>:
    1896:	a001                	j	1896 <EXTI4_IRQHandler>

00001898 <DMA1_Channel1_IRQHandler>:
    1898:	a001                	j	1898 <DMA1_Channel1_IRQHandler>

0000189a <DMA1_Channel2_IRQHandler>:
    189a:	a001                	j	189a <DMA1_Channel2_IRQHandler>

0000189c <DMA1_Channel3_IRQHandler>:
    189c:	a001                	j	189c <DMA1_Channel3_IRQHandler>
    189e:	a001                	j	189e <DMA1_Channel3_IRQHandler+0x2>
    18a0:	a001                	j	18a0 <DMA1_Channel3_IRQHandler+0x4>

000018a2 <DMA1_Channel6_IRQHandler>:
    18a2:	a001                	j	18a2 <DMA1_Channel6_IRQHandler>

000018a4 <DMA1_Channel7_IRQHandler>:
    18a4:	a001                	j	18a4 <DMA1_Channel7_IRQHandler>

000018a6 <ADC1_2_IRQHandler>:
    18a6:	a001                	j	18a6 <ADC1_2_IRQHandler>

000018a8 <USB_HP_CAN1_TX_IRQHandler>:
    18a8:	a001                	j	18a8 <USB_HP_CAN1_TX_IRQHandler>

000018aa <USB_LP_CAN1_RX0_IRQHandler>:
    18aa:	a001                	j	18aa <USB_LP_CAN1_RX0_IRQHandler>

000018ac <CAN1_RX1_IRQHandler>:
    18ac:	a001                	j	18ac <CAN1_RX1_IRQHandler>

000018ae <CAN1_SCE_IRQHandler>:
    18ae:	a001                	j	18ae <CAN1_SCE_IRQHandler>

000018b0 <EXTI9_5_IRQHandler>:
    18b0:	a001                	j	18b0 <EXTI9_5_IRQHandler>

000018b2 <TIM1_BRK_IRQHandler>:
    18b2:	a001                	j	18b2 <TIM1_BRK_IRQHandler>

000018b4 <TIM1_UP_IRQHandler>:
    18b4:	a001                	j	18b4 <TIM1_UP_IRQHandler>

000018b6 <TIM1_TRG_COM_IRQHandler>:
    18b6:	a001                	j	18b6 <TIM1_TRG_COM_IRQHandler>

000018b8 <TIM1_CC_IRQHandler>:
    18b8:	a001                	j	18b8 <TIM1_CC_IRQHandler>

000018ba <TIM2_IRQHandler>:
    18ba:	a001                	j	18ba <TIM2_IRQHandler>

000018bc <TIM3_IRQHandler>:
    18bc:	a001                	j	18bc <TIM3_IRQHandler>

000018be <TIM4_IRQHandler>:
    18be:	a001                	j	18be <TIM4_IRQHandler>

000018c0 <I2C1_EV_IRQHandler>:
    18c0:	a001                	j	18c0 <I2C1_EV_IRQHandler>

000018c2 <I2C1_ER_IRQHandler>:
    18c2:	a001                	j	18c2 <I2C1_ER_IRQHandler>

000018c4 <I2C2_EV_IRQHandler>:
    18c4:	a001                	j	18c4 <I2C2_EV_IRQHandler>

000018c6 <I2C2_ER_IRQHandler>:
    18c6:	a001                	j	18c6 <I2C2_ER_IRQHandler>

000018c8 <SPI1_IRQHandler>:
    18c8:	a001                	j	18c8 <SPI1_IRQHandler>

000018ca <SPI2_IRQHandler>:
    18ca:	a001                	j	18ca <SPI2_IRQHandler>

000018cc <USART1_IRQHandler>:
    18cc:	a001                	j	18cc <USART1_IRQHandler>

000018ce <USART2_IRQHandler>:
    18ce:	a001                	j	18ce <USART2_IRQHandler>

000018d0 <USART3_IRQHandler>:
    18d0:	a001                	j	18d0 <USART3_IRQHandler>

000018d2 <EXTI15_10_IRQHandler>:
    18d2:	a001                	j	18d2 <EXTI15_10_IRQHandler>

000018d4 <RTCAlarm_IRQHandler>:
    18d4:	a001                	j	18d4 <RTCAlarm_IRQHandler>

000018d6 <USBWakeUp_IRQHandler>:
    18d6:	a001                	j	18d6 <USBWakeUp_IRQHandler>

000018d8 <TIM8_BRK_IRQHandler>:
    18d8:	a001                	j	18d8 <TIM8_BRK_IRQHandler>

000018da <TIM8_UP_IRQHandler>:
    18da:	a001                	j	18da <TIM8_UP_IRQHandler>

000018dc <TIM8_TRG_COM_IRQHandler>:
    18dc:	a001                	j	18dc <TIM8_TRG_COM_IRQHandler>

000018de <TIM8_CC_IRQHandler>:
    18de:	a001                	j	18de <TIM8_CC_IRQHandler>

000018e0 <RNG_IRQHandler>:
    18e0:	a001                	j	18e0 <RNG_IRQHandler>

000018e2 <FSMC_IRQHandler>:
    18e2:	a001                	j	18e2 <FSMC_IRQHandler>

000018e4 <SDIO_IRQHandler>:
    18e4:	a001                	j	18e4 <SDIO_IRQHandler>

000018e6 <TIM5_IRQHandler>:
    18e6:	a001                	j	18e6 <TIM5_IRQHandler>

000018e8 <SPI3_IRQHandler>:
    18e8:	a001                	j	18e8 <SPI3_IRQHandler>

000018ea <UART4_IRQHandler>:
    18ea:	a001                	j	18ea <UART4_IRQHandler>

000018ec <UART5_IRQHandler>:
    18ec:	a001                	j	18ec <UART5_IRQHandler>

000018ee <TIM6_IRQHandler>:
    18ee:	a001                	j	18ee <TIM6_IRQHandler>

000018f0 <TIM7_IRQHandler>:
    18f0:	a001                	j	18f0 <TIM7_IRQHandler>

000018f2 <DMA2_Channel1_IRQHandler>:
    18f2:	a001                	j	18f2 <DMA2_Channel1_IRQHandler>

000018f4 <DMA2_Channel2_IRQHandler>:
    18f4:	a001                	j	18f4 <DMA2_Channel2_IRQHandler>

000018f6 <DMA2_Channel3_IRQHandler>:
    18f6:	a001                	j	18f6 <DMA2_Channel3_IRQHandler>

000018f8 <DMA2_Channel4_IRQHandler>:
    18f8:	a001                	j	18f8 <DMA2_Channel4_IRQHandler>

000018fa <DMA2_Channel5_IRQHandler>:
    18fa:	a001                	j	18fa <DMA2_Channel5_IRQHandler>

000018fc <ETH_IRQHandler>:
    18fc:	a001                	j	18fc <ETH_IRQHandler>

000018fe <ETH_WKUP_IRQHandler>:
    18fe:	a001                	j	18fe <ETH_WKUP_IRQHandler>

00001900 <CAN2_TX_IRQHandler>:
    1900:	a001                	j	1900 <CAN2_TX_IRQHandler>

00001902 <CAN2_RX0_IRQHandler>:
    1902:	a001                	j	1902 <CAN2_RX0_IRQHandler>

00001904 <CAN2_RX1_IRQHandler>:
    1904:	a001                	j	1904 <CAN2_RX1_IRQHandler>

00001906 <CAN2_SCE_IRQHandler>:
    1906:	a001                	j	1906 <CAN2_SCE_IRQHandler>

00001908 <OTG_FS_IRQHandler>:
    1908:	a001                	j	1908 <OTG_FS_IRQHandler>

0000190a <USBHSWakeup_IRQHandler>:
    190a:	a001                	j	190a <USBHSWakeup_IRQHandler>

0000190c <USBHS_IRQHandler>:
    190c:	a001                	j	190c <USBHS_IRQHandler>

0000190e <DVP_IRQHandler>:
    190e:	a001                	j	190e <DVP_IRQHandler>

00001910 <UART6_IRQHandler>:
    1910:	a001                	j	1910 <UART6_IRQHandler>

00001912 <UART7_IRQHandler>:
    1912:	a001                	j	1912 <UART7_IRQHandler>

00001914 <UART8_IRQHandler>:
    1914:	a001                	j	1914 <UART8_IRQHandler>

00001916 <TIM9_BRK_IRQHandler>:
    1916:	a001                	j	1916 <TIM9_BRK_IRQHandler>

00001918 <TIM9_UP_IRQHandler>:
    1918:	a001                	j	1918 <TIM9_UP_IRQHandler>

0000191a <TIM9_TRG_COM_IRQHandler>:
    191a:	a001                	j	191a <TIM9_TRG_COM_IRQHandler>

0000191c <TIM9_CC_IRQHandler>:
    191c:	a001                	j	191c <TIM9_CC_IRQHandler>

0000191e <TIM10_BRK_IRQHandler>:
    191e:	a001                	j	191e <TIM10_BRK_IRQHandler>

00001920 <TIM10_UP_IRQHandler>:
    1920:	a001                	j	1920 <TIM10_UP_IRQHandler>

00001922 <TIM10_TRG_COM_IRQHandler>:
    1922:	a001                	j	1922 <TIM10_TRG_COM_IRQHandler>

00001924 <TIM10_CC_IRQHandler>:
    1924:	a001                	j	1924 <TIM10_CC_IRQHandler>

00001926 <DMA2_Channel6_IRQHandler>:
    1926:	a001                	j	1926 <DMA2_Channel6_IRQHandler>

00001928 <DMA2_Channel7_IRQHandler>:
    1928:	a001                	j	1928 <DMA2_Channel7_IRQHandler>

0000192a <DMA2_Channel8_IRQHandler>:
    192a:	a001                	j	192a <DMA2_Channel8_IRQHandler>

0000192c <DMA2_Channel9_IRQHandler>:
    192c:	a001                	j	192c <DMA2_Channel9_IRQHandler>

0000192e <DMA2_Channel10_IRQHandler>:
    192e:	a001                	j	192e <DMA2_Channel10_IRQHandler>

00001930 <DMA2_Channel11_IRQHandler>:
    1930:	a001                	j	1930 <DMA2_Channel11_IRQHandler>

00001932 <handle_reset>:
    1932:	1ffff197          	auipc	gp,0x1ffff
    1936:	f6e18193          	addi	gp,gp,-146 # 200008a0 <__global_pointer$>
    193a:	2001e117          	auipc	sp,0x2001e
    193e:	6c610113          	addi	sp,sp,1734 # 20020000 <_eusrstack>
    1942:	0000a517          	auipc	a0,0xa
    1946:	5da50513          	addi	a0,a0,1498 # bf1c <_data_lma>
    194a:	1fffe597          	auipc	a1,0x1fffe
    194e:	6b658593          	addi	a1,a1,1718 # 20000000 <_data_vma>
    1952:	82018613          	addi	a2,gp,-2016 # 200000c0 <_edata>
    1956:	00c5fa63          	bgeu	a1,a2,196a <handle_reset+0x38>
    195a:	00052283          	lw	t0,0(a0)
    195e:	0055a023          	sw	t0,0(a1)
    1962:	0511                	addi	a0,a0,4
    1964:	0591                	addi	a1,a1,4
    1966:	fec5eae3          	bltu	a1,a2,195a <handle_reset+0x28>
    196a:	82018513          	addi	a0,gp,-2016 # 200000c0 <_edata>
    196e:	20012597          	auipc	a1,0x20012
    1972:	80e58593          	addi	a1,a1,-2034 # 2001317c <_ebss>
    1976:	00b57763          	bgeu	a0,a1,1984 <handle_reset+0x52>
    197a:	00052023          	sw	zero,0(a0)
    197e:	0511                	addi	a0,a0,4
    1980:	feb56de3          	bltu	a0,a1,197a <handle_reset+0x48>
    1984:	42fd                	li	t0,31
    1986:	bc029073          	csrw	0xbc0,t0
    198a:	42fd                	li	t0,31
    198c:	80429073          	csrw	0x804,t0
    1990:	000062b7          	lui	t0,0x6
    1994:	08828293          	addi	t0,t0,136 # 6088 <_vfiprintf_r+0xc4>
    1998:	3002a073          	csrs	mstatus,t0
    199c:	ffffe297          	auipc	t0,0xffffe
    19a0:	69c28293          	addi	t0,t0,1692 # 38 <_einit>
    19a4:	0032e293          	ori	t0,t0,3
    19a8:	30529073          	csrw	mtvec,t0
    19ac:	1ffff537          	lui	a0,0x1ffff
    19b0:	30000593          	li	a1,768
    19b4:	1ab51823          	sh	a1,432(a0) # 1ffff1b0 <_data_lma+0x1fff3294>
    19b8:	40022937          	lui	s2,0x40022
    19bc:	00c92503          	lw	a0,12(s2) # 4002200c <_eusrstack+0x2000200c>
    19c0:	8905                	andi	a0,a0,1
    19c2:	f97d                	bnez	a0,19b8 <handle_reset+0x86>
    19c4:	db5ff0ef          	jal	ra,1778 <SystemInit>
    19c8:	00000297          	auipc	t0,0x0
    19cc:	b3228293          	addi	t0,t0,-1230 # 14fa <main>
    19d0:	34129073          	csrw	mepc,t0
    19d4:	30200073          	mret

000019d8 <DMA_DeInit>:
    19d8:	411c                	lw	a5,0(a0)
    19da:	6741                	lui	a4,0x10
    19dc:	1779                	addi	a4,a4,-2
    19de:	8ff9                	and	a5,a5,a4
    19e0:	c11c                	sw	a5,0(a0)
    19e2:	00052023          	sw	zero,0(a0)
    19e6:	00052223          	sw	zero,4(a0)
    19ea:	00052423          	sw	zero,8(a0)
    19ee:	400207b7          	lui	a5,0x40020
    19f2:	00052623          	sw	zero,12(a0)
    19f6:	00878713          	addi	a4,a5,8 # 40020008 <_eusrstack+0x20000008>
    19fa:	00e51763          	bne	a0,a4,1a08 <DMA_DeInit+0x30>
    19fe:	43d8                	lw	a4,4(a5)
    1a00:	00f76713          	ori	a4,a4,15
    1a04:	c3d8                	sw	a4,4(a5)
    1a06:	8082                	ret
    1a08:	01c78713          	addi	a4,a5,28
    1a0c:	00e51663          	bne	a0,a4,1a18 <DMA_DeInit+0x40>
    1a10:	43d8                	lw	a4,4(a5)
    1a12:	0f076713          	ori	a4,a4,240
    1a16:	b7fd                	j	1a04 <DMA_DeInit+0x2c>
    1a18:	03078713          	addi	a4,a5,48
    1a1c:	00e51863          	bne	a0,a4,1a2c <DMA_DeInit+0x54>
    1a20:	43d8                	lw	a4,4(a5)
    1a22:	6685                	lui	a3,0x1
    1a24:	f0068693          	addi	a3,a3,-256 # f00 <lcd_show_char+0x1aa>
    1a28:	8f55                	or	a4,a4,a3
    1a2a:	bfe9                	j	1a04 <DMA_DeInit+0x2c>
    1a2c:	04478713          	addi	a4,a5,68
    1a30:	00e51563          	bne	a0,a4,1a3a <DMA_DeInit+0x62>
    1a34:	43d8                	lw	a4,4(a5)
    1a36:	66bd                	lui	a3,0xf
    1a38:	bfc5                	j	1a28 <DMA_DeInit+0x50>
    1a3a:	05878713          	addi	a4,a5,88
    1a3e:	00e51663          	bne	a0,a4,1a4a <DMA_DeInit+0x72>
    1a42:	43d8                	lw	a4,4(a5)
    1a44:	000f06b7          	lui	a3,0xf0
    1a48:	b7c5                	j	1a28 <DMA_DeInit+0x50>
    1a4a:	06c78713          	addi	a4,a5,108
    1a4e:	00e51663          	bne	a0,a4,1a5a <DMA_DeInit+0x82>
    1a52:	43d8                	lw	a4,4(a5)
    1a54:	00f006b7          	lui	a3,0xf00
    1a58:	bfc1                	j	1a28 <DMA_DeInit+0x50>
    1a5a:	08078713          	addi	a4,a5,128
    1a5e:	00e51663          	bne	a0,a4,1a6a <DMA_DeInit+0x92>
    1a62:	43d8                	lw	a4,4(a5)
    1a64:	0f0006b7          	lui	a3,0xf000
    1a68:	b7c1                	j	1a28 <DMA_DeInit+0x50>
    1a6a:	40878713          	addi	a4,a5,1032
    1a6e:	00e51963          	bne	a0,a4,1a80 <DMA_DeInit+0xa8>
    1a72:	4047a703          	lw	a4,1028(a5)
    1a76:	00f76713          	ori	a4,a4,15
    1a7a:	40e7a223          	sw	a4,1028(a5)
    1a7e:	8082                	ret
    1a80:	41c78713          	addi	a4,a5,1052
    1a84:	00e51763          	bne	a0,a4,1a92 <DMA_DeInit+0xba>
    1a88:	4047a703          	lw	a4,1028(a5)
    1a8c:	0f076713          	ori	a4,a4,240
    1a90:	b7ed                	j	1a7a <DMA_DeInit+0xa2>
    1a92:	43078793          	addi	a5,a5,1072
    1a96:	00f51b63          	bne	a0,a5,1aac <DMA_DeInit+0xd4>
    1a9a:	400207b7          	lui	a5,0x40020
    1a9e:	4047a703          	lw	a4,1028(a5) # 40020404 <_eusrstack+0x20000404>
    1aa2:	6685                	lui	a3,0x1
    1aa4:	f0068693          	addi	a3,a3,-256 # f00 <lcd_show_char+0x1aa>
    1aa8:	8f55                	or	a4,a4,a3
    1aaa:	bfc1                	j	1a7a <DMA_DeInit+0xa2>
    1aac:	400207b7          	lui	a5,0x40020
    1ab0:	44478713          	addi	a4,a5,1092 # 40020444 <_eusrstack+0x20000444>
    1ab4:	00e51663          	bne	a0,a4,1ac0 <DMA_DeInit+0xe8>
    1ab8:	4047a703          	lw	a4,1028(a5)
    1abc:	66bd                	lui	a3,0xf
    1abe:	b7ed                	j	1aa8 <DMA_DeInit+0xd0>
    1ac0:	45878713          	addi	a4,a5,1112
    1ac4:	00e51763          	bne	a0,a4,1ad2 <DMA_DeInit+0xfa>
    1ac8:	4047a703          	lw	a4,1028(a5)
    1acc:	000f06b7          	lui	a3,0xf0
    1ad0:	bfe1                	j	1aa8 <DMA_DeInit+0xd0>
    1ad2:	46c78713          	addi	a4,a5,1132
    1ad6:	00e51763          	bne	a0,a4,1ae4 <DMA_DeInit+0x10c>
    1ada:	4047a703          	lw	a4,1028(a5)
    1ade:	00f006b7          	lui	a3,0xf00
    1ae2:	b7d9                	j	1aa8 <DMA_DeInit+0xd0>
    1ae4:	48078713          	addi	a4,a5,1152
    1ae8:	00e51763          	bne	a0,a4,1af6 <DMA_DeInit+0x11e>
    1aec:	4047a703          	lw	a4,1028(a5)
    1af0:	0f0006b7          	lui	a3,0xf000
    1af4:	bf55                	j	1aa8 <DMA_DeInit+0xd0>
    1af6:	49078713          	addi	a4,a5,1168
    1afa:	00e51963          	bne	a0,a4,1b0c <DMA_DeInit+0x134>
    1afe:	4d47a703          	lw	a4,1236(a5)
    1b02:	00f76713          	ori	a4,a4,15
    1b06:	4ce7aa23          	sw	a4,1236(a5)
    1b0a:	8082                	ret
    1b0c:	4a078713          	addi	a4,a5,1184
    1b10:	00e51763          	bne	a0,a4,1b1e <DMA_DeInit+0x146>
    1b14:	4d47a703          	lw	a4,1236(a5)
    1b18:	0f076713          	ori	a4,a4,240
    1b1c:	b7ed                	j	1b06 <DMA_DeInit+0x12e>
    1b1e:	4b078713          	addi	a4,a5,1200
    1b22:	00e51963          	bne	a0,a4,1b34 <DMA_DeInit+0x15c>
    1b26:	4d47a703          	lw	a4,1236(a5)
    1b2a:	6685                	lui	a3,0x1
    1b2c:	f0068693          	addi	a3,a3,-256 # f00 <lcd_show_char+0x1aa>
    1b30:	8f55                	or	a4,a4,a3
    1b32:	bfd1                	j	1b06 <DMA_DeInit+0x12e>
    1b34:	4c078713          	addi	a4,a5,1216
    1b38:	fce519e3          	bne	a0,a4,1b0a <DMA_DeInit+0x132>
    1b3c:	4d47a703          	lw	a4,1236(a5)
    1b40:	66bd                	lui	a3,0xf
    1b42:	b7fd                	j	1b30 <DMA_DeInit+0x158>

00001b44 <DMA_Init>:
    1b44:	411c                	lw	a5,0(a0)
    1b46:	7761                	lui	a4,0xffff8
    1b48:	073d                	addi	a4,a4,15
    1b4a:	5194                	lw	a3,32(a1)
    1b4c:	8f7d                	and	a4,a4,a5
    1b4e:	459c                	lw	a5,8(a1)
    1b50:	8fd5                	or	a5,a5,a3
    1b52:	4994                	lw	a3,16(a1)
    1b54:	8fd5                	or	a5,a5,a3
    1b56:	49d4                	lw	a3,20(a1)
    1b58:	8fd5                	or	a5,a5,a3
    1b5a:	4d94                	lw	a3,24(a1)
    1b5c:	8fd5                	or	a5,a5,a3
    1b5e:	4dd4                	lw	a3,28(a1)
    1b60:	8fd5                	or	a5,a5,a3
    1b62:	51d4                	lw	a3,36(a1)
    1b64:	8fd5                	or	a5,a5,a3
    1b66:	5594                	lw	a3,40(a1)
    1b68:	8fd5                	or	a5,a5,a3
    1b6a:	8fd9                	or	a5,a5,a4
    1b6c:	c11c                	sw	a5,0(a0)
    1b6e:	45dc                	lw	a5,12(a1)
    1b70:	c15c                	sw	a5,4(a0)
    1b72:	419c                	lw	a5,0(a1)
    1b74:	c51c                	sw	a5,8(a0)
    1b76:	41dc                	lw	a5,4(a1)
    1b78:	c55c                	sw	a5,12(a0)
    1b7a:	8082                	ret

00001b7c <DMA_Cmd>:
    1b7c:	411c                	lw	a5,0(a0)
    1b7e:	c589                	beqz	a1,1b88 <DMA_Cmd+0xc>
    1b80:	0017e793          	ori	a5,a5,1
    1b84:	c11c                	sw	a5,0(a0)
    1b86:	8082                	ret
    1b88:	6741                	lui	a4,0x10
    1b8a:	1779                	addi	a4,a4,-2
    1b8c:	8ff9                	and	a5,a5,a4
    1b8e:	bfdd                	j	1b84 <DMA_Cmd+0x8>

00001b90 <DMA_ITConfig>:
    1b90:	411c                	lw	a5,0(a0)
    1b92:	c601                	beqz	a2,1b9a <DMA_ITConfig+0xa>
    1b94:	8ddd                	or	a1,a1,a5
    1b96:	c10c                	sw	a1,0(a0)
    1b98:	8082                	ret
    1b9a:	fff5c593          	not	a1,a1
    1b9e:	8dfd                	and	a1,a1,a5
    1ba0:	bfdd                	j	1b96 <DMA_ITConfig+0x6>

00001ba2 <DMA_GetFlagStatus>:
    1ba2:	00351793          	slli	a5,a0,0x3
    1ba6:	0007da63          	bgez	a5,1bba <DMA_GetFlagStatus+0x18>
    1baa:	400207b7          	lui	a5,0x40020
    1bae:	4007a783          	lw	a5,1024(a5) # 40020400 <_eusrstack+0x20000400>
    1bb2:	8d7d                	and	a0,a0,a5
    1bb4:	00a03533          	snez	a0,a0
    1bb8:	8082                	ret
    1bba:	00251793          	slli	a5,a0,0x2
    1bbe:	0007d763          	bgez	a5,1bcc <DMA_GetFlagStatus+0x2a>
    1bc2:	400207b7          	lui	a5,0x40020
    1bc6:	4d07a783          	lw	a5,1232(a5) # 400204d0 <_eusrstack+0x200004d0>
    1bca:	b7e5                	j	1bb2 <DMA_GetFlagStatus+0x10>
    1bcc:	400207b7          	lui	a5,0x40020
    1bd0:	439c                	lw	a5,0(a5)
    1bd2:	b7c5                	j	1bb2 <DMA_GetFlagStatus+0x10>

00001bd4 <DMA_ClearFlag>:
    1bd4:	00351793          	slli	a5,a0,0x3
    1bd8:	0007d763          	bgez	a5,1be6 <DMA_ClearFlag+0x12>
    1bdc:	400207b7          	lui	a5,0x40020
    1be0:	40a7a223          	sw	a0,1028(a5) # 40020404 <_eusrstack+0x20000404>
    1be4:	8082                	ret
    1be6:	00251793          	slli	a5,a0,0x2
    1bea:	0007d763          	bgez	a5,1bf8 <DMA_ClearFlag+0x24>
    1bee:	400207b7          	lui	a5,0x40020
    1bf2:	4ca7aa23          	sw	a0,1236(a5) # 400204d4 <_eusrstack+0x200004d4>
    1bf6:	8082                	ret
    1bf8:	400207b7          	lui	a5,0x40020
    1bfc:	c3c8                	sw	a0,4(a5)
    1bfe:	8082                	ret

00001c00 <DMA_GetITStatus>:
    1c00:	b74d                	j	1ba2 <DMA_GetFlagStatus>

00001c02 <DMA_ClearITPendingBit>:
    1c02:	bfc9                	j	1bd4 <DMA_ClearFlag>

00001c04 <FLASH_Lock>:
    1c04:	40022737          	lui	a4,0x40022
    1c08:	4b1c                	lw	a5,16(a4)
    1c0a:	0807e793          	ori	a5,a5,128
    1c0e:	cb1c                	sw	a5,16(a4)
    1c10:	8082                	ret

00001c12 <FLASH_Unlock_Fast>:
    1c12:	456706b7          	lui	a3,0x45670
    1c16:	400227b7          	lui	a5,0x40022
    1c1a:	12368693          	addi	a3,a3,291 # 45670123 <_eusrstack+0x25650123>
    1c1e:	cdef9737          	lui	a4,0xcdef9
    1c22:	c3d4                	sw	a3,4(a5)
    1c24:	9ab70713          	addi	a4,a4,-1621 # cdef89ab <_eusrstack+0xaded89ab>
    1c28:	c3d8                	sw	a4,4(a5)
    1c2a:	d3d4                	sw	a3,36(a5)
    1c2c:	d3d8                	sw	a4,36(a5)
    1c2e:	8082                	ret

00001c30 <FLASH_Lock_Fast>:
    1c30:	bfd1                	j	1c04 <FLASH_Lock>

00001c32 <FLASH_ErasePage_Fast>:
    1c32:	400227b7          	lui	a5,0x40022
    1c36:	4b98                	lw	a4,16(a5)
    1c38:	000206b7          	lui	a3,0x20
    1c3c:	f0057513          	andi	a0,a0,-256
    1c40:	8f55                	or	a4,a4,a3
    1c42:	cb98                	sw	a4,16(a5)
    1c44:	cbc8                	sw	a0,20(a5)
    1c46:	4b98                	lw	a4,16(a5)
    1c48:	04076713          	ori	a4,a4,64
    1c4c:	cb98                	sw	a4,16(a5)
    1c4e:	47d8                	lw	a4,12(a5)
    1c50:	8b05                	andi	a4,a4,1
    1c52:	ff75                	bnez	a4,1c4e <FLASH_ErasePage_Fast+0x1c>
    1c54:	4b98                	lw	a4,16(a5)
    1c56:	7681                	lui	a3,0xfffe0
    1c58:	16fd                	addi	a3,a3,-1
    1c5a:	8f75                	and	a4,a4,a3
    1c5c:	cb98                	sw	a4,16(a5)
    1c5e:	8082                	ret

00001c60 <FLASH_ProgramPage_Fast>:
    1c60:	40022737          	lui	a4,0x40022
    1c64:	4b1c                	lw	a5,16(a4)
    1c66:	66c1                	lui	a3,0x10
    1c68:	f0057513          	andi	a0,a0,-256
    1c6c:	8fd5                	or	a5,a5,a3
    1c6e:	cb1c                	sw	a5,16(a4)
    1c70:	475c                	lw	a5,12(a4)
    1c72:	8b85                	andi	a5,a5,1
    1c74:	fff5                	bnez	a5,1c70 <FLASH_ProgramPage_Fast+0x10>
    1c76:	40022737          	lui	a4,0x40022
    1c7a:	475c                	lw	a5,12(a4)
    1c7c:	8b89                	andi	a5,a5,2
    1c7e:	fff5                	bnez	a5,1c7a <FLASH_ProgramPage_Fast+0x1a>
    1c80:	40022737          	lui	a4,0x40022
    1c84:	10000613          	li	a2,256
    1c88:	00f586b3          	add	a3,a1,a5
    1c8c:	0006a803          	lw	a6,0(a3) # 10000 <_data_lma+0x40e4>
    1c90:	00f506b3          	add	a3,a0,a5
    1c94:	0106a023          	sw	a6,0(a3)
    1c98:	4754                	lw	a3,12(a4)
    1c9a:	8a89                	andi	a3,a3,2
    1c9c:	fef5                	bnez	a3,1c98 <FLASH_ProgramPage_Fast+0x38>
    1c9e:	0791                	addi	a5,a5,4
    1ca0:	fec794e3          	bne	a5,a2,1c88 <FLASH_ProgramPage_Fast+0x28>
    1ca4:	4b1c                	lw	a5,16(a4)
    1ca6:	002006b7          	lui	a3,0x200
    1caa:	8fd5                	or	a5,a5,a3
    1cac:	cb1c                	sw	a5,16(a4)
    1cae:	400227b7          	lui	a5,0x40022
    1cb2:	47d8                	lw	a4,12(a5)
    1cb4:	8b05                	andi	a4,a4,1
    1cb6:	ff75                	bnez	a4,1cb2 <FLASH_ProgramPage_Fast+0x52>
    1cb8:	4b98                	lw	a4,16(a5)
    1cba:	76c1                	lui	a3,0xffff0
    1cbc:	16fd                	addi	a3,a3,-1
    1cbe:	8f75                	and	a4,a4,a3
    1cc0:	cb98                	sw	a4,16(a5)
    1cc2:	8082                	ret

00001cc4 <FSMC_NORSRAMInit>:
    1cc4:	4514                	lw	a3,8(a0)
    1cc6:	415c                	lw	a5,4(a0)
    1cc8:	4558                	lw	a4,12(a0)
    1cca:	02c52803          	lw	a6,44(a0)
    1cce:	8fd5                	or	a5,a5,a3
    1cd0:	8fd9                	or	a5,a5,a4
    1cd2:	4918                	lw	a4,16(a0)
    1cd4:	a0000637          	lui	a2,0xa0000
    1cd8:	8fd9                	or	a5,a5,a4
    1cda:	4958                	lw	a4,20(a0)
    1cdc:	8fd9                	or	a5,a5,a4
    1cde:	4d18                	lw	a4,24(a0)
    1ce0:	8fd9                	or	a5,a5,a4
    1ce2:	4d58                	lw	a4,28(a0)
    1ce4:	8fd9                	or	a5,a5,a4
    1ce6:	5118                	lw	a4,32(a0)
    1ce8:	8fd9                	or	a5,a5,a4
    1cea:	5158                	lw	a4,36(a0)
    1cec:	8fd9                	or	a5,a5,a4
    1cee:	5518                	lw	a4,40(a0)
    1cf0:	8fd9                	or	a5,a5,a4
    1cf2:	5918                	lw	a4,48(a0)
    1cf4:	0107e7b3          	or	a5,a5,a6
    1cf8:	8fd9                	or	a5,a5,a4
    1cfa:	4118                	lw	a4,0(a0)
    1cfc:	070a                	slli	a4,a4,0x2
    1cfe:	963a                	add	a2,a2,a4
    1d00:	c21c                	sw	a5,0(a2)
    1d02:	47a1                	li	a5,8
    1d04:	00f69663          	bne	a3,a5,1d10 <FSMC_NORSRAMInit+0x4c>
    1d08:	421c                	lw	a5,0(a2)
    1d0a:	0407e793          	ori	a5,a5,64
    1d0e:	c21c                	sw	a5,0(a2)
    1d10:	5954                	lw	a3,52(a0)
    1d12:	4e8c                	lw	a1,24(a3)
    1d14:	429c                	lw	a5,0(a3)
    1d16:	8fcd                	or	a5,a5,a1
    1d18:	42cc                	lw	a1,4(a3)
    1d1a:	0592                	slli	a1,a1,0x4
    1d1c:	8fcd                	or	a5,a5,a1
    1d1e:	468c                	lw	a1,8(a3)
    1d20:	05a2                	slli	a1,a1,0x8
    1d22:	8fcd                	or	a5,a5,a1
    1d24:	46cc                	lw	a1,12(a3)
    1d26:	05c2                	slli	a1,a1,0x10
    1d28:	8fcd                	or	a5,a5,a1
    1d2a:	4a8c                	lw	a1,16(a3)
    1d2c:	4ad4                	lw	a3,20(a3)
    1d2e:	05d2                	slli	a1,a1,0x14
    1d30:	8fcd                	or	a5,a5,a1
    1d32:	06e2                	slli	a3,a3,0x18
    1d34:	8fd5                	or	a5,a5,a3
    1d36:	c25c                	sw	a5,4(a2)
    1d38:	6791                	lui	a5,0x4
    1d3a:	02f81963          	bne	a6,a5,1d6c <FSMC_NORSRAMInit+0xa8>
    1d3e:	5d14                	lw	a3,56(a0)
    1d40:	4e90                	lw	a2,24(a3)
    1d42:	429c                	lw	a5,0(a3)
    1d44:	8fd1                	or	a5,a5,a2
    1d46:	42d0                	lw	a2,4(a3)
    1d48:	0612                	slli	a2,a2,0x4
    1d4a:	8fd1                	or	a5,a5,a2
    1d4c:	4690                	lw	a2,8(a3)
    1d4e:	0622                	slli	a2,a2,0x8
    1d50:	8fd1                	or	a5,a5,a2
    1d52:	4a90                	lw	a2,16(a3)
    1d54:	4ad4                	lw	a3,20(a3)
    1d56:	0652                	slli	a2,a2,0x14
    1d58:	06e2                	slli	a3,a3,0x18
    1d5a:	8fd1                	or	a5,a5,a2
    1d5c:	8fd5                	or	a5,a5,a3
    1d5e:	a00006b7          	lui	a3,0xa0000
    1d62:	10468693          	addi	a3,a3,260 # a0000104 <_eusrstack+0x7ffe0104>
    1d66:	9736                	add	a4,a4,a3
    1d68:	c31c                	sw	a5,0(a4)
    1d6a:	8082                	ret
    1d6c:	a00007b7          	lui	a5,0xa0000
    1d70:	10478793          	addi	a5,a5,260 # a0000104 <_eusrstack+0x7ffe0104>
    1d74:	973e                	add	a4,a4,a5
    1d76:	100007b7          	lui	a5,0x10000
    1d7a:	17fd                	addi	a5,a5,-1
    1d7c:	b7f5                	j	1d68 <FSMC_NORSRAMInit+0xa4>

00001d7e <FSMC_NORSRAMCmd>:
    1d7e:	a00007b7          	lui	a5,0xa0000
    1d82:	050a                	slli	a0,a0,0x2
    1d84:	953e                	add	a0,a0,a5
    1d86:	411c                	lw	a5,0(a0)
    1d88:	c589                	beqz	a1,1d92 <FSMC_NORSRAMCmd+0x14>
    1d8a:	0017e793          	ori	a5,a5,1
    1d8e:	c11c                	sw	a5,0(a0)
    1d90:	8082                	ret
    1d92:	00100737          	lui	a4,0x100
    1d96:	1779                	addi	a4,a4,-2
    1d98:	8ff9                	and	a5,a5,a4
    1d9a:	bfd5                	j	1d8e <FSMC_NORSRAMCmd+0x10>

00001d9c <GPIO_Init>:
    1d9c:	459c                	lw	a5,8(a1)
    1d9e:	0107f713          	andi	a4,a5,16
    1da2:	00f7f813          	andi	a6,a5,15
    1da6:	c701                	beqz	a4,1dae <GPIO_Init+0x12>
    1da8:	41d8                	lw	a4,4(a1)
    1daa:	00e86833          	or	a6,a6,a4
    1dae:	0005d583          	lhu	a1,0(a1)
    1db2:	0ff5f713          	andi	a4,a1,255
    1db6:	c339                	beqz	a4,1dfc <GPIO_Init+0x60>
    1db8:	4118                	lw	a4,0(a0)
    1dba:	4681                	li	a3,0
    1dbc:	4e85                	li	t4,1
    1dbe:	4f3d                	li	t5,15
    1dc0:	02800f93          	li	t6,40
    1dc4:	04800293          	li	t0,72
    1dc8:	4e21                	li	t3,8
    1dca:	00de9633          	sll	a2,t4,a3
    1dce:	00c5f8b3          	and	a7,a1,a2
    1dd2:	03161163          	bne	a2,a7,1df4 <GPIO_Init+0x58>
    1dd6:	00269893          	slli	a7,a3,0x2
    1dda:	011f1333          	sll	t1,t5,a7
    1dde:	fff34313          	not	t1,t1
    1de2:	00e37733          	and	a4,t1,a4
    1de6:	011818b3          	sll	a7,a6,a7
    1dea:	00e8e733          	or	a4,a7,a4
    1dee:	05f79f63          	bne	a5,t6,1e4c <GPIO_Init+0xb0>
    1df2:	c950                	sw	a2,20(a0)
    1df4:	0685                	addi	a3,a3,1
    1df6:	fdc69ae3          	bne	a3,t3,1dca <GPIO_Init+0x2e>
    1dfa:	c118                	sw	a4,0(a0)
    1dfc:	0ff00713          	li	a4,255
    1e00:	04b77563          	bgeu	a4,a1,1e4a <GPIO_Init+0xae>
    1e04:	4154                	lw	a3,4(a0)
    1e06:	4621                	li	a2,8
    1e08:	4e85                	li	t4,1
    1e0a:	4f3d                	li	t5,15
    1e0c:	02800f93          	li	t6,40
    1e10:	04800293          	li	t0,72
    1e14:	4e41                	li	t3,16
    1e16:	00ce98b3          	sll	a7,t4,a2
    1e1a:	0115f733          	and	a4,a1,a7
    1e1e:	02e89263          	bne	a7,a4,1e42 <GPIO_Init+0xa6>
    1e22:	00261713          	slli	a4,a2,0x2
    1e26:	1701                	addi	a4,a4,-32
    1e28:	00ef1333          	sll	t1,t5,a4
    1e2c:	fff34313          	not	t1,t1
    1e30:	00d376b3          	and	a3,t1,a3
    1e34:	00e81733          	sll	a4,a6,a4
    1e38:	8ed9                	or	a3,a3,a4
    1e3a:	01f79d63          	bne	a5,t6,1e54 <GPIO_Init+0xb8>
    1e3e:	01152a23          	sw	a7,20(a0)
    1e42:	0605                	addi	a2,a2,1
    1e44:	fdc619e3          	bne	a2,t3,1e16 <GPIO_Init+0x7a>
    1e48:	c154                	sw	a3,4(a0)
    1e4a:	8082                	ret
    1e4c:	fa5794e3          	bne	a5,t0,1df4 <GPIO_Init+0x58>
    1e50:	c910                	sw	a2,16(a0)
    1e52:	b74d                	j	1df4 <GPIO_Init+0x58>
    1e54:	fe5797e3          	bne	a5,t0,1e42 <GPIO_Init+0xa6>
    1e58:	01152823          	sw	a7,16(a0)
    1e5c:	b7dd                	j	1e42 <GPIO_Init+0xa6>

00001e5e <GPIO_ReadInputDataBit>:
    1e5e:	4508                	lw	a0,8(a0)
    1e60:	8d6d                	and	a0,a0,a1
    1e62:	00a03533          	snez	a0,a0
    1e66:	8082                	ret

00001e68 <GPIO_SetBits>:
    1e68:	c90c                	sw	a1,16(a0)
    1e6a:	8082                	ret

00001e6c <GPIO_ResetBits>:
    1e6c:	c94c                	sw	a1,20(a0)
    1e6e:	8082                	ret

00001e70 <GPIO_WriteBit>:
    1e70:	c219                	beqz	a2,1e76 <GPIO_WriteBit+0x6>
    1e72:	c90c                	sw	a1,16(a0)
    1e74:	8082                	ret
    1e76:	c94c                	sw	a1,20(a0)
    1e78:	8082                	ret

00001e7a <I2C_Init>:
    1e7a:	7139                	addi	sp,sp,-64
    1e7c:	dc22                	sw	s0,56(sp)
    1e7e:	da26                	sw	s1,52(sp)
    1e80:	842a                	mv	s0,a0
    1e82:	00455483          	lhu	s1,4(a0)
    1e86:	0868                	addi	a0,sp,28
    1e88:	c62e                	sw	a1,12(sp)
    1e8a:	de06                	sw	ra,60(sp)
    1e8c:	22ed                	jal	2076 <RCC_GetClocksFreq>
    1e8e:	5792                	lw	a5,36(sp)
    1e90:	000f4737          	lui	a4,0xf4
    1e94:	24070713          	addi	a4,a4,576 # f4240 <_data_lma+0xe8324>
    1e98:	02e7d733          	divu	a4,a5,a4
    1e9c:	04c2                	slli	s1,s1,0x10
    1e9e:	80c1                	srli	s1,s1,0x10
    1ea0:	fc04f493          	andi	s1,s1,-64
    1ea4:	04c2                	slli	s1,s1,0x10
    1ea6:	80c1                	srli	s1,s1,0x10
    1ea8:	45b2                	lw	a1,12(sp)
    1eaa:	6561                	lui	a0,0x18
    1eac:	6a050513          	addi	a0,a0,1696 # 186a0 <_data_lma+0xc784>
    1eb0:	01071613          	slli	a2,a4,0x10
    1eb4:	8241                	srli	a2,a2,0x10
    1eb6:	8cd1                	or	s1,s1,a2
    1eb8:	00941223          	sh	s1,4(s0)
    1ebc:	00045683          	lhu	a3,0(s0)
    1ec0:	06c2                	slli	a3,a3,0x10
    1ec2:	82c1                	srli	a3,a3,0x10
    1ec4:	9af9                	andi	a3,a3,-2
    1ec6:	06c2                	slli	a3,a3,0x10
    1ec8:	82c1                	srli	a3,a3,0x10
    1eca:	00d41023          	sh	a3,0(s0)
    1ece:	4194                	lw	a3,0(a1)
    1ed0:	06d56663          	bltu	a0,a3,1f3c <I2C_Init+0xc2>
    1ed4:	0686                	slli	a3,a3,0x1
    1ed6:	02d7d7b3          	divu	a5,a5,a3
    1eda:	4691                	li	a3,4
    1edc:	01079713          	slli	a4,a5,0x10
    1ee0:	8341                	srli	a4,a4,0x10
    1ee2:	87ba                	mv	a5,a4
    1ee4:	00d77363          	bgeu	a4,a3,1eea <I2C_Init+0x70>
    1ee8:	4791                	li	a5,4
    1eea:	0605                	addi	a2,a2,1
    1eec:	0642                	slli	a2,a2,0x10
    1eee:	07c2                	slli	a5,a5,0x10
    1ef0:	8241                	srli	a2,a2,0x10
    1ef2:	83c1                	srli	a5,a5,0x10
    1ef4:	02c41023          	sh	a2,32(s0)
    1ef8:	00f41e23          	sh	a5,28(s0)
    1efc:	00045783          	lhu	a5,0(s0)
    1f00:	0045d703          	lhu	a4,4(a1)
    1f04:	00a5d683          	lhu	a3,10(a1)
    1f08:	0017e793          	ori	a5,a5,1
    1f0c:	00f41023          	sh	a5,0(s0)
    1f10:	00045783          	lhu	a5,0(s0)
    1f14:	8f55                	or	a4,a4,a3
    1f16:	50f2                	lw	ra,60(sp)
    1f18:	07c2                	slli	a5,a5,0x10
    1f1a:	83c1                	srli	a5,a5,0x10
    1f1c:	bf57f793          	andi	a5,a5,-1035
    1f20:	8fd9                	or	a5,a5,a4
    1f22:	00f41023          	sh	a5,0(s0)
    1f26:	0085d703          	lhu	a4,8(a1)
    1f2a:	00c5d783          	lhu	a5,12(a1)
    1f2e:	54d2                	lw	s1,52(sp)
    1f30:	8fd9                	or	a5,a5,a4
    1f32:	00f41423          	sh	a5,8(s0)
    1f36:	5462                	lw	s0,56(sp)
    1f38:	6121                	addi	sp,sp,64
    1f3a:	8082                	ret
    1f3c:	0065d503          	lhu	a0,6(a1)
    1f40:	6631                	lui	a2,0xc
    1f42:	167d                	addi	a2,a2,-1
    1f44:	02c51e63          	bne	a0,a2,1f80 <I2C_Init+0x106>
    1f48:	460d                	li	a2,3
    1f4a:	02c686b3          	mul	a3,a3,a2
    1f4e:	02d7d7b3          	divu	a5,a5,a3
    1f52:	07c2                	slli	a5,a5,0x10
    1f54:	83c1                	srli	a5,a5,0x10
    1f56:	01479693          	slli	a3,a5,0x14
    1f5a:	e299                	bnez	a3,1f60 <I2C_Init+0xe6>
    1f5c:	0017e793          	ori	a5,a5,1
    1f60:	66a1                	lui	a3,0x8
    1f62:	8fd5                	or	a5,a5,a3
    1f64:	12c00693          	li	a3,300
    1f68:	02d70733          	mul	a4,a4,a3
    1f6c:	3e800693          	li	a3,1000
    1f70:	02d74733          	div	a4,a4,a3
    1f74:	0705                	addi	a4,a4,1
    1f76:	0742                	slli	a4,a4,0x10
    1f78:	8341                	srli	a4,a4,0x10
    1f7a:	02e41023          	sh	a4,32(s0)
    1f7e:	bfad                	j	1ef8 <I2C_Init+0x7e>
    1f80:	4665                	li	a2,25
    1f82:	02c686b3          	mul	a3,a3,a2
    1f86:	02d7d7b3          	divu	a5,a5,a3
    1f8a:	6691                	lui	a3,0x4
    1f8c:	07c2                	slli	a5,a5,0x10
    1f8e:	83c1                	srli	a5,a5,0x10
    1f90:	8fd5                	or	a5,a5,a3
    1f92:	b7d1                	j	1f56 <I2C_Init+0xdc>

00001f94 <I2C_Cmd>:
    1f94:	00055783          	lhu	a5,0(a0)
    1f98:	c591                	beqz	a1,1fa4 <I2C_Cmd+0x10>
    1f9a:	0017e793          	ori	a5,a5,1
    1f9e:	00f51023          	sh	a5,0(a0)
    1fa2:	8082                	ret
    1fa4:	07c2                	slli	a5,a5,0x10
    1fa6:	83c1                	srli	a5,a5,0x10
    1fa8:	9bf9                	andi	a5,a5,-2
    1faa:	07c2                	slli	a5,a5,0x10
    1fac:	83c1                	srli	a5,a5,0x10
    1fae:	bfc5                	j	1f9e <I2C_Cmd+0xa>

00001fb0 <I2C_GenerateSTART>:
    1fb0:	00055783          	lhu	a5,0(a0)
    1fb4:	c591                	beqz	a1,1fc0 <I2C_GenerateSTART+0x10>
    1fb6:	1007e793          	ori	a5,a5,256
    1fba:	00f51023          	sh	a5,0(a0)
    1fbe:	8082                	ret
    1fc0:	07c2                	slli	a5,a5,0x10
    1fc2:	83c1                	srli	a5,a5,0x10
    1fc4:	eff7f793          	andi	a5,a5,-257
    1fc8:	07c2                	slli	a5,a5,0x10
    1fca:	83c1                	srli	a5,a5,0x10
    1fcc:	b7fd                	j	1fba <I2C_GenerateSTART+0xa>

00001fce <I2C_GenerateSTOP>:
    1fce:	00055783          	lhu	a5,0(a0)
    1fd2:	c591                	beqz	a1,1fde <I2C_GenerateSTOP+0x10>
    1fd4:	2007e793          	ori	a5,a5,512
    1fd8:	00f51023          	sh	a5,0(a0)
    1fdc:	8082                	ret
    1fde:	07c2                	slli	a5,a5,0x10
    1fe0:	83c1                	srli	a5,a5,0x10
    1fe2:	dff7f793          	andi	a5,a5,-513
    1fe6:	07c2                	slli	a5,a5,0x10
    1fe8:	83c1                	srli	a5,a5,0x10
    1fea:	b7fd                	j	1fd8 <I2C_GenerateSTOP+0xa>

00001fec <I2C_AcknowledgeConfig>:
    1fec:	00055783          	lhu	a5,0(a0)
    1ff0:	c591                	beqz	a1,1ffc <I2C_AcknowledgeConfig+0x10>
    1ff2:	4007e793          	ori	a5,a5,1024
    1ff6:	00f51023          	sh	a5,0(a0)
    1ffa:	8082                	ret
    1ffc:	07c2                	slli	a5,a5,0x10
    1ffe:	83c1                	srli	a5,a5,0x10
    2000:	bff7f793          	andi	a5,a5,-1025
    2004:	07c2                	slli	a5,a5,0x10
    2006:	83c1                	srli	a5,a5,0x10
    2008:	b7fd                	j	1ff6 <I2C_AcknowledgeConfig+0xa>

0000200a <I2C_SendData>:
    200a:	00b51823          	sh	a1,16(a0)
    200e:	8082                	ret

00002010 <I2C_Send7bitAddress>:
    2010:	0fe5f793          	andi	a5,a1,254
    2014:	c219                	beqz	a2,201a <I2C_Send7bitAddress+0xa>
    2016:	0015e793          	ori	a5,a1,1
    201a:	07c2                	slli	a5,a5,0x10
    201c:	83c1                	srli	a5,a5,0x10
    201e:	00f51823          	sh	a5,16(a0)
    2022:	8082                	ret

00002024 <I2C_CheckEvent>:
    2024:	01455783          	lhu	a5,20(a0)
    2028:	01855503          	lhu	a0,24(a0)
    202c:	0542                	slli	a0,a0,0x10
    202e:	8d5d                	or	a0,a0,a5
    2030:	8d6d                	and	a0,a0,a1
    2032:	0522                	slli	a0,a0,0x8
    2034:	8121                	srli	a0,a0,0x8
    2036:	8d0d                	sub	a0,a0,a1
    2038:	00153513          	seqz	a0,a0
    203c:	8082                	ret

0000203e <I2C_GetFlagStatus>:
    203e:	1141                	addi	sp,sp,-16
    2040:	c402                	sw	zero,8(sp)
    2042:	c602                	sw	zero,12(sp)
    2044:	01c5d793          	srli	a5,a1,0x1c
    2048:	c62a                	sw	a0,12(sp)
    204a:	c43e                	sw	a5,8(sp)
    204c:	47a2                	lw	a5,8(sp)
    204e:	05a2                	slli	a1,a1,0x8
    2050:	81a1                	srli	a1,a1,0x8
    2052:	cb99                	beqz	a5,2068 <I2C_GetFlagStatus+0x2a>
    2054:	47b2                	lw	a5,12(sp)
    2056:	07d1                	addi	a5,a5,20
    2058:	c63e                	sw	a5,12(sp)
    205a:	47b2                	lw	a5,12(sp)
    205c:	4388                	lw	a0,0(a5)
    205e:	0141                	addi	sp,sp,16
    2060:	8d6d                	and	a0,a0,a1
    2062:	00a03533          	snez	a0,a0
    2066:	8082                	ret
    2068:	47b2                	lw	a5,12(sp)
    206a:	81c1                	srli	a1,a1,0x10
    206c:	07e1                	addi	a5,a5,24
    206e:	b7ed                	j	2058 <I2C_GetFlagStatus+0x1a>

00002070 <NVIC_PriorityGroupConfig>:
    2070:	82a1a823          	sw	a0,-2000(gp) # 200000d0 <NVIC_Priority_Group>
    2074:	8082                	ret

00002076 <RCC_GetClocksFreq>:
    2076:	40021737          	lui	a4,0x40021
    207a:	435c                	lw	a5,4(a4)
    207c:	4691                	li	a3,4
    207e:	8bb1                	andi	a5,a5,12
    2080:	00d78563          	beq	a5,a3,208a <RCC_GetClocksFreq+0x14>
    2084:	46a1                	li	a3,8
    2086:	06d78663          	beq	a5,a3,20f2 <RCC_GetClocksFreq+0x7c>
    208a:	007a17b7          	lui	a5,0x7a1
    208e:	20078793          	addi	a5,a5,512 # 7a1200 <_data_lma+0x7952e4>
    2092:	c11c                	sw	a5,0(a0)
    2094:	40021637          	lui	a2,0x40021
    2098:	425c                	lw	a5,4(a2)
    209a:	20000737          	lui	a4,0x20000
    209e:	03070713          	addi	a4,a4,48 # 20000030 <APBAHBPrescTable>
    20a2:	8391                	srli	a5,a5,0x4
    20a4:	8bbd                	andi	a5,a5,15
    20a6:	97ba                	add	a5,a5,a4
    20a8:	0007c683          	lbu	a3,0(a5)
    20ac:	411c                	lw	a5,0(a0)
    20ae:	00d7d7b3          	srl	a5,a5,a3
    20b2:	c15c                	sw	a5,4(a0)
    20b4:	4254                	lw	a3,4(a2)
    20b6:	82a1                	srli	a3,a3,0x8
    20b8:	8a9d                	andi	a3,a3,7
    20ba:	96ba                	add	a3,a3,a4
    20bc:	0006c683          	lbu	a3,0(a3) # 4000 <__muldf3+0x420>
    20c0:	00d7d6b3          	srl	a3,a5,a3
    20c4:	c514                	sw	a3,8(a0)
    20c6:	4254                	lw	a3,4(a2)
    20c8:	82ad                	srli	a3,a3,0xb
    20ca:	8a9d                	andi	a3,a3,7
    20cc:	9736                	add	a4,a4,a3
    20ce:	00074703          	lbu	a4,0(a4)
    20d2:	00e7d7b3          	srl	a5,a5,a4
    20d6:	c55c                	sw	a5,12(a0)
    20d8:	4258                	lw	a4,4(a2)
    20da:	8339                	srli	a4,a4,0xe
    20dc:	00377693          	andi	a3,a4,3
    20e0:	80818713          	addi	a4,gp,-2040 # 200000a8 <ADCPrescTable>
    20e4:	9736                	add	a4,a4,a3
    20e6:	00074703          	lbu	a4,0(a4)
    20ea:	02e7d7b3          	divu	a5,a5,a4
    20ee:	c91c                	sw	a5,16(a0)
    20f0:	8082                	ret
    20f2:	435c                	lw	a5,4(a4)
    20f4:	4354                	lw	a3,4(a4)
    20f6:	6741                	lui	a4,0x10
    20f8:	83c9                	srli	a5,a5,0x12
    20fa:	8ef9                	and	a3,a3,a4
    20fc:	1ffff737          	lui	a4,0x1ffff
    2100:	70c72703          	lw	a4,1804(a4) # 1ffff70c <_data_lma+0x1fff37f0>
    2104:	8bbd                	andi	a5,a5,15
    2106:	0789                	addi	a5,a5,2
    2108:	01171613          	slli	a2,a4,0x11
    210c:	00064863          	bltz	a2,211c <RCC_GetClocksFreq+0xa6>
    2110:	4645                	li	a2,17
    2112:	4701                	li	a4,0
    2114:	02c79263          	bne	a5,a2,2138 <RCC_GetClocksFreq+0xc2>
    2118:	47c9                	li	a5,18
    211a:	a839                	j	2138 <RCC_GetClocksFreq+0xc2>
    211c:	4709                	li	a4,2
    211e:	02e78963          	beq	a5,a4,2150 <RCC_GetClocksFreq+0xda>
    2122:	473d                	li	a4,15
    2124:	02e78863          	beq	a5,a4,2154 <RCC_GetClocksFreq+0xde>
    2128:	4741                	li	a4,16
    212a:	02e78863          	beq	a5,a4,215a <RCC_GetClocksFreq+0xe4>
    212e:	4645                	li	a2,17
    2130:	4701                	li	a4,0
    2132:	00c79363          	bne	a5,a2,2138 <RCC_GetClocksFreq+0xc2>
    2136:	47c1                	li	a5,16
    2138:	e685                	bnez	a3,2160 <RCC_GetClocksFreq+0xea>
    213a:	400246b7          	lui	a3,0x40024
    213e:	8006a683          	lw	a3,-2048(a3) # 40023800 <_eusrstack+0x20003800>
    2142:	8ac1                	andi	a3,a3,16
    2144:	c68d                	beqz	a3,216e <RCC_GetClocksFreq+0xf8>
    2146:	007a16b7          	lui	a3,0x7a1
    214a:	20068693          	addi	a3,a3,512 # 7a1200 <_data_lma+0x7952e4>
    214e:	a025                	j	2176 <RCC_GetClocksFreq+0x100>
    2150:	4701                	li	a4,0
    2152:	b7d9                	j	2118 <RCC_GetClocksFreq+0xa2>
    2154:	4705                	li	a4,1
    2156:	47b5                	li	a5,13
    2158:	b7c5                	j	2138 <RCC_GetClocksFreq+0xc2>
    215a:	4701                	li	a4,0
    215c:	47bd                	li	a5,15
    215e:	bfe9                	j	2138 <RCC_GetClocksFreq+0xc2>
    2160:	400216b7          	lui	a3,0x40021
    2164:	42d4                	lw	a3,4(a3)
    2166:	00e69613          	slli	a2,a3,0xe
    216a:	fc065ee3          	bgez	a2,2146 <RCC_GetClocksFreq+0xd0>
    216e:	003d16b7          	lui	a3,0x3d1
    2172:	90068693          	addi	a3,a3,-1792 # 3d0900 <_data_lma+0x3c49e4>
    2176:	02d787b3          	mul	a5,a5,a3
    217a:	c11c                	sw	a5,0(a0)
    217c:	df01                	beqz	a4,2094 <RCC_GetClocksFreq+0x1e>
    217e:	411c                	lw	a5,0(a0)
    2180:	8385                	srli	a5,a5,0x1
    2182:	bf01                	j	2092 <RCC_GetClocksFreq+0x1c>

00002184 <RCC_AHBPeriphClockCmd>:
    2184:	c599                	beqz	a1,2192 <RCC_AHBPeriphClockCmd+0xe>
    2186:	40021737          	lui	a4,0x40021
    218a:	4b5c                	lw	a5,20(a4)
    218c:	8d5d                	or	a0,a0,a5
    218e:	cb48                	sw	a0,20(a4)
    2190:	8082                	ret
    2192:	400217b7          	lui	a5,0x40021
    2196:	4bd8                	lw	a4,20(a5)
    2198:	fff54513          	not	a0,a0
    219c:	8d79                	and	a0,a0,a4
    219e:	cbc8                	sw	a0,20(a5)
    21a0:	8082                	ret

000021a2 <RCC_APB2PeriphClockCmd>:
    21a2:	c599                	beqz	a1,21b0 <RCC_APB2PeriphClockCmd+0xe>
    21a4:	40021737          	lui	a4,0x40021
    21a8:	4f1c                	lw	a5,24(a4)
    21aa:	8d5d                	or	a0,a0,a5
    21ac:	cf08                	sw	a0,24(a4)
    21ae:	8082                	ret
    21b0:	400217b7          	lui	a5,0x40021
    21b4:	4f98                	lw	a4,24(a5)
    21b6:	fff54513          	not	a0,a0
    21ba:	8d79                	and	a0,a0,a4
    21bc:	cf88                	sw	a0,24(a5)
    21be:	8082                	ret

000021c0 <RCC_APB1PeriphClockCmd>:
    21c0:	c599                	beqz	a1,21ce <RCC_APB1PeriphClockCmd+0xe>
    21c2:	40021737          	lui	a4,0x40021
    21c6:	4f5c                	lw	a5,28(a4)
    21c8:	8d5d                	or	a0,a0,a5
    21ca:	cf48                	sw	a0,28(a4)
    21cc:	8082                	ret
    21ce:	400217b7          	lui	a5,0x40021
    21d2:	4fd8                	lw	a4,28(a5)
    21d4:	fff54513          	not	a0,a0
    21d8:	8d79                	and	a0,a0,a4
    21da:	cfc8                	sw	a0,28(a5)
    21dc:	8082                	ret

000021de <I2S_Init>:
    21de:	01c55703          	lhu	a4,28(a0)
    21e2:	77fd                	lui	a5,0xfffff
    21e4:	7139                	addi	sp,sp,-64
    21e6:	04078793          	addi	a5,a5,64 # fffff040 <_eusrstack+0xdffdf040>
    21ea:	dc22                	sw	s0,56(sp)
    21ec:	d84a                	sw	s2,48(sp)
    21ee:	8ff9                	and	a5,a5,a4
    21f0:	de06                	sw	ra,60(sp)
    21f2:	da26                	sw	s1,52(sp)
    21f4:	00f51e23          	sh	a5,28(a0)
    21f8:	4789                	li	a5,2
    21fa:	02f51023          	sh	a5,32(a0)
    21fe:	01c55403          	lhu	s0,28(a0)
    2202:	4598                	lw	a4,8(a1)
    2204:	4789                	li	a5,2
    2206:	0442                	slli	s0,s0,0x10
    2208:	892a                	mv	s2,a0
    220a:	8041                	srli	s0,s0,0x10
    220c:	04f70d63          	beq	a4,a5,2266 <I2S_Init+0x88>
    2210:	0868                	addi	a0,sp,28
    2212:	0045d483          	lhu	s1,4(a1)
    2216:	c62e                	sw	a1,12(sp)
    2218:	3db9                	jal	2076 <RCC_GetClocksFreq>
    221a:	45b2                	lw	a1,12(sp)
    221c:	009034b3          	snez	s1,s1
    2220:	20000793          	li	a5,512
    2224:	0065d603          	lhu	a2,6(a1)
    2228:	0485                	addi	s1,s1,1
    222a:	4772                	lw	a4,28(sp)
    222c:	4594                	lw	a3,8(a1)
    222e:	06f61e63          	bne	a2,a5,22aa <I2S_Init+0xcc>
    2232:	8321                	srli	a4,a4,0x8
    2234:	47a9                	li	a5,10
    2236:	02e787b3          	mul	a5,a5,a4
    223a:	4729                	li	a4,10
    223c:	0fd00613          	li	a2,253
    2240:	02d7d7b3          	divu	a5,a5,a3
    2244:	0795                	addi	a5,a5,5
    2246:	07c2                	slli	a5,a5,0x10
    2248:	83c1                	srli	a5,a5,0x10
    224a:	02e7d7b3          	divu	a5,a5,a4
    224e:	0017f713          	andi	a4,a5,1
    2252:	8385                	srli	a5,a5,0x1
    2254:	07c2                	slli	a5,a5,0x10
    2256:	83c1                	srli	a5,a5,0x10
    2258:	ffe78693          	addi	a3,a5,-2
    225c:	06c2                	slli	a3,a3,0x10
    225e:	82c1                	srli	a3,a3,0x10
    2260:	0722                	slli	a4,a4,0x8
    2262:	00d67463          	bgeu	a2,a3,226a <I2S_Init+0x8c>
    2266:	4701                	li	a4,0
    2268:	4789                	li	a5,2
    226a:	8fd9                	or	a5,a5,a4
    226c:	0065d703          	lhu	a4,6(a1)
    2270:	50f2                	lw	ra,60(sp)
    2272:	54d2                	lw	s1,52(sp)
    2274:	8fd9                	or	a5,a5,a4
    2276:	02f91023          	sh	a5,32(s2)
    227a:	0025d703          	lhu	a4,2(a1)
    227e:	0005d783          	lhu	a5,0(a1)
    2282:	8fd9                	or	a5,a5,a4
    2284:	8c5d                	or	s0,s0,a5
    2286:	0045d783          	lhu	a5,4(a1)
    228a:	8c5d                	or	s0,s0,a5
    228c:	00c5d783          	lhu	a5,12(a1)
    2290:	8c5d                	or	s0,s0,a5
    2292:	6785                	lui	a5,0x1
    2294:	80078793          	addi	a5,a5,-2048 # 800 <__stack_size>
    2298:	8c5d                	or	s0,s0,a5
    229a:	0442                	slli	s0,s0,0x10
    229c:	8041                	srli	s0,s0,0x10
    229e:	00891e23          	sh	s0,28(s2)
    22a2:	5462                	lw	s0,56(sp)
    22a4:	5942                	lw	s2,48(sp)
    22a6:	6121                	addi	sp,sp,64
    22a8:	8082                	ret
    22aa:	00549793          	slli	a5,s1,0x5
    22ae:	02f757b3          	divu	a5,a4,a5
    22b2:	4729                	li	a4,10
    22b4:	b749                	j	2236 <I2S_Init+0x58>

000022b6 <I2S_Cmd>:
    22b6:	01c55783          	lhu	a5,28(a0)
    22ba:	c591                	beqz	a1,22c6 <I2S_Cmd+0x10>
    22bc:	4007e793          	ori	a5,a5,1024
    22c0:	00f51e23          	sh	a5,28(a0)
    22c4:	8082                	ret
    22c6:	07c2                	slli	a5,a5,0x10
    22c8:	83c1                	srli	a5,a5,0x10
    22ca:	bff7f793          	andi	a5,a5,-1025
    22ce:	07c2                	slli	a5,a5,0x10
    22d0:	83c1                	srli	a5,a5,0x10
    22d2:	b7fd                	j	22c0 <I2S_Cmd+0xa>

000022d4 <SPI_I2S_DMACmd>:
    22d4:	00455783          	lhu	a5,4(a0)
    22d8:	c609                	beqz	a2,22e2 <SPI_I2S_DMACmd+0xe>
    22da:	8ddd                	or	a1,a1,a5
    22dc:	00b51223          	sh	a1,4(a0)
    22e0:	8082                	ret
    22e2:	fff5c593          	not	a1,a1
    22e6:	8dfd                	and	a1,a1,a5
    22e8:	bfd5                	j	22dc <SPI_I2S_DMACmd+0x8>

000022ea <USART_Init>:
    22ea:	01055683          	lhu	a3,16(a0)
    22ee:	77f5                	lui	a5,0xffffd
    22f0:	17fd                	addi	a5,a5,-1
    22f2:	8ff5                	and	a5,a5,a3
    22f4:	0065d683          	lhu	a3,6(a1)
    22f8:	7139                	addi	sp,sp,-64
    22fa:	dc22                	sw	s0,56(sp)
    22fc:	de06                	sw	ra,60(sp)
    22fe:	8fd5                	or	a5,a5,a3
    2300:	00c5d703          	lhu	a4,12(a1)
    2304:	00f51823          	sh	a5,16(a0)
    2308:	00c55683          	lhu	a3,12(a0)
    230c:	77fd                	lui	a5,0xfffff
    230e:	9f378793          	addi	a5,a5,-1549 # ffffe9f3 <_eusrstack+0xdffde9f3>
    2312:	8ff5                	and	a5,a5,a3
    2314:	0045d683          	lhu	a3,4(a1)
    2318:	842a                	mv	s0,a0
    231a:	c62e                	sw	a1,12(sp)
    231c:	8fd5                	or	a5,a5,a3
    231e:	0085d683          	lhu	a3,8(a1)
    2322:	8fd5                	or	a5,a5,a3
    2324:	00a5d683          	lhu	a3,10(a1)
    2328:	8fd5                	or	a5,a5,a3
    232a:	00f51623          	sh	a5,12(a0)
    232e:	01455783          	lhu	a5,20(a0)
    2332:	07c2                	slli	a5,a5,0x10
    2334:	83c1                	srli	a5,a5,0x10
    2336:	cff7f793          	andi	a5,a5,-769
    233a:	8fd9                	or	a5,a5,a4
    233c:	00f51a23          	sh	a5,20(a0)
    2340:	0868                	addi	a0,sp,28
    2342:	3b15                	jal	2076 <RCC_GetClocksFreq>
    2344:	400147b7          	lui	a5,0x40014
    2348:	80078793          	addi	a5,a5,-2048 # 40013800 <_eusrstack+0x1fff3800>
    234c:	45b2                	lw	a1,12(sp)
    234e:	04f41e63          	bne	s0,a5,23aa <USART_Init+0xc0>
    2352:	57a2                	lw	a5,40(sp)
    2354:	00c45683          	lhu	a3,12(s0)
    2358:	4765                	li	a4,25
    235a:	02e787b3          	mul	a5,a5,a4
    235e:	06c2                	slli	a3,a3,0x10
    2360:	86c1                	srai	a3,a3,0x10
    2362:	4198                	lw	a4,0(a1)
    2364:	0406d563          	bgez	a3,23ae <USART_Init+0xc4>
    2368:	0706                	slli	a4,a4,0x1
    236a:	00c45603          	lhu	a2,12(s0)
    236e:	0642                	slli	a2,a2,0x10
    2370:	02e7d7b3          	divu	a5,a5,a4
    2374:	06400713          	li	a4,100
    2378:	8641                	srai	a2,a2,0x10
    237a:	02e7d6b3          	divu	a3,a5,a4
    237e:	02e7f7b3          	remu	a5,a5,a4
    2382:	0692                	slli	a3,a3,0x4
    2384:	02065763          	bgez	a2,23b2 <USART_Init+0xc8>
    2388:	078e                	slli	a5,a5,0x3
    238a:	03278793          	addi	a5,a5,50
    238e:	02e7d7b3          	divu	a5,a5,a4
    2392:	0077f713          	andi	a4,a5,7
    2396:	00d767b3          	or	a5,a4,a3
    239a:	07c2                	slli	a5,a5,0x10
    239c:	83c1                	srli	a5,a5,0x10
    239e:	00f41423          	sh	a5,8(s0)
    23a2:	50f2                	lw	ra,60(sp)
    23a4:	5462                	lw	s0,56(sp)
    23a6:	6121                	addi	sp,sp,64
    23a8:	8082                	ret
    23aa:	5792                	lw	a5,36(sp)
    23ac:	b765                	j	2354 <USART_Init+0x6a>
    23ae:	070a                	slli	a4,a4,0x2
    23b0:	bf6d                	j	236a <USART_Init+0x80>
    23b2:	0792                	slli	a5,a5,0x4
    23b4:	03278793          	addi	a5,a5,50
    23b8:	02e7d7b3          	divu	a5,a5,a4
    23bc:	8bbd                	andi	a5,a5,15
    23be:	8fd5                	or	a5,a5,a3
    23c0:	bfe9                	j	239a <USART_Init+0xb0>

000023c2 <USART_Cmd>:
    23c2:	c981                	beqz	a1,23d2 <USART_Cmd+0x10>
    23c4:	00c55783          	lhu	a5,12(a0)
    23c8:	6709                	lui	a4,0x2
    23ca:	8fd9                	or	a5,a5,a4
    23cc:	00f51623          	sh	a5,12(a0)
    23d0:	8082                	ret
    23d2:	00c55703          	lhu	a4,12(a0)
    23d6:	77f9                	lui	a5,0xffffe
    23d8:	17fd                	addi	a5,a5,-1
    23da:	8ff9                	and	a5,a5,a4
    23dc:	bfc5                	j	23cc <USART_Cmd+0xa>

000023de <USART_SendData>:
    23de:	1ff5f593          	andi	a1,a1,511
    23e2:	00b51223          	sh	a1,4(a0)
    23e6:	8082                	ret

000023e8 <USART_GetFlagStatus>:
    23e8:	00055503          	lhu	a0,0(a0)
    23ec:	8d6d                	and	a0,a0,a1
    23ee:	00a03533          	snez	a0,a0
    23f2:	8082                	ret

000023f4 <Delay_Init>:
    23f4:	200007b7          	lui	a5,0x20000
    23f8:	0a47a783          	lw	a5,164(a5) # 200000a4 <SystemCoreClock>
    23fc:	007a1737          	lui	a4,0x7a1
    2400:	20070713          	addi	a4,a4,512 # 7a1200 <_data_lma+0x7952e4>
    2404:	02e7d7b3          	divu	a5,a5,a4
    2408:	0ff7f793          	andi	a5,a5,255
    240c:	82f18b23          	sb	a5,-1994(gp) # 200000d6 <p_us>
    2410:	3e800713          	li	a4,1000
    2414:	02e787b3          	mul	a5,a5,a4
    2418:	82f19a23          	sh	a5,-1996(gp) # 200000d4 <p_ms>
    241c:	8082                	ret

0000241e <Delay_Ms>:
    241e:	e000f7b7          	lui	a5,0xe000f
    2422:	43d8                	lw	a4,4(a5)
    2424:	4681                	li	a3,0
    2426:	9b79                	andi	a4,a4,-2
    2428:	c3d8                	sw	a4,4(a5)
    242a:	8341d703          	lhu	a4,-1996(gp) # 200000d4 <p_ms>
    242e:	02a70633          	mul	a2,a4,a0
    2432:	cb90                	sw	a2,16(a5)
    2434:	cbd4                	sw	a3,20(a5)
    2436:	4398                	lw	a4,0(a5)
    2438:	03176713          	ori	a4,a4,49
    243c:	c398                	sw	a4,0(a5)
    243e:	43d8                	lw	a4,4(a5)
    2440:	8b05                	andi	a4,a4,1
    2442:	df75                	beqz	a4,243e <Delay_Ms+0x20>
    2444:	4398                	lw	a4,0(a5)
    2446:	9b79                	andi	a4,a4,-2
    2448:	c398                	sw	a4,0(a5)
    244a:	8082                	ret

0000244c <USART_Printf_Init>:
    244c:	7139                	addi	sp,sp,-64
    244e:	d64e                	sw	s3,44(sp)
    2450:	89aa                	mv	s3,a0
    2452:	6511                	lui	a0,0x4
    2454:	4585                	li	a1,1
    2456:	0511                	addi	a0,a0,4
    2458:	de06                	sw	ra,60(sp)
    245a:	dc22                	sw	s0,56(sp)
    245c:	da26                	sw	s1,52(sp)
    245e:	d84a                	sw	s2,48(sp)
    2460:	40011437          	lui	s0,0x40011
    2464:	3b3d                	jal	21a2 <RCC_APB2PeriphClockCmd>
    2466:	20000793          	li	a5,512
    246a:	490d                	li	s2,3
    246c:	44e1                	li	s1,24
    246e:	004c                	addi	a1,sp,4
    2470:	80040513          	addi	a0,s0,-2048 # 40010800 <_eusrstack+0x1fff0800>
    2474:	00f11223          	sh	a5,4(sp)
    2478:	c44a                	sw	s2,8(sp)
    247a:	c626                	sw	s1,12(sp)
    247c:	921ff0ef          	jal	ra,1d9c <GPIO_Init>
    2480:	40000793          	li	a5,1024
    2484:	004c                	addi	a1,sp,4
    2486:	80040513          	addi	a0,s0,-2048
    248a:	00f11223          	sh	a5,4(sp)
    248e:	c44a                	sw	s2,8(sp)
    2490:	c626                	sw	s1,12(sp)
    2492:	40014437          	lui	s0,0x40014
    2496:	907ff0ef          	jal	ra,1d9c <GPIO_Init>
    249a:	000c07b7          	lui	a5,0xc0
    249e:	080c                	addi	a1,sp,16
    24a0:	80040513          	addi	a0,s0,-2048 # 40013800 <_eusrstack+0x1fff3800>
    24a4:	c84e                	sw	s3,16(sp)
    24a6:	cc3e                	sw	a5,24(sp)
    24a8:	ca02                	sw	zero,20(sp)
    24aa:	00011e23          	sh	zero,28(sp)
    24ae:	3d35                	jal	22ea <USART_Init>
    24b0:	80040513          	addi	a0,s0,-2048
    24b4:	4585                	li	a1,1
    24b6:	3731                	jal	23c2 <USART_Cmd>
    24b8:	50f2                	lw	ra,60(sp)
    24ba:	5462                	lw	s0,56(sp)
    24bc:	54d2                	lw	s1,52(sp)
    24be:	5942                	lw	s2,48(sp)
    24c0:	59b2                	lw	s3,44(sp)
    24c2:	6121                	addi	sp,sp,64
    24c4:	8082                	ret

000024c6 <_write>:
    24c6:	1101                	addi	sp,sp,-32
    24c8:	ca26                	sw	s1,20(sp)
    24ca:	400144b7          	lui	s1,0x40014
    24ce:	cc22                	sw	s0,24(sp)
    24d0:	c84a                	sw	s2,16(sp)
    24d2:	c64e                	sw	s3,12(sp)
    24d4:	ce06                	sw	ra,28(sp)
    24d6:	89ae                	mv	s3,a1
    24d8:	8932                	mv	s2,a2
    24da:	4401                	li	s0,0
    24dc:	80048493          	addi	s1,s1,-2048 # 40013800 <_eusrstack+0x1fff3800>
    24e0:	01244a63          	blt	s0,s2,24f4 <_write+0x2e>
    24e4:	40f2                	lw	ra,28(sp)
    24e6:	4462                	lw	s0,24(sp)
    24e8:	854a                	mv	a0,s2
    24ea:	44d2                	lw	s1,20(sp)
    24ec:	4942                	lw	s2,16(sp)
    24ee:	49b2                	lw	s3,12(sp)
    24f0:	6105                	addi	sp,sp,32
    24f2:	8082                	ret
    24f4:	04000593          	li	a1,64
    24f8:	8526                	mv	a0,s1
    24fa:	35fd                	jal	23e8 <USART_GetFlagStatus>
    24fc:	dd65                	beqz	a0,24f4 <_write+0x2e>
    24fe:	008987b3          	add	a5,s3,s0
    2502:	00078583          	lb	a1,0(a5) # c0000 <_data_lma+0xb40e4>
    2506:	8526                	mv	a0,s1
    2508:	0405                	addi	s0,s0,1
    250a:	05c2                	slli	a1,a1,0x10
    250c:	81c1                	srli	a1,a1,0x10
    250e:	3dc1                	jal	23de <USART_SendData>
    2510:	bfc1                	j	24e0 <_write+0x1a>

00002512 <_sbrk>:
    2512:	80c18713          	addi	a4,gp,-2036 # 200000ac <curbrk.5231>
    2516:	431c                	lw	a5,0(a4)
    2518:	200136b7          	lui	a3,0x20013
    251c:	17c68693          	addi	a3,a3,380 # 2001317c <_ebss>
    2520:	953e                	add	a0,a0,a5
    2522:	00d56b63          	bltu	a0,a3,2538 <_sbrk+0x26>
    2526:	200206b7          	lui	a3,0x20020
    252a:	80068693          	addi	a3,a3,-2048 # 2001f800 <_heap_end>
    252e:	00a6e563          	bltu	a3,a0,2538 <_sbrk+0x26>
    2532:	c308                	sw	a0,0(a4)
    2534:	853e                	mv	a0,a5
    2536:	8082                	ret
    2538:	57fd                	li	a5,-1
    253a:	bfed                	j	2534 <_sbrk+0x22>

0000253c <environment_noise>:
    253c:	0f000713          	li	a4,240
    2540:	02e5f7b3          	remu	a5,a1,a4
    2544:	e7c5                	bnez	a5,25ec <environment_noise+0xb0>
    2546:	1141                	addi	sp,sp,-16
    2548:	02e5d833          	divu	a6,a1,a4
    254c:	c606                	sw	ra,12(sp)
    254e:	c422                	sw	s0,8(sp)
    2550:	4701                	li	a4,0
    2552:	04b76c63          	bltu	a4,a1,25aa <environment_noise+0x6e>
    2556:	4e01                	li	t3,0
    2558:	4701                	li	a4,0
    255a:	4881                	li	a7,0
    255c:	0f000293          	li	t0,240
    2560:	02b7d7b3          	divu	a5,a5,a1
    2564:	04b8eb63          	bltu	a7,a1,25ba <environment_noise+0x7e>
    2568:	0a000513          	li	a0,160
    256c:	c21c                	sw	a5,0(a2)
    256e:	8432                	mv	s0,a2
    2570:	02a5d533          	divu	a0,a1,a0
    2574:	03075733          	divu	a4,a4,a6
    2578:	02ae5533          	divu	a0,t3,a0
    257c:	00e61423          	sh	a4,8(a2) # 40021008 <_eusrstack+0x20001008>
    2580:	7e0020ef          	jal	ra,4d60 <__floatunsidf>
    2584:	0000a7b7          	lui	a5,0xa
    2588:	d487a603          	lw	a2,-696(a5) # 9d48 <chinese_char+0x42c>
    258c:	d4c7a683          	lw	a3,-692(a5)
    2590:	650010ef          	jal	ra,3be0 <__muldf3>
    2594:	72e020ef          	jal	ra,4cc2 <__fixunsdfsi>
    2598:	02000793          	li	a5,32
    259c:	c048                	sw	a0,4(s0)
    259e:	00f41523          	sh	a5,10(s0)
    25a2:	40b2                	lw	ra,12(sp)
    25a4:	4422                	lw	s0,8(sp)
    25a6:	0141                	addi	sp,sp,16
    25a8:	8082                	ret
    25aa:	00171693          	slli	a3,a4,0x1
    25ae:	96aa                	add	a3,a3,a0
    25b0:	0006d683          	lhu	a3,0(a3)
    25b4:	0705                	addi	a4,a4,1
    25b6:	97b6                	add	a5,a5,a3
    25b8:	bf69                	j	2552 <environment_noise+0x16>
    25ba:	00189693          	slli	a3,a7,0x1
    25be:	96aa                	add	a3,a3,a0
    25c0:	4e81                	li	t4,0
    25c2:	4f01                	li	t5,0
    25c4:	0006df83          	lhu	t6,0(a3)
    25c8:	41f78333          	sub	t1,a5,t6
    25cc:	01f7f463          	bgeu	a5,t6,25d4 <environment_noise+0x98>
    25d0:	40ff8333          	sub	t1,t6,a5
    25d4:	006ef363          	bgeu	t4,t1,25da <environment_noise+0x9e>
    25d8:	8e9a                	mv	t4,t1
    25da:	0f05                	addi	t5,t5,1
    25dc:	9e1a                	add	t3,t3,t1
    25de:	0689                	addi	a3,a3,2
    25e0:	fe5f12e3          	bne	t5,t0,25c4 <environment_noise+0x88>
    25e4:	9776                	add	a4,a4,t4
    25e6:	0f088893          	addi	a7,a7,240
    25ea:	bfad                	j	2564 <environment_noise+0x28>
    25ec:	8082                	ret

000025ee <active_segment_detect>:
    25ee:	0006a303          	lw	t1,0(a3)
    25f2:	0086de03          	lhu	t3,8(a3)
    25f6:	7179                	addi	sp,sp,-48
    25f8:	d426                	sw	s1,40(sp)
    25fa:	d24a                	sw	s2,36(sp)
    25fc:	d04e                	sw	s3,32(sp)
    25fe:	ce52                	sw	s4,28(sp)
    2600:	cc56                	sw	s5,24(sp)
    2602:	ca5a                	sw	s6,20(sp)
    2604:	c85e                	sw	s7,16(sp)
    2606:	01c304b3          	add	s1,t1,t3
    260a:	d622                	sw	s0,44(sp)
    260c:	c662                	sw	s8,12(sp)
    260e:	c466                	sw	s9,8(sp)
    2610:	41c30e33          	sub	t3,t1,t3
    2614:	00062023          	sw	zero,0(a2)
    2618:	00062223          	sw	zero,4(a2)
    261c:	00062423          	sw	zero,8(a2)
    2620:	00062623          	sw	zero,12(a2)
    2624:	00062823          	sw	zero,16(a2)
    2628:	00062a23          	sw	zero,20(a2)
    262c:	4881                	li	a7,0
    262e:	4281                	li	t0,0
    2630:	4801                	li	a6,0
    2632:	4701                	li	a4,0
    2634:	4781                	li	a5,0
    2636:	4f01                	li	t5,0
    2638:	f6058593          	addi	a1,a1,-160
    263c:	0a000a13          	li	s4,160
    2640:	4909                	li	s2,2
    2642:	4385                	li	t2,1
    2644:	09f00a93          	li	s5,159
    2648:	498d                	li	s3,3
    264a:	4b1d                	li	s6,7
    264c:	4ba9                	li	s7,10
    264e:	0cb2f563          	bgeu	t0,a1,2718 <active_segment_detect+0x12a>
    2652:	8faa                	mv	t6,a0
    2654:	4401                	li	s0,0
    2656:	4e81                	li	t4,0
    2658:	000fdc03          	lhu	s8,0(t6)
    265c:	41830cb3          	sub	s9,t1,s8
    2660:	01837463          	bgeu	t1,s8,2668 <active_segment_detect+0x7a>
    2664:	406c0cb3          	sub	s9,s8,t1
    2668:	0e85                	addi	t4,t4,1
    266a:	9466                	add	s0,s0,s9
    266c:	0f89                	addi	t6,t6,2
    266e:	ff4e95e3          	bne	t4,s4,2658 <active_segment_detect+0x6a>
    2672:	8faa                	mv	t6,a0
    2674:	4e81                	li	t4,0
    2676:	4c01                	li	s8,0
    2678:	000fdc83          	lhu	s9,0(t6)
    267c:	009cfd63          	bgeu	s9,s1,2696 <active_segment_detect+0xa8>
    2680:	01ccf363          	bgeu	s9,t3,2686 <active_segment_detect+0x98>
    2684:	4f05                	li	t5,1
    2686:	002fdc83          	lhu	s9,2(t6)
    268a:	009ce863          	bltu	s9,s1,269a <active_segment_detect+0xac>
    268e:	007f1a63          	bne	t5,t2,26a2 <active_segment_detect+0xb4>
    2692:	0e85                	addi	t4,t4,1
    2694:	a039                	j	26a2 <active_segment_detect+0xb4>
    2696:	4f09                	li	t5,2
    2698:	b7fd                	j	2686 <active_segment_detect+0x98>
    269a:	01ccf463          	bgeu	s9,t3,26a2 <active_segment_detect+0xb4>
    269e:	ff2f0ae3          	beq	t5,s2,2692 <active_segment_detect+0xa4>
    26a2:	0c05                	addi	s8,s8,1
    26a4:	0f89                	addi	t6,t6,2
    26a6:	fd5c19e3          	bne	s8,s5,2678 <active_segment_detect+0x8a>
    26aa:	0046af83          	lw	t6,4(a3)
    26ae:	008fe663          	bltu	t6,s0,26ba <active_segment_detect+0xcc>
    26b2:	00a6df83          	lhu	t6,10(a3)
    26b6:	03dffb63          	bgeu	t6,t4,26ec <active_segment_detect+0xfe>
    26ba:	c3c1                	beqz	a5,273a <active_segment_detect+0x14c>
    26bc:	02779463          	bne	a5,t2,26e4 <active_segment_detect+0xf6>
    26c0:	0705                	addi	a4,a4,1
    26c2:	0742                	slli	a4,a4,0x10
    26c4:	8341                	srli	a4,a4,0x10
    26c6:	00eb7a63          	bgeu	s6,a4,26da <active_segment_detect+0xec>
    26ca:	00389793          	slli	a5,a7,0x3
    26ce:	ba050713          	addi	a4,a0,-1120 # 3ba0 <__divdf3+0x7aa>
    26d2:	97b2                	add	a5,a5,a2
    26d4:	c398                	sw	a4,0(a5)
    26d6:	4701                	li	a4,0
    26d8:	4789                	li	a5,2
    26da:	05028293          	addi	t0,t0,80
    26de:	0a050513          	addi	a0,a0,160
    26e2:	b7b5                	j	264e <active_segment_detect+0x60>
    26e4:	ff379be3          	bne	a5,s3,26da <active_segment_detect+0xec>
    26e8:	4801                	li	a6,0
    26ea:	b7fd                	j	26d8 <active_segment_detect+0xea>
    26ec:	05278a63          	beq	a5,s2,2740 <active_segment_detect+0x152>
    26f0:	05379063          	bne	a5,s3,2730 <active_segment_detect+0x142>
    26f4:	0805                	addi	a6,a6,1
    26f6:	0842                	slli	a6,a6,0x10
    26f8:	01085813          	srli	a6,a6,0x10
    26fc:	fd0bffe3          	bgeu	s7,a6,26da <active_segment_detect+0xec>
    2700:	00389813          	slli	a6,a7,0x3
    2704:	9832                	add	a6,a6,a2
    2706:	a6050e93          	addi	t4,a0,-1440
    270a:	0885                	addi	a7,a7,1
    270c:	01d82223          	sw	t4,4(a6)
    2710:	0ff8f893          	andi	a7,a7,255
    2714:	02f89963          	bne	a7,a5,2746 <active_segment_detect+0x158>
    2718:	5432                	lw	s0,44(sp)
    271a:	54a2                	lw	s1,40(sp)
    271c:	5912                	lw	s2,36(sp)
    271e:	5982                	lw	s3,32(sp)
    2720:	4a72                	lw	s4,28(sp)
    2722:	4ae2                	lw	s5,24(sp)
    2724:	4b52                	lw	s6,20(sp)
    2726:	4bc2                	lw	s7,16(sp)
    2728:	4c32                	lw	s8,12(sp)
    272a:	4ca2                	lw	s9,8(sp)
    272c:	6145                	addi	sp,sp,48
    272e:	8082                	ret
    2730:	fa7795e3          	bne	a5,t2,26da <active_segment_detect+0xec>
    2734:	4701                	li	a4,0
    2736:	4781                	li	a5,0
    2738:	b74d                	j	26da <active_segment_detect+0xec>
    273a:	4705                	li	a4,1
    273c:	4785                	li	a5,1
    273e:	bf71                	j	26da <active_segment_detect+0xec>
    2740:	4805                	li	a6,1
    2742:	478d                	li	a5,3
    2744:	bf59                	j	26da <active_segment_detect+0xec>
    2746:	4801                	li	a6,0
    2748:	b7fd                	j	2736 <active_segment_detect+0x148>

0000274a <cr2_fft>:
    274a:	0015de13          	srli	t3,a1,0x1
    274e:	872e                	mv	a4,a1
    2750:	4305                	li	t1,1
    2752:	4785                	li	a5,1
    2754:	8305                	srli	a4,a4,0x1
    2756:	02f71a63          	bne	a4,a5,278a <cr2_fft+0x40>
    275a:	ffe58893          	addi	a7,a1,-2
    275e:	08c2                	slli	a7,a7,0x10
    2760:	0108d893          	srli	a7,a7,0x10
    2764:	87f2                	mv	a5,t3
    2766:	4685                	li	a3,1
    2768:	02d8f663          	bgeu	a7,a3,2794 <cr2_fft+0x4a>
    276c:	fff30613          	addi	a2,t1,-1
    2770:	6ea9                	lui	t4,0xa
    2772:	6f2d                	lui	t5,0xb
    2774:	0ff67613          	andi	a2,a2,255
    2778:	0ff00f93          	li	t6,255
    277c:	d60e8e93          	addi	t4,t4,-672 # 9d60 <cos_tab>
    2780:	c60f0f13          	addi	t5,t5,-928 # ac60 <sin_tab>
    2784:	04e37d63          	bgeu	t1,a4,27de <cr2_fft+0x94>
    2788:	8082                	ret
    278a:	0305                	addi	t1,t1,1
    278c:	0342                	slli	t1,t1,0x10
    278e:	01035313          	srli	t1,t1,0x10
    2792:	b7c9                	j	2754 <cr2_fft+0xa>
    2794:	02f6f663          	bgeu	a3,a5,27c0 <cr2_fft+0x76>
    2798:	00369613          	slli	a2,a3,0x3
    279c:	962a                	add	a2,a2,a0
    279e:	00062e83          	lw	t4,0(a2)
    27a2:	00379813          	slli	a6,a5,0x3
    27a6:	982a                	add	a6,a6,a0
    27a8:	00082707          	flw	fa4,0(a6)
    27ac:	01d82023          	sw	t4,0(a6)
    27b0:	00462e83          	lw	t4,4(a2)
    27b4:	00482787          	flw	fa5,4(a6)
    27b8:	01d82223          	sw	t4,4(a6)
    27bc:	e218                	fsw	fa4,0(a2)
    27be:	e25c                	fsw	fa5,4(a2)
    27c0:	8672                	mv	a2,t3
    27c2:	00c7f963          	bgeu	a5,a2,27d4 <cr2_fft+0x8a>
    27c6:	97b2                	add	a5,a5,a2
    27c8:	0685                	addi	a3,a3,1
    27ca:	07c2                	slli	a5,a5,0x10
    27cc:	06c2                	slli	a3,a3,0x10
    27ce:	83c1                	srli	a5,a5,0x10
    27d0:	82c1                	srli	a3,a3,0x10
    27d2:	bf59                	j	2768 <cr2_fft+0x1e>
    27d4:	8f91                	sub	a5,a5,a2
    27d6:	07c2                	slli	a5,a5,0x10
    27d8:	83c1                	srli	a5,a5,0x10
    27da:	8205                	srli	a2,a2,0x1
    27dc:	b7dd                	j	27c2 <cr2_fft+0x78>
    27de:	0ff77793          	andi	a5,a4,255
    27e2:	4e05                	li	t3,1
    27e4:	17fd                	addi	a5,a5,-1
    27e6:	0ff7f793          	andi	a5,a5,255
    27ea:	03f79163          	bne	a5,t6,280c <cr2_fft+0xc2>
    27ee:	0e42                	slli	t3,t3,0x10
    27f0:	010e5e13          	srli	t3,t3,0x10
    27f4:	001e5293          	srli	t0,t3,0x1
    27f8:	4801                	li	a6,0
    27fa:	04581363          	bne	a6,t0,2840 <cr2_fft+0xf6>
    27fe:	0705                	addi	a4,a4,1
    2800:	0742                	slli	a4,a4,0x10
    2802:	167d                	addi	a2,a2,-1
    2804:	8341                	srli	a4,a4,0x10
    2806:	0ff67613          	andi	a2,a2,255
    280a:	bfad                	j	2784 <cr2_fft+0x3a>
    280c:	0e06                	slli	t3,t3,0x1
    280e:	bfd9                	j	27e4 <cr2_fft+0x9a>
    2810:	0786                	slli	a5,a5,0x1
    2812:	16fd                	addi	a3,a3,-1
    2814:	0ff6f693          	andi	a3,a3,255
    2818:	fff69ce3          	bne	a3,t6,2810 <cr2_fft+0xc6>
    281c:	02f807b3          	mul	a5,a6,a5
    2820:	88c2                	mv	a7,a6
    2822:	07c2                	slli	a5,a5,0x10
    2824:	83c1                	srli	a5,a5,0x10
    2826:	078a                	slli	a5,a5,0x2
    2828:	01d786b3          	add	a3,a5,t4
    282c:	97fa                	add	a5,a5,t5
    282e:	6290                	flw	fa2,0(a3)
    2830:	638c                	flw	fa1,0(a5)
    2832:	00b8ea63          	bltu	a7,a1,2846 <cr2_fft+0xfc>
    2836:	0805                	addi	a6,a6,1
    2838:	0842                	slli	a6,a6,0x10
    283a:	01085813          	srli	a6,a6,0x10
    283e:	bf75                	j	27fa <cr2_fft+0xb0>
    2840:	86b2                	mv	a3,a2
    2842:	4785                	li	a5,1
    2844:	b7f9                	j	2812 <cr2_fft+0xc8>
    2846:	005887b3          	add	a5,a7,t0
    284a:	07c2                	slli	a5,a5,0x10
    284c:	83c1                	srli	a5,a5,0x10
    284e:	078e                	slli	a5,a5,0x3
    2850:	97aa                	add	a5,a5,a0
    2852:	63d4                	flw	fa3,4(a5)
    2854:	639c                	flw	fa5,0(a5)
    2856:	00389693          	slli	a3,a7,0x3
    285a:	10d5f753          	fmul.s	fa4,fa1,fa3
    285e:	10d676d3          	fmul.s	fa3,fa2,fa3
    2862:	96aa                	add	a3,a3,a0
    2864:	98f2                	add	a7,a7,t3
    2866:	08c2                	slli	a7,a7,0x10
    2868:	70f67747          	fmsub.s	fa4,fa2,fa5,fa4
    286c:	68f5f7c3          	fmadd.s	fa5,fa1,fa5,fa3
    2870:	6294                	flw	fa3,0(a3)
    2872:	0108d893          	srli	a7,a7,0x10
    2876:	08e6f6d3          	fsub.s	fa3,fa3,fa4
    287a:	e394                	fsw	fa3,0(a5)
    287c:	62d4                	flw	fa3,4(a3)
    287e:	08f6f6d3          	fsub.s	fa3,fa3,fa5
    2882:	e3d4                	fsw	fa3,4(a5)
    2884:	6294                	flw	fa3,0(a3)
    2886:	00e6f753          	fadd.s	fa4,fa3,fa4
    288a:	e298                	fsw	fa4,0(a3)
    288c:	62d8                	flw	fa4,4(a3)
    288e:	00f777d3          	fadd.s	fa5,fa4,fa5
    2892:	e2dc                	fsw	fa5,4(a3)
    2894:	bf79                	j	2832 <cr2_fft+0xe8>

00002896 <fft.part.0>:
    2896:	1141                	addi	sp,sp,-16
    2898:	c422                	sw	s0,8(sp)
    289a:	20011437          	lui	s0,0x20011
    289e:	c226                	sw	s1,4(sp)
    28a0:	c606                	sw	ra,12(sp)
    28a2:	17840493          	addi	s1,s0,376 # 20011178 <fft_out>
    28a6:	17840693          	addi	a3,s0,376
    28aa:	4701                	li	a4,0
    28ac:	17840793          	addi	a5,s0,376
    28b0:	01071613          	slli	a2,a4,0x10
    28b4:	8241                	srli	a2,a2,0x10
    28b6:	04b66263          	bltu	a2,a1,28fa <fft.part.0+0x64>
    28ba:	00359713          	slli	a4,a1,0x3
    28be:	97ba                	add	a5,a5,a4
    28c0:	40000713          	li	a4,1024
    28c4:	04e59563          	bne	a1,a4,290e <fft.part.0+0x78>
    28c8:	40000593          	li	a1,1024
    28cc:	17840513          	addi	a0,s0,376
    28d0:	3dad                	jal	274a <cr2_fft>
    28d2:	6785                	lui	a5,0x1
    28d4:	97a6                	add	a5,a5,s1
    28d6:	60d8                	flw	fa4,4(s1)
    28d8:	609c                	flw	fa5,0(s1)
    28da:	04a1                	addi	s1,s1,8
    28dc:	10e77753          	fmul.s	fa4,fa4,fa4
    28e0:	70f7f7c3          	fmadd.s	fa5,fa5,fa5,fa4
    28e4:	fef4ac27          	fsw	fa5,-8(s1)
    28e8:	fef497e3          	bne	s1,a5,28d6 <fft.part.0+0x40>
    28ec:	17840513          	addi	a0,s0,376
    28f0:	40b2                	lw	ra,12(sp)
    28f2:	4422                	lw	s0,8(sp)
    28f4:	4492                	lw	s1,4(sp)
    28f6:	0141                	addi	sp,sp,16
    28f8:	8082                	ret
    28fa:	00271613          	slli	a2,a4,0x2
    28fe:	962a                	add	a2,a2,a0
    2900:	621c                	flw	fa5,0(a2)
    2902:	0705                	addi	a4,a4,1
    2904:	0006a223          	sw	zero,4(a3)
    2908:	e29c                	fsw	fa5,0(a3)
    290a:	06a1                	addi	a3,a3,8
    290c:	b755                	j	28b0 <fft.part.0+0x1a>
    290e:	0585                	addi	a1,a1,1
    2910:	05c2                	slli	a1,a1,0x10
    2912:	0007a023          	sw	zero,0(a5) # 1000 <lcd_show_chinese+0x30>
    2916:	0007a223          	sw	zero,4(a5)
    291a:	81c1                	srli	a1,a1,0x10
    291c:	07a1                	addi	a5,a5,8
    291e:	b75d                	j	28c4 <fft.part.0+0x2e>

00002920 <calc_mfcc_chara_para>:
    2920:	cc010113          	addi	sp,sp,-832
    2924:	31912a23          	sw	s9,788(sp)
    2928:	415c                	lw	a5,4(a0)
    292a:	00052c83          	lw	s9,0(a0)
    292e:	05000713          	li	a4,80
    2932:	32112e23          	sw	ra,828(sp)
    2936:	419787b3          	sub	a5,a5,s9
    293a:	8385                	srli	a5,a5,0x1
    293c:	f6078793          	addi	a5,a5,-160
    2940:	02e7d7b3          	divu	a5,a5,a4
    2944:	32812c23          	sw	s0,824(sp)
    2948:	32912a23          	sw	s1,820(sp)
    294c:	33212823          	sw	s2,816(sp)
    2950:	33312623          	sw	s3,812(sp)
    2954:	33412423          	sw	s4,808(sp)
    2958:	33512223          	sw	s5,804(sp)
    295c:	33612023          	sw	s6,800(sp)
    2960:	31712e23          	sw	s7,796(sp)
    2964:	31812c23          	sw	s8,792(sp)
    2968:	31a12823          	sw	s10,784(sp)
    296c:	31b12623          	sw	s11,780(sp)
    2970:	2e812e27          	fsw	fs0,764(sp)
    2974:	2e912c27          	fsw	fs1,760(sp)
    2978:	07700713          	li	a4,119
    297c:	0785                	addi	a5,a5,1
    297e:	07c2                	slli	a5,a5,0x10
    2980:	83c1                	srli	a5,a5,0x10
    2982:	04f77763          	bgeu	a4,a5,29d0 <calc_mfcc_chara_para+0xb0>
    2986:	00058123          	sb	zero,2(a1)
    298a:	000581a3          	sb	zero,3(a1)
    298e:	33c12083          	lw	ra,828(sp)
    2992:	33812403          	lw	s0,824(sp)
    2996:	33412483          	lw	s1,820(sp)
    299a:	33012903          	lw	s2,816(sp)
    299e:	32c12983          	lw	s3,812(sp)
    29a2:	32812a03          	lw	s4,808(sp)
    29a6:	32412a83          	lw	s5,804(sp)
    29aa:	32012b03          	lw	s6,800(sp)
    29ae:	31c12b83          	lw	s7,796(sp)
    29b2:	31812c03          	lw	s8,792(sp)
    29b6:	31412c83          	lw	s9,788(sp)
    29ba:	31012d03          	lw	s10,784(sp)
    29be:	30c12d83          	lw	s11,780(sp)
    29c2:	2fc12407          	flw	fs0,764(sp)
    29c6:	2f812487          	flw	fs1,760(sp)
    29ca:	34010113          	addi	sp,sp,832
    29ce:	8082                	ret
    29d0:	0000abb7          	lui	s7,0xa
    29d4:	d50ba407          	flw	fs0,-688(s7) # 9d50 <chinese_char+0x434>
    29d8:	0000a7b7          	lui	a5,0xa
    29dc:	d5c7a803          	lw	a6,-676(a5) # 9d5c <chinese_char+0x440>
    29e0:	d587a783          	lw	a5,-680(a5)
    29e4:	00062c03          	lw	s8,0(a2)
    29e8:	208404d3          	fmv.s	fs1,fs0
    29ec:	892e                	mv	s2,a1
    29ee:	89aa                	mv	s3,a0
    29f0:	03458b13          	addi	s6,a1,52
    29f4:	4481                	li	s1,0
    29f6:	c43e                	sw	a5,8(sp)
    29f8:	c642                	sw	a6,12(sp)
    29fa:	0049a783          	lw	a5,4(s3)
    29fe:	ec078793          	addi	a5,a5,-320
    2a02:	0197f863          	bgeu	a5,s9,2a12 <calc_mfcc_chara_para+0xf2>
    2a06:	00990123          	sb	s1,2(s2)
    2a0a:	80a1                	srli	s1,s1,0x8
    2a0c:	009901a3          	sb	s1,3(s2)
    2a10:	bfbd                	j	298e <calc_mfcc_chara_para+0x6e>
    2a12:	ffec8a13          	addi	s4,s9,-2
    2a16:	4401                	li	s0,0
    2a18:	002a5683          	lhu	a3,2(s4)
    2a1c:	189c                	addi	a5,sp,112
    2a1e:	00878ab3          	add	s5,a5,s0
    2a22:	418686b3          	sub	a3,a3,s8
    2a26:	d006f553          	fcvt.s.w	fa0,a3
    2a2a:	0a09                	addi	s4,s4,2
    2a2c:	39a020ef          	jal	ra,4dc6 <__extendsfdf2>
    2a30:	ffea5683          	lhu	a3,-2(s4)
    2a34:	8d2a                	mv	s10,a0
    2a36:	8dae                	mv	s11,a1
    2a38:	418686b3          	sub	a3,a3,s8
    2a3c:	d006f553          	fcvt.s.w	fa0,a3
    2a40:	386020ef          	jal	ra,4dc6 <__extendsfdf2>
    2a44:	4622                	lw	a2,8(sp)
    2a46:	46b2                	lw	a3,12(sp)
    2a48:	198010ef          	jal	ra,3be0 <__muldf3>
    2a4c:	86ae                	mv	a3,a1
    2a4e:	862a                	mv	a2,a0
    2a50:	85ee                	mv	a1,s11
    2a52:	856a                	mv	a0,s10
    2a54:	7e2010ef          	jal	ra,4236 <__subdf3>
    2a58:	456020ef          	jal	ra,4eae <__truncdfsf2>
    2a5c:	67ad                	lui	a5,0xb
    2a5e:	9e078713          	addi	a4,a5,-1568 # a9e0 <hamm>
    2a62:	008706b3          	add	a3,a4,s0
    2a66:	629c                	flw	fa5,0(a3)
    2a68:	0411                	addi	s0,s0,4
    2a6a:	28000813          	li	a6,640
    2a6e:	10f57553          	fmul.s	fa0,fa0,fa5
    2a72:	00aaa027          	fsw	fa0,0(s5)
    2a76:	fb0411e3          	bne	s0,a6,2a18 <calc_mfcc_chara_para+0xf8>
    2a7a:	0a000593          	li	a1,160
    2a7e:	1888                	addi	a0,sp,112
    2a80:	3d19                	jal	2896 <fft.part.0>
    2a82:	f0000753          	fmv.w.x	fa4,zero
    2a86:	68ad                	lui	a7,0xb
    2a88:	49088693          	addi	a3,a7,1168 # b490 <tri_even>
    2a8c:	0b050613          	addi	a2,a0,176
    2a90:	872a                	mv	a4,a0
    2a92:	49088893          	addi	a7,a7,1168
    2a96:	0006d783          	lhu	a5,0(a3)
    2a9a:	6314                	flw	fa3,0(a4)
    2a9c:	0721                	addi	a4,a4,8
    2a9e:	d017f7d3          	fcvt.s.wu	fa5,a5
    2aa2:	0689                	addi	a3,a3,2
    2aa4:	10d7f7d3          	fmul.s	fa5,fa5,fa3
    2aa8:	1887f7d3          	fdiv.s	fa5,fa5,fs0
    2aac:	00f77753          	fadd.s	fa4,fa4,fa5
    2ab0:	fec713e3          	bne	a4,a2,2a96 <calc_mfcc_chara_para+0x176>
    2ab4:	0800                	addi	s0,sp,16
    2ab6:	67ad                	lui	a5,0xb
    2ab8:	46078613          	addi	a2,a5,1120 # b460 <tri_cen>
    2abc:	e83a                	fsw	fa4,16(sp)
    2abe:	10ac                	addi	a1,sp,104
    2ac0:	46078793          	addi	a5,a5,1120
    2ac4:	8822                	mv	a6,s0
    2ac6:	8d22                	mv	s10,s0
    2ac8:	0027d703          	lhu	a4,2(a5)
    2acc:	0067de83          	lhu	t4,6(a5)
    2ad0:	00082423          	sw	zero,8(a6)
    2ad4:	00371e13          	slli	t3,a4,0x3
    2ad8:	00171313          	slli	t1,a4,0x1
    2adc:	9e2a                	add	t3,t3,a0
    2ade:	9346                	add	t1,t1,a7
    2ae0:	0dd76463          	bltu	a4,t4,2ba8 <calc_mfcc_chara_para+0x288>
    2ae4:	0821                	addi	a6,a6,8
    2ae6:	0791                	addi	a5,a5,4
    2ae8:	feb810e3          	bne	a6,a1,2ac8 <calc_mfcc_chara_para+0x1a8>
    2aec:	d50ba687          	flw	fa3,-688(s7)
    2af0:	66b1                	lui	a3,0xc
    2af2:	8822                	mv	a6,s0
    2af4:	89068693          	addi	a3,a3,-1904 # b890 <tri_odd>
    2af8:	00065783          	lhu	a5,0(a2)
    2afc:	00465e03          	lhu	t3,4(a2)
    2b00:	00082223          	sw	zero,4(a6)
    2b04:	00379313          	slli	t1,a5,0x3
    2b08:	00179893          	slli	a7,a5,0x1
    2b0c:	932a                	add	t1,t1,a0
    2b0e:	98b6                	add	a7,a7,a3
    2b10:	0dc7e263          	bltu	a5,t3,2bd4 <calc_mfcc_chara_para+0x2b4>
    2b14:	0821                	addi	a6,a6,8
    2b16:	0611                	addi	a2,a2,4
    2b18:	feb810e3          	bne	a6,a1,2af8 <calc_mfcc_chara_para+0x1d8>
    2b1c:	6785                	lui	a5,0x1
    2b1e:	f0000753          	fmv.w.x	fa4,zero
    2b22:	d50ba687          	flw	fa3,-688(s7)
    2b26:	d5878713          	addi	a4,a5,-680 # d58 <lcd_show_char+0x2>
    2b2a:	972a                	add	a4,a4,a0
    2b2c:	953e                	add	a0,a0,a5
    2b2e:	3566d783          	lhu	a5,854(a3)
    2b32:	6310                	flw	fa2,0(a4)
    2b34:	0721                	addi	a4,a4,8
    2b36:	d017f7d3          	fcvt.s.wu	fa5,a5
    2b3a:	0689                	addi	a3,a3,2
    2b3c:	10c7f7d3          	fmul.s	fa5,fa5,fa2
    2b40:	18d7f7d3          	fdiv.s	fa5,fa5,fa3
    2b44:	00f77753          	fadd.s	fa4,fa4,fa5
    2b48:	fee513e3          	bne	a0,a4,2b2e <calc_mfcc_chara_para+0x20e>
    2b4c:	f6ba                	fsw	fa4,108(sp)
    2b4e:	06040d93          	addi	s11,s0,96
    2b52:	6008                	flw	fa0,0(s0)
    2b54:	0411                	addi	s0,s0,4
    2b56:	2919                	jal	2f6c <logf>
    2b58:	fea42e27          	fsw	fa0,-4(s0)
    2b5c:	fe8d9be3          	bne	s11,s0,2b52 <calc_mfcc_chara_para+0x232>
    2b60:	6729                	lui	a4,0xa
    2b62:	fd0b0793          	addi	a5,s6,-48
    2b66:	56070713          	addi	a4,a4,1376 # a560 <dct_arg>
    2b6a:	06000613          	li	a2,96
    2b6e:	0007a023          	sw	zero,0(a5)
    2b72:	4681                	li	a3,0
    2b74:	00dd0533          	add	a0,s10,a3
    2b78:	00d705b3          	add	a1,a4,a3
    2b7c:	6194                	flw	fa3,0(a1)
    2b7e:	6398                	flw	fa4,0(a5)
    2b80:	611c                	flw	fa5,0(a0)
    2b82:	0691                	addi	a3,a3,4
    2b84:	70d7f7c3          	fmadd.s	fa5,fa5,fa3,fa4
    2b88:	e39c                	fsw	fa5,0(a5)
    2b8a:	fec695e3          	bne	a3,a2,2b74 <calc_mfcc_chara_para+0x254>
    2b8e:	0791                	addi	a5,a5,4
    2b90:	06070713          	addi	a4,a4,96
    2b94:	fd679de3          	bne	a5,s6,2b6e <calc_mfcc_chara_para+0x24e>
    2b98:	0485                	addi	s1,s1,1
    2b9a:	04c2                	slli	s1,s1,0x10
    2b9c:	80c1                	srli	s1,s1,0x10
    2b9e:	0a0c8c93          	addi	s9,s9,160
    2ba2:	030b0b13          	addi	s6,s6,48
    2ba6:	bd91                	j	29fa <calc_mfcc_chara_para+0xda>
    2ba8:	00035683          	lhu	a3,0(t1)
    2bac:	000e2707          	flw	fa4,0(t3)
    2bb0:	0705                	addi	a4,a4,1
    2bb2:	d016f7d3          	fcvt.s.wu	fa5,a3
    2bb6:	0742                	slli	a4,a4,0x10
    2bb8:	8341                	srli	a4,a4,0x10
    2bba:	10e7f7d3          	fmul.s	fa5,fa5,fa4
    2bbe:	00882707          	flw	fa4,8(a6)
    2bc2:	0e21                	addi	t3,t3,8
    2bc4:	0309                	addi	t1,t1,2
    2bc6:	1897f7d3          	fdiv.s	fa5,fa5,fs1
    2bca:	00f777d3          	fadd.s	fa5,fa4,fa5
    2bce:	00f82427          	fsw	fa5,8(a6)
    2bd2:	b739                	j	2ae0 <calc_mfcc_chara_para+0x1c0>
    2bd4:	0008d703          	lhu	a4,0(a7)
    2bd8:	00032707          	flw	fa4,0(t1)
    2bdc:	0785                	addi	a5,a5,1
    2bde:	d01777d3          	fcvt.s.wu	fa5,a4
    2be2:	07c2                	slli	a5,a5,0x10
    2be4:	83c1                	srli	a5,a5,0x10
    2be6:	10e7f7d3          	fmul.s	fa5,fa5,fa4
    2bea:	00482707          	flw	fa4,4(a6)
    2bee:	0321                	addi	t1,t1,8
    2bf0:	0889                	addi	a7,a7,2
    2bf2:	18d7f7d3          	fdiv.s	fa5,fa5,fa3
    2bf6:	00f777d3          	fadd.s	fa5,fa4,fa5
    2bfa:	00f82227          	fsw	fa5,4(a6)
    2bfe:	bf09                	j	2b10 <calc_mfcc_chara_para+0x1f0>

00002c00 <save_mfcc_chara_para>:
    2c00:	7169                	addi	sp,sp,-304
    2c02:	12912223          	sw	s1,292(sp)
    2c06:	13212023          	sw	s2,288(sp)
    2c0a:	84aa                	mv	s1,a0
    2c0c:	892e                	mv	s2,a1
    2c0e:	10000613          	li	a2,256
    2c12:	4581                	li	a1,0
    2c14:	850a                	mv	a0,sp
    2c16:	12112623          	sw	ra,300(sp)
    2c1a:	12812423          	sw	s0,296(sp)
    2c1e:	11312e23          	sw	s3,284(sp)
    2c22:	11412c23          	sw	s4,280(sp)
    2c26:	11512a23          	sw	s5,276(sp)
    2c2a:	11612823          	sw	s6,272(sp)
    2c2e:	11712623          	sw	s7,268(sp)
    2c32:	11812423          	sw	s8,264(sp)
    2c36:	dcafd0ef          	jal	ra,200 <memset>
    2c3a:	0ff97793          	andi	a5,s2,255
    2c3e:	4505                	li	a0,1
    2c40:	efd9                	bnez	a5,2cde <save_mfcc_chara_para+0xde>
    2c42:	f7fa47b7          	lui	a5,0xf7fa4
    2c46:	80078793          	addi	a5,a5,-2048 # f7fa3800 <_eusrstack+0xd7f83800>
    2c4a:	97ca                	add	a5,a5,s2
    2c4c:	6749                	lui	a4,0x12
    2c4e:	4505                	li	a0,1
    2c50:	08f76763          	bltu	a4,a5,2cde <save_mfcc_chara_para+0xde>
    2c54:	0034c403          	lbu	s0,3(s1)
    2c58:	0024c783          	lbu	a5,2(s1)
    2c5c:	6a09                	lui	s4,0x2
    2c5e:	0422                	slli	s0,s0,0x8
    2c60:	8c5d                	or	s0,s0,a5
    2c62:	03000793          	li	a5,48
    2c66:	02f40433          	mul	s0,s0,a5
    2c6a:	9a4a                	add	s4,s4,s2
    2c6c:	fa7fe0ef          	jal	ra,1c12 <FLASH_Unlock_Fast>
    2c70:	89ca                	mv	s3,s2
    2c72:	0411                	addi	s0,s0,4
    2c74:	854e                	mv	a0,s3
    2c76:	10098993          	addi	s3,s3,256
    2c7a:	fb9fe0ef          	jal	ra,1c32 <FLASH_ErasePage_Fast>
    2c7e:	ff499be3          	bne	s3,s4,2c74 <save_mfcc_chara_para+0x74>
    2c82:	00845993          	srli	s3,s0,0x8
    2c86:	01099a93          	slli	s5,s3,0x10
    2c8a:	0442                	slli	s0,s0,0x10
    2c8c:	6a15                	lui	s4,0x5
    2c8e:	010ada93          	srli	s5,s5,0x10
    2c92:	8041                	srli	s0,s0,0x10
    2c94:	8c26                	mv	s8,s1
    2c96:	4b81                	li	s7,0
    2c98:	10000b13          	li	s6,256
    2c9c:	5aaa0a13          	addi	s4,s4,1450 # 55aa <__sflush_r>
    2ca0:	010b9713          	slli	a4,s7,0x10
    2ca4:	8341                	srli	a4,a4,0x10
    2ca6:	07576263          	bltu	a4,s5,2d0a <save_mfcc_chara_para+0x10a>
    2caa:	00245793          	srli	a5,s0,0x2
    2cae:	00899513          	slli	a0,s3,0x8
    2cb2:	03f7f793          	andi	a5,a5,63
    2cb6:	00a48733          	add	a4,s1,a0
    2cba:	860a                	mv	a2,sp
    2cbc:	4681                	li	a3,0
    2cbe:	0ad79263          	bne	a5,a3,2d62 <save_mfcc_chara_para+0x162>
    2cc2:	03f00693          	li	a3,63
    2cc6:	01079713          	slli	a4,a5,0x10
    2cca:	8341                	srli	a4,a4,0x10
    2ccc:	0ae6f363          	bgeu	a3,a4,2d72 <save_mfcc_chara_para+0x172>
    2cd0:	954a                	add	a0,a0,s2
    2cd2:	858a                	mv	a1,sp
    2cd4:	f8dfe0ef          	jal	ra,1c60 <FLASH_ProgramPage_Fast>
    2cd8:	f59fe0ef          	jal	ra,1c30 <FLASH_Lock_Fast>
    2cdc:	4501                	li	a0,0
    2cde:	12c12083          	lw	ra,300(sp)
    2ce2:	12812403          	lw	s0,296(sp)
    2ce6:	12412483          	lw	s1,292(sp)
    2cea:	12012903          	lw	s2,288(sp)
    2cee:	11c12983          	lw	s3,284(sp)
    2cf2:	11812a03          	lw	s4,280(sp)
    2cf6:	11412a83          	lw	s5,276(sp)
    2cfa:	11012b03          	lw	s6,272(sp)
    2cfe:	10c12b83          	lw	s7,268(sp)
    2d02:	10812c03          	lw	s8,264(sp)
    2d06:	6155                	addi	sp,sp,304
    2d08:	8082                	ret
    2d0a:	4781                	li	a5,0
    2d0c:	ef0d                	bnez	a4,2d46 <save_mfcc_chara_para+0x146>
    2d0e:	0034c783          	lbu	a5,3(s1)
    2d12:	0024c703          	lbu	a4,2(s1)
    2d16:	07a2                	slli	a5,a5,0x8
    2d18:	8fd9                	or	a5,a5,a4
    2d1a:	07c2                	slli	a5,a5,0x10
    2d1c:	0147e7b3          	or	a5,a5,s4
    2d20:	c03e                	sw	a5,0(sp)
    2d22:	4791                	li	a5,4
    2d24:	00f486b3          	add	a3,s1,a5
    2d28:	4294                	lw	a3,0(a3)
    2d2a:	00f10733          	add	a4,sp,a5
    2d2e:	0791                	addi	a5,a5,4
    2d30:	c314                	sw	a3,0(a4)
    2d32:	ff6799e3          	bne	a5,s6,2d24 <save_mfcc_chara_para+0x124>
    2d36:	858a                	mv	a1,sp
    2d38:	854a                	mv	a0,s2
    2d3a:	f27fe0ef          	jal	ra,1c60 <FLASH_ProgramPage_Fast>
    2d3e:	0b85                	addi	s7,s7,1
    2d40:	100c0c13          	addi	s8,s8,256
    2d44:	bfb1                	j	2ca0 <save_mfcc_chara_para+0xa0>
    2d46:	00fc06b3          	add	a3,s8,a5
    2d4a:	4294                	lw	a3,0(a3)
    2d4c:	00f10733          	add	a4,sp,a5
    2d50:	0791                	addi	a5,a5,4
    2d52:	c314                	sw	a3,0(a4)
    2d54:	ff6799e3          	bne	a5,s6,2d46 <save_mfcc_chara_para+0x146>
    2d58:	008b9513          	slli	a0,s7,0x8
    2d5c:	858a                	mv	a1,sp
    2d5e:	954a                	add	a0,a0,s2
    2d60:	bfe9                	j	2d3a <save_mfcc_chara_para+0x13a>
    2d62:	430c                	lw	a1,0(a4)
    2d64:	0685                	addi	a3,a3,1
    2d66:	06c2                	slli	a3,a3,0x10
    2d68:	c20c                	sw	a1,0(a2)
    2d6a:	82c1                	srli	a3,a3,0x10
    2d6c:	0711                	addi	a4,a4,4
    2d6e:	0611                	addi	a2,a2,4
    2d70:	b7b9                	j	2cbe <save_mfcc_chara_para+0xbe>
    2d72:	00279713          	slli	a4,a5,0x2
    2d76:	970a                	add	a4,a4,sp
    2d78:	00072023          	sw	zero,0(a4) # 12000 <_data_lma+0x60e4>
    2d7c:	0785                	addi	a5,a5,1
    2d7e:	b7a1                	j	2cc6 <save_mfcc_chara_para+0xc6>

00002d80 <get_dis>:
    2d80:	f0000553          	fmv.w.x	fa0,zero
    2d84:	0000c737          	lui	a4,0xc
    2d88:	c9072687          	flw	fa3,-880(a4) # bc90 <tri_odd+0x400>
    2d8c:	4781                	li	a5,0
    2d8e:	03000713          	li	a4,48
    2d92:	00f586b3          	add	a3,a1,a5
    2d96:	6298                	flw	fa4,0(a3)
    2d98:	00f506b3          	add	a3,a0,a5
    2d9c:	629c                	flw	fa5,0(a3)
    2d9e:	10d77753          	fmul.s	fa4,fa4,fa3
    2da2:	0791                	addi	a5,a5,4
    2da4:	70d7f7c7          	fmsub.s	fa5,fa5,fa3,fa4
    2da8:	50f7f543          	fmadd.s	fa0,fa5,fa5,fa0
    2dac:	fee793e3          	bne	a5,a4,2d92 <get_dis+0x12>
    2db0:	ac5d                	j	3066 <sqrtf>

00002db2 <dtw_limit>:
    2db2:	8381d703          	lhu	a4,-1992(gp) # 200000d8 <X1>
    2db6:	87aa                	mv	a5,a0
    2db8:	00e57963          	bgeu	a0,a4,2dca <dtw_limit+0x18>
    2dbc:	00150713          	addi	a4,a0,1
    2dc0:	0706                	slli	a4,a4,0x1
    2dc2:	4505                	li	a0,1
    2dc4:	02e5c163          	blt	a1,a4,2de6 <dtw_limit+0x34>
    2dc8:	8082                	ret
    2dca:	83c1d603          	lhu	a2,-1988(gp) # 200000dc <in_frm_num>
    2dce:	00159713          	slli	a4,a1,0x1
    2dd2:	00350693          	addi	a3,a0,3
    2dd6:	9732                	add	a4,a4,a2
    2dd8:	83e1d603          	lhu	a2,-1986(gp) # 200000de <mdl_frm_num>
    2ddc:	4505                	li	a0,1
    2dde:	0606                	slli	a2,a2,0x1
    2de0:	8f11                	sub	a4,a4,a2
    2de2:	02e6c963          	blt	a3,a4,2e14 <dtw_limit+0x62>
    2de6:	83a1d703          	lhu	a4,-1990(gp) # 200000da <X2>
    2dea:	00e7f963          	bgeu	a5,a4,2dfc <dtw_limit+0x4a>
    2dee:	0585                	addi	a1,a1,1
    2df0:	0586                	slli	a1,a1,0x1
    2df2:	00b7a5b3          	slt	a1,a5,a1
    2df6:	0015c513          	xori	a0,a1,1
    2dfa:	8082                	ret
    2dfc:	00179513          	slli	a0,a5,0x1
    2e00:	83e1d783          	lhu	a5,-1986(gp) # 200000de <mdl_frm_num>
    2e04:	058d                	addi	a1,a1,3
    2e06:	953e                	add	a0,a0,a5
    2e08:	83c1d783          	lhu	a5,-1988(gp) # 200000dc <in_frm_num>
    2e0c:	0786                	slli	a5,a5,0x1
    2e0e:	8d1d                	sub	a0,a0,a5
    2e10:	00a5a533          	slt	a0,a1,a0
    2e14:	8082                	ret

00002e16 <calc_chara_para_match_dis>:
    2e16:	7139                	addi	sp,sp,-64
    2e18:	de06                	sw	ra,60(sp)
    2e1a:	dc22                	sw	s0,56(sp)
    2e1c:	da26                	sw	s1,52(sp)
    2e1e:	d84a                	sw	s2,48(sp)
    2e20:	d64e                	sw	s3,44(sp)
    2e22:	d452                	sw	s4,40(sp)
    2e24:	d256                	sw	s5,36(sp)
    2e26:	d05a                	sw	s6,32(sp)
    2e28:	ce5e                	sw	s7,28(sp)
    2e2a:	cc62                	sw	s8,24(sp)
    2e2c:	ca66                	sw	s9,20(sp)
    2e2e:	c86a                	sw	s10,16(sp)
    2e30:	e622                	fsw	fs0,12(sp)
    2e32:	00354983          	lbu	s3,3(a0)
    2e36:	00254783          	lbu	a5,2(a0)
    2e3a:	09a2                	slli	s3,s3,0x8
    2e3c:	00f9e9b3          	or	s3,s3,a5
    2e40:	83319e23          	sh	s3,-1988(gp) # 200000dc <in_frm_num>
    2e44:	0035c903          	lbu	s2,3(a1)
    2e48:	0025c783          	lbu	a5,2(a1)
    2e4c:	0922                	slli	s2,s2,0x8
    2e4e:	00f96933          	or	s2,s2,a5
    2e52:	83219f23          	sh	s2,-1986(gp) # 200000de <mdl_frm_num>
    2e56:	00191693          	slli	a3,s2,0x1
    2e5a:	57fd                	li	a5,-1
    2e5c:	0f36c563          	blt	a3,s3,2f46 <calc_chara_para_match_dis+0x130>
    2e60:	00199713          	slli	a4,s3,0x1
    2e64:	57fd                	li	a5,-1
    2e66:	0f274063          	blt	a4,s2,2f46 <calc_chara_para_match_dis+0x130>
    2e6a:	41270733          	sub	a4,a4,s2
    2e6e:	478d                	li	a5,3
    2e70:	413686b3          	sub	a3,a3,s3
    2e74:	0706                	slli	a4,a4,0x1
    2e76:	02f6c6b3          	div	a3,a3,a5
    2e7a:	00450413          	addi	s0,a0,4
    2e7e:	00458493          	addi	s1,a1,4
    2e82:	85a6                	mv	a1,s1
    2e84:	8522                	mv	a0,s0
    2e86:	4a05                	li	s4,1
    2e88:	4a85                	li	s5,1
    2e8a:	4b05                	li	s6,1
    2e8c:	02f74733          	div	a4,a4,a5
    2e90:	82d19c23          	sh	a3,-1992(gp) # 200000d8 <X1>
    2e94:	82e19d23          	sh	a4,-1990(gp) # 200000da <X2>
    2e98:	35e5                	jal	2d80 <get_dis>
    2e9a:	20a50453          	fmv.s	fs0,fa0
    2e9e:	001a8c13          	addi	s8,s5,1
    2ea2:	0c42                	slli	s8,s8,0x10
    2ea4:	010c5c13          	srli	s8,s8,0x10
    2ea8:	85e2                	mv	a1,s8
    2eaa:	855a                	mv	a0,s6
    2eac:	3719                	jal	2db2 <dtw_limit>
    2eae:	5cfd                	li	s9,-1
    2eb0:	e519                	bnez	a0,2ebe <calc_chara_para_match_dis+0xa8>
    2eb2:	85a2                	mv	a1,s0
    2eb4:	03048513          	addi	a0,s1,48
    2eb8:	35e1                	jal	2d80 <get_dis>
    2eba:	c0151cd3          	fcvt.wu.s	s9,fa0,rtz
    2ebe:	001b0b93          	addi	s7,s6,1
    2ec2:	0bc2                	slli	s7,s7,0x10
    2ec4:	010bdb93          	srli	s7,s7,0x10
    2ec8:	85d6                	mv	a1,s5
    2eca:	855e                	mv	a0,s7
    2ecc:	35dd                	jal	2db2 <dtw_limit>
    2ece:	5d7d                	li	s10,-1
    2ed0:	e519                	bnez	a0,2ede <calc_chara_para_match_dis+0xc8>
    2ed2:	03040593          	addi	a1,s0,48
    2ed6:	8526                	mv	a0,s1
    2ed8:	3565                	jal	2d80 <get_dis>
    2eda:	c0151d53          	fcvt.wu.s	s10,fa0,rtz
    2ede:	85e2                	mv	a1,s8
    2ee0:	855e                	mv	a0,s7
    2ee2:	3dc1                	jal	2db2 <dtw_limit>
    2ee4:	57fd                	li	a5,-1
    2ee6:	e901                	bnez	a0,2ef6 <calc_chara_para_match_dis+0xe0>
    2ee8:	03040593          	addi	a1,s0,48
    2eec:	03048513          	addi	a0,s1,48
    2ef0:	3d41                	jal	2d80 <get_dis>
    2ef2:	c01517d3          	fcvt.wu.s	a5,fa0,rtz
    2ef6:	8766                	mv	a4,s9
    2ef8:	019d7363          	bgeu	s10,s9,2efe <calc_chara_para_match_dis+0xe8>
    2efc:	876a                	mv	a4,s10
    2efe:	86ba                	mv	a3,a4
    2f00:	00e7f363          	bgeu	a5,a4,2f06 <calc_chara_para_match_dis+0xf0>
    2f04:	86be                	mv	a3,a5
    2f06:	d016f7d3          	fcvt.s.wu	fa5,a3
    2f0a:	00f47453          	fadd.s	fs0,fs0,fa5
    2f0e:	00f76963          	bltu	a4,a5,2f20 <calc_chara_para_match_dis+0x10a>
    2f12:	03040413          	addi	s0,s0,48
    2f16:	03048493          	addi	s1,s1,48
    2f1a:	8ae2                	mv	s5,s8
    2f1c:	8b5e                	mv	s6,s7
    2f1e:	a031                	j	2f2a <calc_chara_para_match_dis+0x114>
    2f20:	05969363          	bne	a3,s9,2f66 <calc_chara_para_match_dis+0x150>
    2f24:	03048493          	addi	s1,s1,48
    2f28:	8ae2                	mv	s5,s8
    2f2a:	0a05                	addi	s4,s4,1
    2f2c:	0a42                	slli	s4,s4,0x10
    2f2e:	010a5a13          	srli	s4,s4,0x10
    2f32:	013b7463          	bgeu	s6,s3,2f3a <calc_chara_para_match_dis+0x124>
    2f36:	f72ae4e3          	bltu	s5,s2,2e9e <calc_chara_para_match_dis+0x88>
    2f3a:	d00a77d3          	fcvt.s.w	fa5,s4
    2f3e:	18f47453          	fdiv.s	fs0,fs0,fa5
    2f42:	c01417d3          	fcvt.wu.s	a5,fs0,rtz
    2f46:	50f2                	lw	ra,60(sp)
    2f48:	5462                	lw	s0,56(sp)
    2f4a:	54d2                	lw	s1,52(sp)
    2f4c:	5942                	lw	s2,48(sp)
    2f4e:	59b2                	lw	s3,44(sp)
    2f50:	5a22                	lw	s4,40(sp)
    2f52:	5a92                	lw	s5,36(sp)
    2f54:	5b02                	lw	s6,32(sp)
    2f56:	4bf2                	lw	s7,28(sp)
    2f58:	4c62                	lw	s8,24(sp)
    2f5a:	4cd2                	lw	s9,20(sp)
    2f5c:	4d42                	lw	s10,16(sp)
    2f5e:	6432                	flw	fs0,12(sp)
    2f60:	853e                	mv	a0,a5
    2f62:	6121                	addi	sp,sp,64
    2f64:	8082                	ret
    2f66:	03040413          	addi	s0,s0,48
    2f6a:	bf4d                	j	2f1c <calc_chara_para_match_dis+0x106>

00002f6c <logf>:
    2f6c:	715d                	addi	sp,sp,-80
    2f6e:	c4a2                	sw	s0,72(sp)
    2f70:	fe22                	fsw	fs0,60(sp)
    2f72:	c686                	sw	ra,76(sp)
    2f74:	fc26                	fsw	fs1,56(sp)
    2f76:	20a50453          	fmv.s	fs0,fa0
    2f7a:	2279                	jal	3108 <__ieee754_logf>
    2f7c:	81018793          	addi	a5,gp,-2032 # 200000b0 <__fdlib_version>
    2f80:	4380                	lw	s0,0(a5)
    2f82:	57fd                	li	a5,-1
    2f84:	06f40763          	beq	s0,a5,2ff2 <logf+0x86>
    2f88:	a08427d3          	feq.s	a5,fs0,fs0
    2f8c:	c3bd                	beqz	a5,2ff2 <logf+0x86>
    2f8e:	f00004d3          	fmv.w.x	fs1,zero
    2f92:	a08497d3          	flt.s	a5,fs1,fs0
    2f96:	efb1                	bnez	a5,2ff2 <logf+0x86>
    2f98:	20840553          	fmv.s	fa0,fs0
    2f9c:	00009797          	auipc	a5,0x9
    2fa0:	d0c78793          	addi	a5,a5,-756 # bca8 <tri_odd+0x418>
    2fa4:	c63e                	sw	a5,12(sp)
    2fa6:	d402                	sw	zero,40(sp)
    2fa8:	61f010ef          	jal	ra,4dc6 <__extendsfdf2>
    2fac:	cc2a                	sw	a0,24(sp)
    2fae:	ce2e                	sw	a1,28(sp)
    2fb0:	c82a                	sw	a0,16(sp)
    2fb2:	ca2e                	sw	a1,20(sp)
    2fb4:	c429                	beqz	s0,2ffe <logf+0x92>
    2fb6:	00009717          	auipc	a4,0x9
    2fba:	ce270713          	addi	a4,a4,-798 # bc98 <tri_odd+0x408>
    2fbe:	4310                	lw	a2,0(a4)
    2fc0:	4354                	lw	a3,4(a4)
    2fc2:	a09427d3          	feq.s	a5,fs0,fs1
    2fc6:	d032                	sw	a2,32(sp)
    2fc8:	d236                	sw	a3,36(sp)
    2fca:	c3d9                	beqz	a5,3050 <logf+0xe4>
    2fcc:	4789                	li	a5,2
    2fce:	c43e                	sw	a5,8(sp)
    2fd0:	06f41c63          	bne	s0,a5,3048 <logf+0xdc>
    2fd4:	26e020ef          	jal	ra,5242 <__errno>
    2fd8:	02200793          	li	a5,34
    2fdc:	c11c                	sw	a5,0(a0)
    2fde:	57a2                	lw	a5,40(sp)
    2fe0:	cba1                	beqz	a5,3030 <logf+0xc4>
    2fe2:	260020ef          	jal	ra,5242 <__errno>
    2fe6:	57a2                	lw	a5,40(sp)
    2fe8:	5592                	lw	a1,36(sp)
    2fea:	c11c                	sw	a5,0(a0)
    2fec:	5502                	lw	a0,32(sp)
    2fee:	6c1010ef          	jal	ra,4eae <__truncdfsf2>
    2ff2:	40b6                	lw	ra,76(sp)
    2ff4:	4426                	lw	s0,72(sp)
    2ff6:	7472                	flw	fs0,60(sp)
    2ff8:	74e2                	flw	fs1,56(sp)
    2ffa:	6161                	addi	sp,sp,80
    2ffc:	8082                	ret
    2ffe:	00009717          	auipc	a4,0x9
    3002:	ca270713          	addi	a4,a4,-862 # bca0 <tri_odd+0x410>
    3006:	4310                	lw	a2,0(a4)
    3008:	4354                	lw	a3,4(a4)
    300a:	a09427d3          	feq.s	a5,fs0,fs1
    300e:	d032                	sw	a2,32(sp)
    3010:	d236                	sw	a3,36(sp)
    3012:	eb8d                	bnez	a5,3044 <logf+0xd8>
    3014:	4785                	li	a5,1
    3016:	c43e                	sw	a5,8(sp)
    3018:	0028                	addi	a0,sp,8
    301a:	26e9                	jal	33e4 <matherr>
    301c:	cd1d                	beqz	a0,305a <logf+0xee>
    301e:	00007517          	auipc	a0,0x7
    3022:	bd650513          	addi	a0,a0,-1066 # 9bf4 <chinese_char+0x2d8>
    3026:	26c9                	jal	33e8 <nan>
    3028:	d02a                	sw	a0,32(sp)
    302a:	d22e                	sw	a1,36(sp)
    302c:	57a2                	lw	a5,40(sp)
    302e:	fbd5                	bnez	a5,2fe2 <logf+0x76>
    3030:	5502                	lw	a0,32(sp)
    3032:	5592                	lw	a1,36(sp)
    3034:	67b010ef          	jal	ra,4eae <__truncdfsf2>
    3038:	40b6                	lw	ra,76(sp)
    303a:	4426                	lw	s0,72(sp)
    303c:	7472                	flw	fs0,60(sp)
    303e:	74e2                	flw	fs1,56(sp)
    3040:	6161                	addi	sp,sp,80
    3042:	8082                	ret
    3044:	4789                	li	a5,2
    3046:	c43e                	sw	a5,8(sp)
    3048:	0028                	addi	a0,sp,8
    304a:	2e69                	jal	33e4 <matherr>
    304c:	f165                	bnez	a0,302c <logf+0xc0>
    304e:	b759                	j	2fd4 <logf+0x68>
    3050:	4785                	li	a5,1
    3052:	c43e                	sw	a5,8(sp)
    3054:	4789                	li	a5,2
    3056:	fcf411e3          	bne	s0,a5,3018 <logf+0xac>
    305a:	1e8020ef          	jal	ra,5242 <__errno>
    305e:	02100793          	li	a5,33
    3062:	c11c                	sw	a5,0(a0)
    3064:	bf6d                	j	301e <logf+0xb2>

00003066 <sqrtf>:
    3066:	715d                	addi	sp,sp,-80
    3068:	c4a2                	sw	s0,72(sp)
    306a:	fe22                	fsw	fs0,60(sp)
    306c:	c686                	sw	ra,76(sp)
    306e:	20a50453          	fmv.s	fs0,fa0
    3072:	245d                	jal	3318 <__ieee754_sqrtf>
    3074:	81018793          	addi	a5,gp,-2032 # 200000b0 <__fdlib_version>
    3078:	4380                	lw	s0,0(a5)
    307a:	57fd                	li	a5,-1
    307c:	00f40a63          	beq	s0,a5,3090 <sqrtf+0x2a>
    3080:	a08427d3          	feq.s	a5,fs0,fs0
    3084:	c791                	beqz	a5,3090 <sqrtf+0x2a>
    3086:	f00007d3          	fmv.w.x	fa5,zero
    308a:	a0f417d3          	flt.s	a5,fs0,fa5
    308e:	e791                	bnez	a5,309a <sqrtf+0x34>
    3090:	40b6                	lw	ra,76(sp)
    3092:	4426                	lw	s0,72(sp)
    3094:	7472                	flw	fs0,60(sp)
    3096:	6161                	addi	sp,sp,80
    3098:	8082                	ret
    309a:	20840553          	fmv.s	fa0,fs0
    309e:	4785                	li	a5,1
    30a0:	c43e                	sw	a5,8(sp)
    30a2:	00009797          	auipc	a5,0x9
    30a6:	c0e78793          	addi	a5,a5,-1010 # bcb0 <tri_odd+0x420>
    30aa:	c63e                	sw	a5,12(sp)
    30ac:	d402                	sw	zero,40(sp)
    30ae:	519010ef          	jal	ra,4dc6 <__extendsfdf2>
    30b2:	cc2a                	sw	a0,24(sp)
    30b4:	ce2e                	sw	a1,28(sp)
    30b6:	c82a                	sw	a0,16(sp)
    30b8:	ca2e                	sw	a1,20(sp)
    30ba:	c81d                	beqz	s0,30f0 <sqrtf+0x8a>
    30bc:	4601                	li	a2,0
    30be:	4681                	li	a3,0
    30c0:	8532                	mv	a0,a2
    30c2:	85b6                	mv	a1,a3
    30c4:	2e0d                	jal	33f6 <__divdf3>
    30c6:	d02a                	sw	a0,32(sp)
    30c8:	d22e                	sw	a1,36(sp)
    30ca:	4789                	li	a5,2
    30cc:	02f41463          	bne	s0,a5,30f4 <sqrtf+0x8e>
    30d0:	172020ef          	jal	ra,5242 <__errno>
    30d4:	02100793          	li	a5,33
    30d8:	c11c                	sw	a5,0(a0)
    30da:	57a2                	lw	a5,40(sp)
    30dc:	e38d                	bnez	a5,30fe <sqrtf+0x98>
    30de:	5502                	lw	a0,32(sp)
    30e0:	5592                	lw	a1,36(sp)
    30e2:	5cd010ef          	jal	ra,4eae <__truncdfsf2>
    30e6:	40b6                	lw	ra,76(sp)
    30e8:	4426                	lw	s0,72(sp)
    30ea:	7472                	flw	fs0,60(sp)
    30ec:	6161                	addi	sp,sp,80
    30ee:	8082                	ret
    30f0:	d002                	sw	zero,32(sp)
    30f2:	d202                	sw	zero,36(sp)
    30f4:	0028                	addi	a0,sp,8
    30f6:	24fd                	jal	33e4 <matherr>
    30f8:	dd61                	beqz	a0,30d0 <sqrtf+0x6a>
    30fa:	57a2                	lw	a5,40(sp)
    30fc:	d3ed                	beqz	a5,30de <sqrtf+0x78>
    30fe:	144020ef          	jal	ra,5242 <__errno>
    3102:	57a2                	lw	a5,40(sp)
    3104:	c11c                	sw	a5,0(a0)
    3106:	bfe1                	j	30de <sqrtf+0x78>

00003108 <__ieee754_logf>:
    3108:	e00507d3          	fmv.x.w	a5,fa0
    310c:	00179693          	slli	a3,a5,0x1
    3110:	873e                	mv	a4,a5
    3112:	c2c9                	beqz	a3,3194 <__ieee754_logf+0x8c>
    3114:	0807c963          	bltz	a5,31a6 <__ieee754_logf+0x9e>
    3118:	7f8006b7          	lui	a3,0x7f800
    311c:	14d7d463          	bge	a5,a3,3264 <__ieee754_logf+0x15c>
    3120:	008006b7          	lui	a3,0x800
    3124:	4801                	li	a6,0
    3126:	00d7db63          	bge	a5,a3,313c <__ieee754_logf+0x34>
    312a:	00009717          	auipc	a4,0x9
    312e:	b9272787          	flw	fa5,-1134(a4) # bcbc <tri_odd+0x42c>
    3132:	10f577d3          	fmul.s	fa5,fa0,fa5
    3136:	581d                	li	a6,-25
    3138:	e0078753          	fmv.x.w	a4,fa5
    313c:	008005b7          	lui	a1,0x800
    3140:	fff58613          	addi	a2,a1,-1 # 7fffff <_data_lma+0x7f40e3>
    3144:	004b06b7          	lui	a3,0x4b0
    3148:	8e79                	and	a2,a2,a4
    314a:	b2068693          	addi	a3,a3,-1248 # 4afb20 <_data_lma+0x4a3c04>
    314e:	96b2                	add	a3,a3,a2
    3150:	8eed                	and	a3,a3,a1
    3152:	3f8007b7          	lui	a5,0x3f800
    3156:	8fb5                	xor	a5,a5,a3
    3158:	8fd1                	or	a5,a5,a2
    315a:	875d                	srai	a4,a4,0x17
    315c:	f0078753          	fmv.w.x	fa4,a5
    3160:	f8170713          	addi	a4,a4,-127
    3164:	00f60513          	addi	a0,a2,15
    3168:	15c1                	addi	a1,a1,-16
    316a:	9742                	add	a4,a4,a6
    316c:	86dd                	srai	a3,a3,0x17
    316e:	00009817          	auipc	a6,0x9
    3172:	b5282787          	flw	fa5,-1198(a6) # bcc0 <tri_odd+0x430>
    3176:	8de9                	and	a1,a1,a0
    3178:	9736                	add	a4,a4,a3
    317a:	08f777d3          	fsub.s	fa5,fa4,fa5
    317e:	e99d                	bnez	a1,31b4 <__ieee754_logf+0xac>
    3180:	f0000753          	fmv.w.x	fa4,zero
    3184:	a0e7a7d3          	feq.s	a5,fa5,fa4
    3188:	c3ed                	beqz	a5,326a <__ieee754_logf+0x162>
    318a:	20e70553          	fmv.s	fa0,fa4
    318e:	14071763          	bnez	a4,32dc <__ieee754_logf+0x1d4>
    3192:	8082                	ret
    3194:	f00007d3          	fmv.w.x	fa5,zero
    3198:	00009797          	auipc	a5,0x9
    319c:	b207a507          	flw	fa0,-1248(a5) # bcb8 <tri_odd+0x428>
    31a0:	18f57553          	fdiv.s	fa0,fa0,fa5
    31a4:	8082                	ret
    31a6:	08a57553          	fsub.s	fa0,fa0,fa0
    31aa:	f00007d3          	fmv.w.x	fa5,zero
    31ae:	18f57553          	fdiv.s	fa0,fa0,fa5
    31b2:	8082                	ret
    31b4:	00009797          	auipc	a5,0x9
    31b8:	b207a507          	flw	fa0,-1248(a5) # bcd4 <tri_odd+0x444>
    31bc:	00a7f553          	fadd.s	fa0,fa5,fa0
    31c0:	00009797          	auipc	a5,0x9
    31c4:	b247a687          	flw	fa3,-1244(a5) # bce4 <tri_odd+0x454>
    31c8:	00009797          	auipc	a5,0x9
    31cc:	b207a207          	flw	ft4,-1248(a5) # bce8 <tri_odd+0x458>
    31d0:	00009797          	auipc	a5,0x9
    31d4:	b1c7a107          	flw	ft2,-1252(a5) # bcec <tri_odd+0x45c>
    31d8:	00009797          	auipc	a5,0x9
    31dc:	b007a707          	flw	fa4,-1280(a5) # bcd8 <tri_odd+0x448>
    31e0:	18a7f553          	fdiv.s	fa0,fa5,fa0
    31e4:	00009797          	auipc	a5,0x9
    31e8:	af87a187          	flw	ft3,-1288(a5) # bcdc <tri_odd+0x44c>
    31ec:	00009797          	auipc	a5,0x9
    31f0:	b047a007          	flw	ft0,-1276(a5) # bcf0 <tri_odd+0x460>
    31f4:	00009797          	auipc	a5,0x9
    31f8:	aec7a087          	flw	ft1,-1300(a5) # bce0 <tri_odd+0x450>
    31fc:	ffcf67b7          	lui	a5,0xffcf6
    3200:	0035c6b7          	lui	a3,0x35c
    3204:	c3078793          	addi	a5,a5,-976 # ffcf5c30 <_eusrstack+0xdfcd5c30>
    3208:	28868693          	addi	a3,a3,648 # 35c288 <_data_lma+0x35036c>
    320c:	97b2                	add	a5,a5,a2
    320e:	40c68633          	sub	a2,a3,a2
    3212:	8e5d                	or	a2,a2,a5
    3214:	d00772d3          	fcvt.s.w	ft5,a4
    3218:	10a575d3          	fmul.s	fa1,fa0,fa0
    321c:	10b5f653          	fmul.s	fa2,fa1,fa1
    3220:	20d676c3          	fmadd.s	fa3,fa2,fa3,ft4
    3224:	18e67743          	fmadd.s	fa4,fa2,fa4,ft3
    3228:	10c6f6c3          	fmadd.s	fa3,fa3,fa2,ft2
    322c:	08c77743          	fmadd.s	fa4,fa4,fa2,ft1
    3230:	00c6f6c3          	fmadd.s	fa3,fa3,fa2,ft0
    3234:	10b6f6d3          	fmul.s	fa3,fa3,fa1
    3238:	68c77743          	fmadd.s	fa4,fa4,fa2,fa3
    323c:	06c05763          	blez	a2,32aa <__ieee754_logf+0x1a2>
    3240:	00009797          	auipc	a5,0x9
    3244:	a907a687          	flw	fa3,-1392(a5) # bcd0 <tri_odd+0x440>
    3248:	10d7f6d3          	fmul.s	fa3,fa5,fa3
    324c:	10f6f6d3          	fmul.s	fa3,fa3,fa5
    3250:	00d77753          	fadd.s	fa4,fa4,fa3
    3254:	10a77753          	fmul.s	fa4,fa4,fa0
    3258:	e32d                	bnez	a4,32ba <__ieee754_logf+0x1b2>
    325a:	08e6f553          	fsub.s	fa0,fa3,fa4
    325e:	08a7f553          	fsub.s	fa0,fa5,fa0
    3262:	8082                	ret
    3264:	00a57553          	fadd.s	fa0,fa0,fa0
    3268:	8082                	ret
    326a:	00009797          	auipc	a5,0x9
    326e:	a667a707          	flw	fa4,-1434(a5) # bcd0 <tri_odd+0x440>
    3272:	00009797          	auipc	a5,0x9
    3276:	a5a7a507          	flw	fa0,-1446(a5) # bccc <tri_odd+0x43c>
    327a:	70a7f54b          	fnmsub.s	fa0,fa5,fa0,fa4
    327e:	10f7f753          	fmul.s	fa4,fa5,fa5
    3282:	10e57553          	fmul.s	fa0,fa0,fa4
    3286:	df61                	beqz	a4,325e <__ieee754_logf+0x156>
    3288:	d00776d3          	fcvt.s.w	fa3,a4
    328c:	00009797          	auipc	a5,0x9
    3290:	a387a707          	flw	fa4,-1480(a5) # bcc4 <tri_odd+0x434>
    3294:	00009797          	auipc	a5,0x9
    3298:	a347a607          	flw	fa2,-1484(a5) # bcc8 <tri_odd+0x438>
    329c:	50e6f54b          	fnmsub.s	fa0,fa3,fa4,fa0
    32a0:	08f57553          	fsub.s	fa0,fa0,fa5
    32a4:	50c6f547          	fmsub.s	fa0,fa3,fa2,fa0
    32a8:	8082                	ret
    32aa:	08e7f753          	fsub.s	fa4,fa5,fa4
    32ae:	10a77753          	fmul.s	fa4,fa4,fa0
    32b2:	e721                	bnez	a4,32fa <__ieee754_logf+0x1f2>
    32b4:	08e7f553          	fsub.s	fa0,fa5,fa4
    32b8:	8082                	ret
    32ba:	00009797          	auipc	a5,0x9
    32be:	a0a7a507          	flw	fa0,-1526(a5) # bcc4 <tri_odd+0x434>
    32c2:	70a2f543          	fmadd.s	fa0,ft5,fa0,fa4
    32c6:	00009797          	auipc	a5,0x9
    32ca:	a027a707          	flw	fa4,-1534(a5) # bcc8 <tri_odd+0x438>
    32ce:	08a6f553          	fsub.s	fa0,fa3,fa0
    32d2:	08f57553          	fsub.s	fa0,fa0,fa5
    32d6:	50e2f547          	fmsub.s	fa0,ft5,fa4,fa0
    32da:	8082                	ret
    32dc:	d0077553          	fcvt.s.w	fa0,a4
    32e0:	00009797          	auipc	a5,0x9
    32e4:	9e47a787          	flw	fa5,-1564(a5) # bcc4 <tri_odd+0x434>
    32e8:	00009797          	auipc	a5,0x9
    32ec:	9e07a707          	flw	fa4,-1568(a5) # bcc8 <tri_odd+0x438>
    32f0:	10f577d3          	fmul.s	fa5,fa0,fa5
    32f4:	78e57543          	fmadd.s	fa0,fa0,fa4,fa5
    32f8:	8082                	ret
    32fa:	00009797          	auipc	a5,0x9
    32fe:	9ca7a507          	flw	fa0,-1590(a5) # bcc4 <tri_odd+0x434>
    3302:	70a2f54b          	fnmsub.s	fa0,ft5,fa0,fa4
    3306:	00009797          	auipc	a5,0x9
    330a:	9c27a707          	flw	fa4,-1598(a5) # bcc8 <tri_odd+0x438>
    330e:	08f57553          	fsub.s	fa0,fa0,fa5
    3312:	50e2f547          	fmsub.s	fa0,ft5,fa4,fa0
    3316:	8082                	ret

00003318 <__ieee754_sqrtf>:
    3318:	e00506d3          	fmv.x.w	a3,fa0
    331c:	7f800737          	lui	a4,0x7f800
    3320:	00169793          	slli	a5,a3,0x1
    3324:	8385                	srli	a5,a5,0x1
    3326:	08e7f963          	bgeu	a5,a4,33b8 <__ieee754_sqrtf+0xa0>
    332a:	e0050553          	fmv.x.w	a0,fa0
    332e:	c3d1                	beqz	a5,33b2 <__ieee754_sqrtf+0x9a>
    3330:	87b6                	mv	a5,a3
    3332:	0806cd63          	bltz	a3,33cc <__ieee754_sqrtf+0xb4>
    3336:	00d77633          	and	a2,a4,a3
    333a:	4176d713          	srai	a4,a3,0x17
    333e:	e205                	bnez	a2,335e <__ieee754_sqrtf+0x46>
    3340:	00869613          	slli	a2,a3,0x8
    3344:	08064d63          	bltz	a2,33de <__ieee754_sqrtf+0xc6>
    3348:	4681                	li	a3,0
    334a:	a011                	j	334e <__ieee754_sqrtf+0x36>
    334c:	86b2                	mv	a3,a2
    334e:	0786                	slli	a5,a5,0x1
    3350:	00879593          	slli	a1,a5,0x8
    3354:	00168613          	addi	a2,a3,1
    3358:	fe05dae3          	bgez	a1,334c <__ieee754_sqrtf+0x34>
    335c:	8f15                	sub	a4,a4,a3
    335e:	008006b7          	lui	a3,0x800
    3362:	fff68613          	addi	a2,a3,-1 # 7fffff <_data_lma+0x7f40e3>
    3366:	8ff1                	and	a5,a5,a2
    3368:	f8170713          	addi	a4,a4,-127 # 7f7fff81 <_eusrstack+0x5f7dff81>
    336c:	8edd                	or	a3,a3,a5
    336e:	00177613          	andi	a2,a4,1
    3372:	00169793          	slli	a5,a3,0x1
    3376:	ea21                	bnez	a2,33c6 <__ieee754_sqrtf+0xae>
    3378:	40175813          	srai	a6,a4,0x1
    337c:	46e5                	li	a3,25
    337e:	4501                	li	a0,0
    3380:	4581                	li	a1,0
    3382:	01000737          	lui	a4,0x1000
    3386:	00e58633          	add	a2,a1,a4
    338a:	16fd                	addi	a3,a3,-1
    338c:	00c7c663          	blt	a5,a2,3398 <__ieee754_sqrtf+0x80>
    3390:	00e605b3          	add	a1,a2,a4
    3394:	8f91                	sub	a5,a5,a2
    3396:	953a                	add	a0,a0,a4
    3398:	0786                	slli	a5,a5,0x1
    339a:	8305                	srli	a4,a4,0x1
    339c:	f6ed                	bnez	a3,3386 <__ieee754_sqrtf+0x6e>
    339e:	c399                	beqz	a5,33a4 <__ieee754_sqrtf+0x8c>
    33a0:	0505                	addi	a0,a0,1
    33a2:	9979                	andi	a0,a0,-2
    33a4:	8505                	srai	a0,a0,0x1
    33a6:	3f0007b7          	lui	a5,0x3f000
    33aa:	953e                	add	a0,a0,a5
    33ac:	01781713          	slli	a4,a6,0x17
    33b0:	953a                	add	a0,a0,a4
    33b2:	f0050553          	fmv.w.x	fa0,a0
    33b6:	8082                	ret
    33b8:	50a577c3          	fmadd.s	fa5,fa0,fa0,fa0
    33bc:	e0078553          	fmv.x.w	a0,fa5
    33c0:	f0050553          	fmv.w.x	fa0,a0
    33c4:	8082                	ret
    33c6:	00269793          	slli	a5,a3,0x2
    33ca:	b77d                	j	3378 <__ieee754_sqrtf+0x60>
    33cc:	08a577d3          	fsub.s	fa5,fa0,fa0
    33d0:	18f7f7d3          	fdiv.s	fa5,fa5,fa5
    33d4:	e0078553          	fmv.x.w	a0,fa5
    33d8:	f0050553          	fmv.w.x	fa0,a0
    33dc:	8082                	ret
    33de:	56fd                	li	a3,-1
    33e0:	8f15                	sub	a4,a4,a3
    33e2:	bfb5                	j	335e <__ieee754_sqrtf+0x46>

000033e4 <matherr>:
    33e4:	4501                	li	a0,0
    33e6:	8082                	ret

000033e8 <nan>:
    33e8:	00009797          	auipc	a5,0x9
    33ec:	91078793          	addi	a5,a5,-1776 # bcf8 <tri_odd+0x468>
    33f0:	4388                	lw	a0,0(a5)
    33f2:	43cc                	lw	a1,4(a5)
    33f4:	8082                	ret

000033f6 <__divdf3>:
    33f6:	7139                	addi	sp,sp,-64
    33f8:	da26                	sw	s1,52(sp)
    33fa:	de06                	sw	ra,60(sp)
    33fc:	dc22                	sw	s0,56(sp)
    33fe:	d84a                	sw	s2,48(sp)
    3400:	d64e                	sw	s3,44(sp)
    3402:	d452                	sw	s4,40(sp)
    3404:	d256                	sw	s5,36(sp)
    3406:	d05a                	sw	s6,32(sp)
    3408:	ce5e                	sw	s7,28(sp)
    340a:	cc62                	sw	s8,24(sp)
    340c:	ca66                	sw	s9,20(sp)
    340e:	84aa                	mv	s1,a0
    3410:	00202b73          	frrm	s6
    3414:	0145d513          	srli	a0,a1,0x14
    3418:	00c59413          	slli	s0,a1,0xc
    341c:	7ff57513          	andi	a0,a0,2047
    3420:	8031                	srli	s0,s0,0xc
    3422:	01f5da13          	srli	s4,a1,0x1f
    3426:	c979                	beqz	a0,34fc <__divdf3+0x106>
    3428:	7ff00793          	li	a5,2047
    342c:	10f50d63          	beq	a0,a5,3546 <__divdf3+0x150>
    3430:	01d4db93          	srli	s7,s1,0x1d
    3434:	040e                	slli	s0,s0,0x3
    3436:	008be433          	or	s0,s7,s0
    343a:	00800bb7          	lui	s7,0x800
    343e:	00349c13          	slli	s8,s1,0x3
    3442:	01746bb3          	or	s7,s0,s7
    3446:	c0150993          	addi	s3,a0,-1023
    344a:	4481                	li	s1,0
    344c:	4c81                	li	s9,0
    344e:	4901                	li	s2,0
    3450:	0146d793          	srli	a5,a3,0x14
    3454:	00c69413          	slli	s0,a3,0xc
    3458:	7ff7f793          	andi	a5,a5,2047
    345c:	85b2                	mv	a1,a2
    345e:	8031                	srli	s0,s0,0xc
    3460:	01f6da93          	srli	s5,a3,0x1f
    3464:	c3a5                	beqz	a5,34c4 <__divdf3+0xce>
    3466:	7ff00713          	li	a4,2047
    346a:	04e78063          	beq	a5,a4,34aa <__divdf3+0xb4>
    346e:	00341513          	slli	a0,s0,0x3
    3472:	01d65413          	srli	s0,a2,0x1d
    3476:	8c49                	or	s0,s0,a0
    3478:	c0178793          	addi	a5,a5,-1023
    347c:	00800537          	lui	a0,0x800
    3480:	00361593          	slli	a1,a2,0x3
    3484:	8c49                	or	s0,s0,a0
    3486:	40f989b3          	sub	s3,s3,a5
    348a:	4601                	li	a2,0
    348c:	015a46b3          	xor	a3,s4,s5
    3490:	47bd                	li	a5,15
    3492:	8836                	mv	a6,a3
    3494:	1c97e663          	bltu	a5,s1,3660 <__divdf3+0x26a>
    3498:	00009717          	auipc	a4,0x9
    349c:	86870713          	addi	a4,a4,-1944 # bd00 <tri_odd+0x470>
    34a0:	048a                	slli	s1,s1,0x2
    34a2:	94ba                	add	s1,s1,a4
    34a4:	409c                	lw	a5,0(s1)
    34a6:	97ba                	add	a5,a5,a4
    34a8:	8782                	jr	a5
    34aa:	8e41                	or	a2,a2,s0
    34ac:	80198993          	addi	s3,s3,-2047
    34b0:	ce79                	beqz	a2,358e <__divdf3+0x198>
    34b2:	00c41793          	slli	a5,s0,0xc
    34b6:	0034e493          	ori	s1,s1,3
    34ba:	460d                	li	a2,3
    34bc:	fc07c8e3          	bltz	a5,348c <__divdf3+0x96>
    34c0:	4941                	li	s2,16
    34c2:	b7e9                	j	348c <__divdf3+0x96>
    34c4:	00c467b3          	or	a5,s0,a2
    34c8:	cfcd                	beqz	a5,3582 <__divdf3+0x18c>
    34ca:	36040363          	beqz	s0,3830 <__divdf3+0x43a>
    34ce:	8522                	mv	a0,s0
    34d0:	c432                	sw	a2,8(sp)
    34d2:	4fb010ef          	jal	ra,51cc <__clzsi2>
    34d6:	4622                	lw	a2,8(sp)
    34d8:	ff550713          	addi	a4,a0,-11 # 7ffff5 <_data_lma+0x7f40d9>
    34dc:	47f5                	li	a5,29
    34de:	ff850593          	addi	a1,a0,-8
    34e2:	8f99                	sub	a5,a5,a4
    34e4:	00b41433          	sll	s0,s0,a1
    34e8:	00f657b3          	srl	a5,a2,a5
    34ec:	8c5d                	or	s0,s0,a5
    34ee:	00b615b3          	sll	a1,a2,a1
    34f2:	954e                	add	a0,a0,s3
    34f4:	3f350993          	addi	s3,a0,1011
    34f8:	4601                	li	a2,0
    34fa:	bf49                	j	348c <__divdf3+0x96>
    34fc:	00946bb3          	or	s7,s0,s1
    3500:	060b8b63          	beqz	s7,3576 <__divdf3+0x180>
    3504:	c636                	sw	a3,12(sp)
    3506:	c432                	sw	a2,8(sp)
    3508:	30040263          	beqz	s0,380c <__divdf3+0x416>
    350c:	8522                	mv	a0,s0
    350e:	4bf010ef          	jal	ra,51cc <__clzsi2>
    3512:	4622                	lw	a2,8(sp)
    3514:	46b2                	lw	a3,12(sp)
    3516:	89aa                	mv	s3,a0
    3518:	ff550713          	addi	a4,a0,-11
    351c:	4bf5                	li	s7,29
    351e:	ff898c13          	addi	s8,s3,-8
    3522:	40eb8bb3          	sub	s7,s7,a4
    3526:	01841433          	sll	s0,s0,s8
    352a:	0174dbb3          	srl	s7,s1,s7
    352e:	008bebb3          	or	s7,s7,s0
    3532:	01849c33          	sll	s8,s1,s8
    3536:	c0d00513          	li	a0,-1011
    353a:	413509b3          	sub	s3,a0,s3
    353e:	4481                	li	s1,0
    3540:	4c81                	li	s9,0
    3542:	4901                	li	s2,0
    3544:	b731                	j	3450 <__divdf3+0x5a>
    3546:	00946bb3          	or	s7,s0,s1
    354a:	000b8f63          	beqz	s7,3568 <__divdf3+0x172>
    354e:	00c41793          	slli	a5,s0,0xc
    3552:	8c26                	mv	s8,s1
    3554:	8ba2                	mv	s7,s0
    3556:	44b1                	li	s1,12
    3558:	7ff00993          	li	s3,2047
    355c:	4c8d                	li	s9,3
    355e:	4941                	li	s2,16
    3560:	ee07d8e3          	bgez	a5,3450 <__divdf3+0x5a>
    3564:	4901                	li	s2,0
    3566:	b5ed                	j	3450 <__divdf3+0x5a>
    3568:	44a1                	li	s1,8
    356a:	4c01                	li	s8,0
    356c:	7ff00993          	li	s3,2047
    3570:	4c89                	li	s9,2
    3572:	4901                	li	s2,0
    3574:	bdf1                	j	3450 <__divdf3+0x5a>
    3576:	4491                	li	s1,4
    3578:	4c01                	li	s8,0
    357a:	4981                	li	s3,0
    357c:	4c85                	li	s9,1
    357e:	4901                	li	s2,0
    3580:	bdc1                	j	3450 <__divdf3+0x5a>
    3582:	0014e493          	ori	s1,s1,1
    3586:	4401                	li	s0,0
    3588:	4581                	li	a1,0
    358a:	4605                	li	a2,1
    358c:	b701                	j	348c <__divdf3+0x96>
    358e:	0024e493          	ori	s1,s1,2
    3592:	4401                	li	s0,0
    3594:	4581                	li	a1,0
    3596:	4609                	li	a2,2
    3598:	bdd5                	j	348c <__divdf3+0x96>
    359a:	4681                	li	a3,0
    359c:	7ff00713          	li	a4,2047
    35a0:	000807b7          	lui	a5,0x80
    35a4:	4401                	li	s0,0
    35a6:	07b2                	slli	a5,a5,0xc
    35a8:	0752                	slli	a4,a4,0x14
    35aa:	83b1                	srli	a5,a5,0xc
    35ac:	06fe                	slli	a3,a3,0x1f
    35ae:	8fd9                	or	a5,a5,a4
    35b0:	8fd5                	or	a5,a5,a3
    35b2:	8522                	mv	a0,s0
    35b4:	85be                	mv	a1,a5
    35b6:	0a091263          	bnez	s2,365a <__divdf3+0x264>
    35ba:	50f2                	lw	ra,60(sp)
    35bc:	5462                	lw	s0,56(sp)
    35be:	54d2                	lw	s1,52(sp)
    35c0:	5942                	lw	s2,48(sp)
    35c2:	59b2                	lw	s3,44(sp)
    35c4:	5a22                	lw	s4,40(sp)
    35c6:	5a92                	lw	s5,36(sp)
    35c8:	5b02                	lw	s6,32(sp)
    35ca:	4bf2                	lw	s7,28(sp)
    35cc:	4c62                	lw	s8,24(sp)
    35ce:	4cd2                	lw	s9,20(sp)
    35d0:	6121                	addi	sp,sp,64
    35d2:	8082                	ret
    35d4:	4701                	li	a4,0
    35d6:	4781                	li	a5,0
    35d8:	4401                	li	s0,0
    35da:	b7f1                	j	35a6 <__divdf3+0x1b0>
    35dc:	8852                	mv	a6,s4
    35de:	845e                	mv	s0,s7
    35e0:	85e2                	mv	a1,s8
    35e2:	8666                	mv	a2,s9
    35e4:	4789                	li	a5,2
    35e6:	52f60163          	beq	a2,a5,3b08 <__divdf3+0x712>
    35ea:	478d                	li	a5,3
    35ec:	faf607e3          	beq	a2,a5,359a <__divdf3+0x1a4>
    35f0:	4785                	li	a5,1
    35f2:	4cf60063          	beq	a2,a5,3ab2 <__divdf3+0x6bc>
    35f6:	3ff98613          	addi	a2,s3,1023
    35fa:	28c05a63          	blez	a2,388e <__divdf3+0x498>
    35fe:	0075f793          	andi	a5,a1,7
    3602:	42079463          	bnez	a5,3a2a <__divdf3+0x634>
    3606:	818d                	srli	a1,a1,0x3
    3608:	86c2                	mv	a3,a6
    360a:	00741793          	slli	a5,s0,0x7
    360e:	0007d863          	bgez	a5,361e <__divdf3+0x228>
    3612:	ff0007b7          	lui	a5,0xff000
    3616:	17fd                	addi	a5,a5,-1
    3618:	8c7d                	and	s0,s0,a5
    361a:	40098613          	addi	a2,s3,1024
    361e:	7fe00793          	li	a5,2046
    3622:	2ec7cb63          	blt	a5,a2,3918 <__divdf3+0x522>
    3626:	01d41713          	slli	a4,s0,0x1d
    362a:	00941793          	slli	a5,s0,0x9
    362e:	83b1                	srli	a5,a5,0xc
    3630:	00b76433          	or	s0,a4,a1
    3634:	7ff67713          	andi	a4,a2,2047
    3638:	b7bd                	j	35a6 <__divdf3+0x1b0>
    363a:	7ff00713          	li	a4,2047
    363e:	4781                	li	a5,0
    3640:	4401                	li	s0,0
    3642:	b795                	j	35a6 <__divdf3+0x1b0>
    3644:	8856                	mv	a6,s5
    3646:	bf79                	j	35e4 <__divdf3+0x1ee>
    3648:	00896913          	ori	s2,s2,8
    364c:	7ff00793          	li	a5,2047
    3650:	06fe                	slli	a3,a3,0x1f
    3652:	07d2                	slli	a5,a5,0x14
    3654:	8fd5                	or	a5,a5,a3
    3656:	4501                	li	a0,0
    3658:	85be                	mv	a1,a5
    365a:	00192073          	csrs	fflags,s2
    365e:	bfb1                	j	35ba <__divdf3+0x1c4>
    3660:	21746e63          	bltu	s0,s7,387c <__divdf3+0x486>
    3664:	208b8a63          	beq	s7,s0,3878 <__divdf3+0x482>
    3668:	87e2                	mv	a5,s8
    366a:	19fd                	addi	s3,s3,-1
    366c:	4c01                	li	s8,0
    366e:	0422                	slli	s0,s0,0x8
    3670:	0185d893          	srli	a7,a1,0x18
    3674:	0088e8b3          	or	a7,a7,s0
    3678:	0108d313          	srli	t1,a7,0x10
    367c:	026bd433          	divu	s0,s7,t1
    3680:	01089e13          	slli	t3,a7,0x10
    3684:	010e5e13          	srli	t3,t3,0x10
    3688:	0107d713          	srli	a4,a5,0x10
    368c:	00859e93          	slli	t4,a1,0x8
    3690:	026bfbb3          	remu	s7,s7,t1
    3694:	028e0633          	mul	a2,t3,s0
    3698:	0bc2                	slli	s7,s7,0x10
    369a:	01776733          	or	a4,a4,s7
    369e:	00c77b63          	bgeu	a4,a2,36b4 <__divdf3+0x2be>
    36a2:	9746                	add	a4,a4,a7
    36a4:	fff40593          	addi	a1,s0,-1
    36a8:	2d176a63          	bltu	a4,a7,397c <__divdf3+0x586>
    36ac:	2cc77863          	bgeu	a4,a2,397c <__divdf3+0x586>
    36b0:	1479                	addi	s0,s0,-2
    36b2:	9746                	add	a4,a4,a7
    36b4:	8f11                	sub	a4,a4,a2
    36b6:	02675533          	divu	a0,a4,t1
    36ba:	07c2                	slli	a5,a5,0x10
    36bc:	83c1                	srli	a5,a5,0x10
    36be:	02677733          	remu	a4,a4,t1
    36c2:	02ae02b3          	mul	t0,t3,a0
    36c6:	0742                	slli	a4,a4,0x10
    36c8:	8fd9                	or	a5,a5,a4
    36ca:	0057fb63          	bgeu	a5,t0,36e0 <__divdf3+0x2ea>
    36ce:	97c6                	add	a5,a5,a7
    36d0:	fff50713          	addi	a4,a0,-1
    36d4:	2b17e263          	bltu	a5,a7,3978 <__divdf3+0x582>
    36d8:	2a57f063          	bgeu	a5,t0,3978 <__divdf3+0x582>
    36dc:	1579                	addi	a0,a0,-2
    36de:	97c6                	add	a5,a5,a7
    36e0:	0442                	slli	s0,s0,0x10
    36e2:	63c1                	lui	t2,0x10
    36e4:	8c49                	or	s0,s0,a0
    36e6:	fff38513          	addi	a0,t2,-1 # ffff <_data_lma+0x40e3>
    36ea:	00a47633          	and	a2,s0,a0
    36ee:	01045593          	srli	a1,s0,0x10
    36f2:	010edf13          	srli	t5,t4,0x10
    36f6:	00aef533          	and	a0,t4,a0
    36fa:	02c50fb3          	mul	t6,a0,a2
    36fe:	405787b3          	sub	a5,a5,t0
    3702:	02cf0633          	mul	a2,t5,a2
    3706:	010fd713          	srli	a4,t6,0x10
    370a:	02a582b3          	mul	t0,a1,a0
    370e:	9616                	add	a2,a2,t0
    3710:	9732                	add	a4,a4,a2
    3712:	03e585b3          	mul	a1,a1,t5
    3716:	00577363          	bgeu	a4,t0,371c <__divdf3+0x326>
    371a:	959e                	add	a1,a1,t2
    371c:	62c1                	lui	t0,0x10
    371e:	12fd                	addi	t0,t0,-1
    3720:	01075613          	srli	a2,a4,0x10
    3724:	00577733          	and	a4,a4,t0
    3728:	0742                	slli	a4,a4,0x10
    372a:	005fffb3          	and	t6,t6,t0
    372e:	962e                	add	a2,a2,a1
    3730:	977e                	add	a4,a4,t6
    3732:	12c7e463          	bltu	a5,a2,385a <__divdf3+0x464>
    3736:	12c78063          	beq	a5,a2,3856 <__divdf3+0x460>
    373a:	40ec0733          	sub	a4,s8,a4
    373e:	8f91                	sub	a5,a5,a2
    3740:	00ec3c33          	sltu	s8,s8,a4
    3744:	418787b3          	sub	a5,a5,s8
    3748:	3ff98613          	addi	a2,s3,1023
    374c:	2af88f63          	beq	a7,a5,3a0a <__divdf3+0x614>
    3750:	0267d5b3          	divu	a1,a5,t1
    3754:	01075693          	srli	a3,a4,0x10
    3758:	0267f7b3          	remu	a5,a5,t1
    375c:	02be0fb3          	mul	t6,t3,a1
    3760:	07c2                	slli	a5,a5,0x10
    3762:	8fd5                	or	a5,a5,a3
    3764:	01f7fb63          	bgeu	a5,t6,377a <__divdf3+0x384>
    3768:	97c6                	add	a5,a5,a7
    376a:	fff58693          	addi	a3,a1,-1
    376e:	2f17e063          	bltu	a5,a7,3a4e <__divdf3+0x658>
    3772:	2df7fe63          	bgeu	a5,t6,3a4e <__divdf3+0x658>
    3776:	15f9                	addi	a1,a1,-2
    3778:	97c6                	add	a5,a5,a7
    377a:	41f787b3          	sub	a5,a5,t6
    377e:	0267d6b3          	divu	a3,a5,t1
    3782:	0742                	slli	a4,a4,0x10
    3784:	8341                	srli	a4,a4,0x10
    3786:	0267f7b3          	remu	a5,a5,t1
    378a:	02de0e33          	mul	t3,t3,a3
    378e:	07c2                	slli	a5,a5,0x10
    3790:	8fd9                	or	a5,a5,a4
    3792:	01c7fb63          	bgeu	a5,t3,37a8 <__divdf3+0x3b2>
    3796:	97c6                	add	a5,a5,a7
    3798:	fff68713          	addi	a4,a3,-1
    379c:	2b17eb63          	bltu	a5,a7,3a52 <__divdf3+0x65c>
    37a0:	2bc7f963          	bgeu	a5,t3,3a52 <__divdf3+0x65c>
    37a4:	16f9                	addi	a3,a3,-2
    37a6:	97c6                	add	a5,a5,a7
    37a8:	05c2                	slli	a1,a1,0x10
    37aa:	8dd5                	or	a1,a1,a3
    37ac:	01059693          	slli	a3,a1,0x10
    37b0:	0105df93          	srli	t6,a1,0x10
    37b4:	82c1                	srli	a3,a3,0x10
    37b6:	02a68333          	mul	t1,a3,a0
    37ba:	41c787b3          	sub	a5,a5,t3
    37be:	02df06b3          	mul	a3,t5,a3
    37c2:	01035713          	srli	a4,t1,0x10
    37c6:	02af8533          	mul	a0,t6,a0
    37ca:	96aa                	add	a3,a3,a0
    37cc:	9736                	add	a4,a4,a3
    37ce:	03ff0f33          	mul	t5,t5,t6
    37d2:	00a77463          	bgeu	a4,a0,37da <__divdf3+0x3e4>
    37d6:	66c1                	lui	a3,0x10
    37d8:	9f36                	add	t5,t5,a3
    37da:	6541                	lui	a0,0x10
    37dc:	157d                	addi	a0,a0,-1
    37de:	01075693          	srli	a3,a4,0x10
    37e2:	8f69                	and	a4,a4,a0
    37e4:	0742                	slli	a4,a4,0x10
    37e6:	00a37333          	and	t1,t1,a0
    37ea:	9f36                	add	t5,t5,a3
    37ec:	971a                	add	a4,a4,t1
    37ee:	17e7fa63          	bgeu	a5,t5,3962 <__divdf3+0x56c>
    37f2:	97c6                	add	a5,a5,a7
    37f4:	fff58693          	addi	a3,a1,-1
    37f8:	2d17e263          	bltu	a5,a7,3abc <__divdf3+0x6c6>
    37fc:	27e7eb63          	bltu	a5,t5,3a72 <__divdf3+0x67c>
    3800:	35e78a63          	beq	a5,t5,3b54 <__divdf3+0x75e>
    3804:	85b6                	mv	a1,a3
    3806:	0015e593          	ori	a1,a1,1
    380a:	bbc5                	j	35fa <__divdf3+0x204>
    380c:	8526                	mv	a0,s1
    380e:	1bf010ef          	jal	ra,51cc <__clzsi2>
    3812:	01550713          	addi	a4,a0,21 # 10015 <_data_lma+0x40f9>
    3816:	45f1                	li	a1,28
    3818:	02050993          	addi	s3,a0,32
    381c:	4622                	lw	a2,8(sp)
    381e:	46b2                	lw	a3,12(sp)
    3820:	cee5dee3          	bge	a1,a4,351c <__divdf3+0x126>
    3824:	ff850413          	addi	s0,a0,-8
    3828:	00849bb3          	sll	s7,s1,s0
    382c:	4c01                	li	s8,0
    382e:	b321                	j	3536 <__divdf3+0x140>
    3830:	8532                	mv	a0,a2
    3832:	c432                	sw	a2,8(sp)
    3834:	199010ef          	jal	ra,51cc <__clzsi2>
    3838:	01550713          	addi	a4,a0,21
    383c:	46f1                	li	a3,28
    383e:	87aa                	mv	a5,a0
    3840:	4622                	lw	a2,8(sp)
    3842:	02050513          	addi	a0,a0,32
    3846:	c8e6dbe3          	bge	a3,a4,34dc <__divdf3+0xe6>
    384a:	ff878413          	addi	s0,a5,-8 # fefffff8 <_eusrstack+0xdefdfff8>
    384e:	4581                	li	a1,0
    3850:	00861433          	sll	s0,a2,s0
    3854:	b979                	j	34f2 <__divdf3+0xfc>
    3856:	eeec72e3          	bgeu	s8,a4,373a <__divdf3+0x344>
    385a:	9c76                	add	s8,s8,t4
    385c:	01dc35b3          	sltu	a1,s8,t4
    3860:	95c6                	add	a1,a1,a7
    3862:	97ae                	add	a5,a5,a1
    3864:	fff40593          	addi	a1,s0,-1
    3868:	10f8f263          	bgeu	a7,a5,396c <__divdf3+0x576>
    386c:	18c7e863          	bltu	a5,a2,39fc <__divdf3+0x606>
    3870:	18f60463          	beq	a2,a5,39f8 <__divdf3+0x602>
    3874:	842e                	mv	s0,a1
    3876:	b5d1                	j	373a <__divdf3+0x344>
    3878:	debc68e3          	bltu	s8,a1,3668 <__divdf3+0x272>
    387c:	01fb9713          	slli	a4,s7,0x1f
    3880:	001c5793          	srli	a5,s8,0x1
    3884:	001bdb93          	srli	s7,s7,0x1
    3888:	8fd9                	or	a5,a5,a4
    388a:	0c7e                	slli	s8,s8,0x1f
    388c:	b3cd                	j	366e <__divdf3+0x278>
    388e:	86c2                	mv	a3,a6
    3890:	e635                	bnez	a2,38fc <__divdf3+0x506>
    3892:	0075f613          	andi	a2,a1,7
    3896:	88a2                	mv	a7,s0
    3898:	24061263          	bnez	a2,3adc <__divdf3+0x6e6>
    389c:	8061                	srli	s0,s0,0x18
    389e:	00144413          	xori	s0,s0,1
    38a2:	00147613          	andi	a2,s0,1
    38a6:	4785                	li	a5,1
    38a8:	41e98513          	addi	a0,s3,1054
    38ac:	00a89733          	sll	a4,a7,a0
    38b0:	00f5d433          	srl	s0,a1,a5
    38b4:	00a595b3          	sll	a1,a1,a0
    38b8:	8c59                	or	s0,s0,a4
    38ba:	00b035b3          	snez	a1,a1
    38be:	8c4d                	or	s0,s0,a1
    38c0:	00747593          	andi	a1,s0,7
    38c4:	00f8d733          	srl	a4,a7,a5
    38c8:	c999                	beqz	a1,38de <__divdf3+0x4e8>
    38ca:	4789                	li	a5,2
    38cc:	00196913          	ori	s2,s2,1
    38d0:	2efb0663          	beq	s6,a5,3bbc <__divdf3+0x7c6>
    38d4:	478d                	li	a5,3
    38d6:	2cfb0863          	beq	s6,a5,3ba6 <__divdf3+0x7b0>
    38da:	280b0563          	beqz	s6,3b64 <__divdf3+0x76e>
    38de:	00871793          	slli	a5,a4,0x8
    38e2:	2207dd63          	bgez	a5,3b1c <__divdf3+0x726>
    38e6:	00196913          	ori	s2,s2,1
    38ea:	4785                	li	a5,1
    38ec:	d60602e3          	beqz	a2,3650 <__divdf3+0x25a>
    38f0:	4605                	li	a2,1
    38f2:	4781                	li	a5,0
    38f4:	4401                	li	s0,0
    38f6:	00296913          	ori	s2,s2,2
    38fa:	a081                	j	393a <__divdf3+0x544>
    38fc:	4785                	li	a5,1
    38fe:	8f91                	sub	a5,a5,a2
    3900:	03800713          	li	a4,56
    3904:	08f75c63          	bge	a4,a5,399c <__divdf3+0x5a6>
    3908:	8c4d                	or	s0,s0,a1
    390a:	14041663          	bnez	s0,3a56 <__divdf3+0x660>
    390e:	00296913          	ori	s2,s2,2
    3912:	4601                	li	a2,0
    3914:	4781                	li	a5,0
    3916:	a015                	j	393a <__divdf3+0x544>
    3918:	4789                	li	a5,2
    391a:	0cfb0c63          	beq	s6,a5,39f2 <__divdf3+0x5fc>
    391e:	478d                	li	a5,3
    3920:	06fb0063          	beq	s6,a5,3980 <__divdf3+0x58a>
    3924:	060b0063          	beqz	s6,3984 <__divdf3+0x58e>
    3928:	00100437          	lui	s0,0x100
    392c:	fff40793          	addi	a5,s0,-1 # fffff <_data_lma+0xf40e3>
    3930:	7fe00613          	li	a2,2046
    3934:	547d                	li	s0,-1
    3936:	00596913          	ori	s2,s2,5
    393a:	00c79713          	slli	a4,a5,0xc
    393e:	8331                	srli	a4,a4,0xc
    3940:	01461793          	slli	a5,a2,0x14
    3944:	06fe                	slli	a3,a3,0x1f
    3946:	8fd9                	or	a5,a5,a4
    3948:	8fd5                	or	a5,a5,a3
    394a:	8522                	mv	a0,s0
    394c:	85be                	mv	a1,a5
    394e:	00192073          	csrs	fflags,s2
    3952:	b1a5                	j	35ba <__divdf3+0x1c4>
    3954:	4501                	li	a0,0
    3956:	7ff805b7          	lui	a1,0x7ff80
    395a:	4941                	li	s2,16
    395c:	00192073          	csrs	fflags,s2
    3960:	b9a9                	j	35ba <__divdf3+0x1c4>
    3962:	ebe792e3          	bne	a5,t5,3806 <__divdf3+0x410>
    3966:	c8070ae3          	beqz	a4,35fa <__divdf3+0x204>
    396a:	b561                	j	37f2 <__divdf3+0x3fc>
    396c:	f0f894e3          	bne	a7,a5,3874 <__divdf3+0x47e>
    3970:	efdc7ee3          	bgeu	s8,t4,386c <__divdf3+0x476>
    3974:	842e                	mv	s0,a1
    3976:	b3d1                	j	373a <__divdf3+0x344>
    3978:	853a                	mv	a0,a4
    397a:	b39d                	j	36e0 <__divdf3+0x2ea>
    397c:	842e                	mv	s0,a1
    397e:	bb1d                	j	36b4 <__divdf3+0x2be>
    3980:	fa0814e3          	bnez	a6,3928 <__divdf3+0x532>
    3984:	7ff00613          	li	a2,2047
    3988:	4781                	li	a5,0
    398a:	4401                	li	s0,0
    398c:	b76d                	j	3936 <__divdf3+0x540>
    398e:	4785                	li	a5,1
    3990:	8f91                	sub	a5,a5,a2
    3992:	03800713          	li	a4,56
    3996:	0cf74063          	blt	a4,a5,3a56 <__divdf3+0x660>
    399a:	55fd                	li	a1,-1
    399c:	477d                	li	a4,31
    399e:	22f75e63          	bge	a4,a5,3bda <__divdf3+0x7e4>
    39a2:	5705                	li	a4,-31
    39a4:	8f11                	sub	a4,a4,a2
    39a6:	02000613          	li	a2,32
    39aa:	00e45733          	srl	a4,s0,a4
    39ae:	00c78763          	beq	a5,a2,39bc <__divdf3+0x5c6>
    39b2:	43e98513          	addi	a0,s3,1086
    39b6:	00a41433          	sll	s0,s0,a0
    39ba:	8dc1                	or	a1,a1,s0
    39bc:	00b03433          	snez	s0,a1
    39c0:	8c59                	or	s0,s0,a4
    39c2:	00747793          	andi	a5,s0,7
    39c6:	cb99                	beqz	a5,39dc <__divdf3+0x5e6>
    39c8:	4789                	li	a5,2
    39ca:	00196913          	ori	s2,s2,1
    39ce:	1efb0563          	beq	s6,a5,3bb8 <__divdf3+0x7c2>
    39d2:	478d                	li	a5,3
    39d4:	1cfb0763          	beq	s6,a5,3ba2 <__divdf3+0x7ac>
    39d8:	180b0463          	beqz	s6,3b60 <__divdf3+0x76a>
    39dc:	800d                	srli	s0,s0,0x3
    39de:	4781                	li	a5,0
    39e0:	00197613          	andi	a2,s2,1
    39e4:	4701                	li	a4,0
    39e6:	bc0600e3          	beqz	a2,35a6 <__divdf3+0x1b0>
    39ea:	4601                	li	a2,0
    39ec:	00296913          	ori	s2,s2,2
    39f0:	b7a9                	j	393a <__divdf3+0x544>
    39f2:	f2080be3          	beqz	a6,3928 <__divdf3+0x532>
    39f6:	b779                	j	3984 <__divdf3+0x58e>
    39f8:	e6ec7ee3          	bgeu	s8,a4,3874 <__divdf3+0x47e>
    39fc:	9c76                	add	s8,s8,t4
    39fe:	01dc35b3          	sltu	a1,s8,t4
    3a02:	95c6                	add	a1,a1,a7
    3a04:	1479                	addi	s0,s0,-2
    3a06:	97ae                	add	a5,a5,a1
    3a08:	bb0d                	j	373a <__divdf3+0x344>
    3a0a:	08c05363          	blez	a2,3a90 <__divdf3+0x69a>
    3a0e:	4789                	li	a5,2
    3a10:	00196913          	ori	s2,s2,1
    3a14:	0afb0e63          	beq	s6,a5,3ad0 <__divdf3+0x6da>
    3a18:	478d                	li	a5,3
    3a1a:	0afb0563          	beq	s6,a5,3ac4 <__divdf3+0x6ce>
    3a1e:	0e0b0b63          	beqz	s6,3b14 <__divdf3+0x71e>
    3a22:	200005b7          	lui	a1,0x20000
    3a26:	15fd                	addi	a1,a1,-1
    3a28:	b6cd                	j	360a <__divdf3+0x214>
    3a2a:	4789                	li	a5,2
    3a2c:	00196913          	ori	s2,s2,1
    3a30:	0afb0163          	beq	s6,a5,3ad2 <__divdf3+0x6dc>
    3a34:	478d                	li	a5,3
    3a36:	08fb0863          	beq	s6,a5,3ac6 <__divdf3+0x6d0>
    3a3a:	bc0b16e3          	bnez	s6,3606 <__divdf3+0x210>
    3a3e:	00f5f793          	andi	a5,a1,15
    3a42:	4711                	li	a4,4
    3a44:	86c2                	mv	a3,a6
    3a46:	16e79e63          	bne	a5,a4,3bc2 <__divdf3+0x7cc>
    3a4a:	818d                	srli	a1,a1,0x3
    3a4c:	be7d                	j	360a <__divdf3+0x214>
    3a4e:	85b6                	mv	a1,a3
    3a50:	b32d                	j	377a <__divdf3+0x384>
    3a52:	86ba                	mv	a3,a4
    3a54:	bb91                	j	37a8 <__divdf3+0x3b2>
    3a56:	4789                	li	a5,2
    3a58:	00196913          	ori	s2,s2,1
    3a5c:	01003433          	snez	s0,a6
    3a60:	eafb07e3          	beq	s6,a5,390e <__divdf3+0x518>
    3a64:	478d                	li	a5,3
    3a66:	4401                	li	s0,0
    3a68:	eafb13e3          	bne	s6,a5,390e <__divdf3+0x518>
    3a6c:	00183413          	seqz	s0,a6
    3a70:	bd79                	j	390e <__divdf3+0x518>
    3a72:	001e9693          	slli	a3,t4,0x1
    3a76:	01d6beb3          	sltu	t4,a3,t4
    3a7a:	98f6                	add	a7,a7,t4
    3a7c:	97c6                	add	a5,a5,a7
    3a7e:	15f9                	addi	a1,a1,-2
    3a80:	8eb6                	mv	t4,a3
    3a82:	d9e792e3          	bne	a5,t5,3806 <__divdf3+0x410>
    3a86:	b7d70ae3          	beq	a4,t4,35fa <__divdf3+0x204>
    3a8a:	0015e593          	ori	a1,a1,1
    3a8e:	b6b5                	j	35fa <__divdf3+0x204>
    3a90:	ee061fe3          	bnez	a2,398e <__divdf3+0x598>
    3a94:	4789                	li	a5,2
    3a96:	00196913          	ori	s2,s2,1
    3a9a:	0efb0d63          	beq	s6,a5,3b94 <__divdf3+0x79e>
    3a9e:	478d                	li	a5,3
    3aa0:	0cfb0e63          	beq	s6,a5,3b7c <__divdf3+0x786>
    3aa4:	120b0763          	beqz	s6,3bd2 <__divdf3+0x7dc>
    3aa8:	88a2                	mv	a7,s0
    3aaa:	55fd                	li	a1,-1
    3aac:	c0100993          	li	s3,-1023
    3ab0:	b3f5                	j	389c <__divdf3+0x4a6>
    3ab2:	86c2                	mv	a3,a6
    3ab4:	4701                	li	a4,0
    3ab6:	4781                	li	a5,0
    3ab8:	4401                	li	s0,0
    3aba:	b4f5                	j	35a6 <__divdf3+0x1b0>
    3abc:	85b6                	mv	a1,a3
    3abe:	fde784e3          	beq	a5,t5,3a86 <__divdf3+0x690>
    3ac2:	b391                	j	3806 <__divdf3+0x410>
    3ac4:	55fd                	li	a1,-1
    3ac6:	06080e63          	beqz	a6,3b42 <__divdf3+0x74c>
    3aca:	818d                	srli	a1,a1,0x3
    3acc:	4685                	li	a3,1
    3ace:	be35                	j	360a <__divdf3+0x214>
    3ad0:	55fd                	li	a1,-1
    3ad2:	04081f63          	bnez	a6,3b30 <__divdf3+0x73a>
    3ad6:	818d                	srli	a1,a1,0x3
    3ad8:	4681                	li	a3,0
    3ada:	be05                	j	360a <__divdf3+0x214>
    3adc:	4789                	li	a5,2
    3ade:	00196913          	ori	s2,s2,1
    3ae2:	0afb0d63          	beq	s6,a5,3b9c <__divdf3+0x7a6>
    3ae6:	478d                	li	a5,3
    3ae8:	08fb0d63          	beq	s6,a5,3b82 <__divdf3+0x78c>
    3aec:	da0b18e3          	bnez	s6,389c <__divdf3+0x4a6>
    3af0:	00f5f793          	andi	a5,a1,15
    3af4:	4711                	li	a4,4
    3af6:	dae783e3          	beq	a5,a4,389c <__divdf3+0x4a6>
    3afa:	ffc5b793          	sltiu	a5,a1,-4
    3afe:	0017c793          	xori	a5,a5,1
    3b02:	88a2                	mv	a7,s0
    3b04:	943e                	add	s0,s0,a5
    3b06:	bb59                	j	389c <__divdf3+0x4a6>
    3b08:	86c2                	mv	a3,a6
    3b0a:	7ff00713          	li	a4,2047
    3b0e:	4781                	li	a5,0
    3b10:	4401                	li	s0,0
    3b12:	bc51                	j	35a6 <__divdf3+0x1b0>
    3b14:	4785                	li	a5,1
    3b16:	4581                	li	a1,0
    3b18:	943e                	add	s0,s0,a5
    3b1a:	bcc5                	j	360a <__divdf3+0x214>
    3b1c:	00971793          	slli	a5,a4,0x9
    3b20:	800d                	srli	s0,s0,0x3
    3b22:	0776                	slli	a4,a4,0x1d
    3b24:	83b1                	srli	a5,a5,0xc
    3b26:	8c59                	or	s0,s0,a4
    3b28:	ea061ce3          	bnez	a2,39e0 <__divdf3+0x5ea>
    3b2c:	4701                	li	a4,0
    3b2e:	bca5                	j	35a6 <__divdf3+0x1b0>
    3b30:	00858793          	addi	a5,a1,8 # 20000008 <_data_vma+0x8>
    3b34:	00b7b5b3          	sltu	a1,a5,a1
    3b38:	942e                	add	s0,s0,a1
    3b3a:	4685                	li	a3,1
    3b3c:	0037d593          	srli	a1,a5,0x3
    3b40:	b4e9                	j	360a <__divdf3+0x214>
    3b42:	00858793          	addi	a5,a1,8
    3b46:	00b7b5b3          	sltu	a1,a5,a1
    3b4a:	942e                	add	s0,s0,a1
    3b4c:	4681                	li	a3,0
    3b4e:	0037d593          	srli	a1,a5,0x3
    3b52:	bc65                	j	360a <__divdf3+0x214>
    3b54:	f0eeefe3          	bltu	t4,a4,3a72 <__divdf3+0x67c>
    3b58:	85b6                	mv	a1,a3
    3b5a:	f3d718e3          	bne	a4,t4,3a8a <__divdf3+0x694>
    3b5e:	bc71                	j	35fa <__divdf3+0x204>
    3b60:	4605                	li	a2,1
    3b62:	4701                	li	a4,0
    3b64:	00f47793          	andi	a5,s0,15
    3b68:	4591                	li	a1,4
    3b6a:	d6b78ae3          	beq	a5,a1,38de <__divdf3+0x4e8>
    3b6e:	00440793          	addi	a5,s0,4
    3b72:	0087b433          	sltu	s0,a5,s0
    3b76:	9722                	add	a4,a4,s0
    3b78:	843e                	mv	s0,a5
    3b7a:	b395                	j	38de <__divdf3+0x4e8>
    3b7c:	55fd                	li	a1,-1
    3b7e:	c0100993          	li	s3,-1023
    3b82:	88a2                	mv	a7,s0
    3b84:	d0081ce3          	bnez	a6,389c <__divdf3+0x4a6>
    3b88:	ff85b793          	sltiu	a5,a1,-8
    3b8c:	0017c793          	xori	a5,a5,1
    3b90:	943e                	add	s0,s0,a5
    3b92:	b329                	j	389c <__divdf3+0x4a6>
    3b94:	88a2                	mv	a7,s0
    3b96:	55fd                	li	a1,-1
    3b98:	c0100993          	li	s3,-1023
    3b9c:	d00800e3          	beqz	a6,389c <__divdf3+0x4a6>
    3ba0:	b7e5                	j	3b88 <__divdf3+0x792>
    3ba2:	4605                	li	a2,1
    3ba4:	4701                	li	a4,0
    3ba6:	d2081ce3          	bnez	a6,38de <__divdf3+0x4e8>
    3baa:	00840793          	addi	a5,s0,8
    3bae:	0087b433          	sltu	s0,a5,s0
    3bb2:	9722                	add	a4,a4,s0
    3bb4:	843e                	mv	s0,a5
    3bb6:	b325                	j	38de <__divdf3+0x4e8>
    3bb8:	4605                	li	a2,1
    3bba:	4701                	li	a4,0
    3bbc:	d20801e3          	beqz	a6,38de <__divdf3+0x4e8>
    3bc0:	b7ed                	j	3baa <__divdf3+0x7b4>
    3bc2:	ffc5b793          	sltiu	a5,a1,-4
    3bc6:	0017c793          	xori	a5,a5,1
    3bca:	0591                	addi	a1,a1,4
    3bcc:	818d                	srli	a1,a1,0x3
    3bce:	943e                	add	s0,s0,a5
    3bd0:	bc2d                	j	360a <__divdf3+0x214>
    3bd2:	55fd                	li	a1,-1
    3bd4:	c0100993          	li	s3,-1023
    3bd8:	b70d                	j	3afa <__divdf3+0x704>
    3bda:	88a2                	mv	a7,s0
    3bdc:	4605                	li	a2,1
    3bde:	b1e9                	j	38a8 <__divdf3+0x4b2>

00003be0 <__muldf3>:
    3be0:	7139                	addi	sp,sp,-64
    3be2:	d452                	sw	s4,40(sp)
    3be4:	de06                	sw	ra,60(sp)
    3be6:	dc22                	sw	s0,56(sp)
    3be8:	da26                	sw	s1,52(sp)
    3bea:	d84a                	sw	s2,48(sp)
    3bec:	d64e                	sw	s3,44(sp)
    3bee:	d256                	sw	s5,36(sp)
    3bf0:	d05a                	sw	s6,32(sp)
    3bf2:	ce5e                	sw	s7,28(sp)
    3bf4:	cc62                	sw	s8,24(sp)
    3bf6:	ca66                	sw	s9,20(sp)
    3bf8:	8a2a                	mv	s4,a0
    3bfa:	00202b73          	frrm	s6
    3bfe:	0145d913          	srli	s2,a1,0x14
    3c02:	00c59993          	slli	s3,a1,0xc
    3c06:	7ff97913          	andi	s2,s2,2047
    3c0a:	00c9d993          	srli	s3,s3,0xc
    3c0e:	01f5db93          	srli	s7,a1,0x1f
    3c12:	12090e63          	beqz	s2,3d4e <__muldf3+0x16e>
    3c16:	7ff00793          	li	a5,2047
    3c1a:	16f90d63          	beq	s2,a5,3d94 <__muldf3+0x1b4>
    3c1e:	01d55413          	srli	s0,a0,0x1d
    3c22:	098e                	slli	s3,s3,0x3
    3c24:	013469b3          	or	s3,s0,s3
    3c28:	00800437          	lui	s0,0x800
    3c2c:	0089e433          	or	s0,s3,s0
    3c30:	00351493          	slli	s1,a0,0x3
    3c34:	c0190913          	addi	s2,s2,-1023
    3c38:	4a01                	li	s4,0
    3c3a:	4c81                	li	s9,0
    3c3c:	4a81                	li	s5,0
    3c3e:	0146d793          	srli	a5,a3,0x14
    3c42:	00c69993          	slli	s3,a3,0xc
    3c46:	7ff7f793          	andi	a5,a5,2047
    3c4a:	85b2                	mv	a1,a2
    3c4c:	00c9d993          	srli	s3,s3,0xc
    3c50:	01f6dc13          	srli	s8,a3,0x1f
    3c54:	cfd5                	beqz	a5,3d10 <__muldf3+0x130>
    3c56:	7ff00713          	li	a4,2047
    3c5a:	04e78463          	beq	a5,a4,3ca2 <__muldf3+0xc2>
    3c5e:	00399513          	slli	a0,s3,0x3
    3c62:	01d65993          	srli	s3,a2,0x1d
    3c66:	00a9e9b3          	or	s3,s3,a0
    3c6a:	c0178793          	addi	a5,a5,-1023
    3c6e:	00800537          	lui	a0,0x800
    3c72:	00a9e9b3          	or	s3,s3,a0
    3c76:	00361593          	slli	a1,a2,0x3
    3c7a:	993e                	add	s2,s2,a5
    3c7c:	4801                	li	a6,0
    3c7e:	018bc633          	xor	a2,s7,s8
    3c82:	47bd                	li	a5,15
    3c84:	86b2                	mv	a3,a2
    3c86:	00190713          	addi	a4,s2,1
    3c8a:	1747ef63          	bltu	a5,s4,3e08 <__muldf3+0x228>
    3c8e:	00008517          	auipc	a0,0x8
    3c92:	0b250513          	addi	a0,a0,178 # bd40 <tri_odd+0x4b0>
    3c96:	0a0a                	slli	s4,s4,0x2
    3c98:	9a2a                	add	s4,s4,a0
    3c9a:	000a2783          	lw	a5,0(s4)
    3c9e:	97aa                	add	a5,a5,a0
    3ca0:	8782                	jr	a5
    3ca2:	00c9e633          	or	a2,s3,a2
    3ca6:	7ff90913          	addi	s2,s2,2047
    3caa:	12060863          	beqz	a2,3dda <__muldf3+0x1fa>
    3cae:	00c99793          	slli	a5,s3,0xc
    3cb2:	003a6a13          	ori	s4,s4,3
    3cb6:	480d                	li	a6,3
    3cb8:	fc07c3e3          	bltz	a5,3c7e <__muldf3+0x9e>
    3cbc:	4ac1                	li	s5,16
    3cbe:	b7c1                	j	3c7e <__muldf3+0x9e>
    3cc0:	86e2                	mv	a3,s8
    3cc2:	844e                	mv	s0,s3
    3cc4:	84ae                	mv	s1,a1
    3cc6:	8cc2                	mv	s9,a6
    3cc8:	4789                	li	a5,2
    3cca:	12fc8963          	beq	s9,a5,3dfc <__muldf3+0x21c>
    3cce:	478d                	li	a5,3
    3cd0:	10fc8b63          	beq	s9,a5,3de6 <__muldf3+0x206>
    3cd4:	4785                	li	a5,1
    3cd6:	8636                	mv	a2,a3
    3cd8:	4cfc9263          	bne	s9,a5,419c <__muldf3+0x5bc>
    3cdc:	4701                	li	a4,0
    3cde:	4781                	li	a5,0
    3ce0:	4401                	li	s0,0
    3ce2:	07b2                	slli	a5,a5,0xc
    3ce4:	0752                	slli	a4,a4,0x14
    3ce6:	83b1                	srli	a5,a5,0xc
    3ce8:	067e                	slli	a2,a2,0x1f
    3cea:	8fd9                	or	a5,a5,a4
    3cec:	8fd1                	or	a5,a5,a2
    3cee:	8522                	mv	a0,s0
    3cf0:	85be                	mv	a1,a5
    3cf2:	340a9963          	bnez	s5,4044 <__muldf3+0x464>
    3cf6:	50f2                	lw	ra,60(sp)
    3cf8:	5462                	lw	s0,56(sp)
    3cfa:	54d2                	lw	s1,52(sp)
    3cfc:	5942                	lw	s2,48(sp)
    3cfe:	59b2                	lw	s3,44(sp)
    3d00:	5a22                	lw	s4,40(sp)
    3d02:	5a92                	lw	s5,36(sp)
    3d04:	5b02                	lw	s6,32(sp)
    3d06:	4bf2                	lw	s7,28(sp)
    3d08:	4c62                	lw	s8,24(sp)
    3d0a:	4cd2                	lw	s9,20(sp)
    3d0c:	6121                	addi	sp,sp,64
    3d0e:	8082                	ret
    3d10:	00c9e7b3          	or	a5,s3,a2
    3d14:	cfcd                	beqz	a5,3dce <__muldf3+0x1ee>
    3d16:	34098a63          	beqz	s3,406a <__muldf3+0x48a>
    3d1a:	854e                	mv	a0,s3
    3d1c:	c432                	sw	a2,8(sp)
    3d1e:	4ae010ef          	jal	ra,51cc <__clzsi2>
    3d22:	4622                	lw	a2,8(sp)
    3d24:	87aa                	mv	a5,a0
    3d26:	ff550693          	addi	a3,a0,-11
    3d2a:	4775                	li	a4,29
    3d2c:	ff878593          	addi	a1,a5,-8
    3d30:	8f15                	sub	a4,a4,a3
    3d32:	00b999b3          	sll	s3,s3,a1
    3d36:	00e65733          	srl	a4,a2,a4
    3d3a:	013769b3          	or	s3,a4,s3
    3d3e:	00b615b3          	sll	a1,a2,a1
    3d42:	40f90933          	sub	s2,s2,a5
    3d46:	c0d90913          	addi	s2,s2,-1011
    3d4a:	4801                	li	a6,0
    3d4c:	bf0d                	j	3c7e <__muldf3+0x9e>
    3d4e:	00a9e433          	or	s0,s3,a0
    3d52:	c825                	beqz	s0,3dc2 <__muldf3+0x1e2>
    3d54:	c636                	sw	a3,12(sp)
    3d56:	c432                	sw	a2,8(sp)
    3d58:	2e098963          	beqz	s3,404a <__muldf3+0x46a>
    3d5c:	854e                	mv	a0,s3
    3d5e:	46e010ef          	jal	ra,51cc <__clzsi2>
    3d62:	4622                	lw	a2,8(sp)
    3d64:	46b2                	lw	a3,12(sp)
    3d66:	87aa                	mv	a5,a0
    3d68:	ff550713          	addi	a4,a0,-11
    3d6c:	4475                	li	s0,29
    3d6e:	ff878493          	addi	s1,a5,-8
    3d72:	8c19                	sub	s0,s0,a4
    3d74:	009999b3          	sll	s3,s3,s1
    3d78:	008a5433          	srl	s0,s4,s0
    3d7c:	01346433          	or	s0,s0,s3
    3d80:	009a14b3          	sll	s1,s4,s1
    3d84:	c0d00913          	li	s2,-1011
    3d88:	40f90933          	sub	s2,s2,a5
    3d8c:	4a01                	li	s4,0
    3d8e:	4c81                	li	s9,0
    3d90:	4a81                	li	s5,0
    3d92:	b575                	j	3c3e <__muldf3+0x5e>
    3d94:	00a9e433          	or	s0,s3,a0
    3d98:	cc11                	beqz	s0,3db4 <__muldf3+0x1d4>
    3d9a:	00c99793          	slli	a5,s3,0xc
    3d9e:	84aa                	mv	s1,a0
    3da0:	844e                	mv	s0,s3
    3da2:	4a31                	li	s4,12
    3da4:	7ff00913          	li	s2,2047
    3da8:	4c8d                	li	s9,3
    3daa:	4ac1                	li	s5,16
    3dac:	e807d9e3          	bgez	a5,3c3e <__muldf3+0x5e>
    3db0:	4a81                	li	s5,0
    3db2:	b571                	j	3c3e <__muldf3+0x5e>
    3db4:	4a21                	li	s4,8
    3db6:	4481                	li	s1,0
    3db8:	7ff00913          	li	s2,2047
    3dbc:	4c89                	li	s9,2
    3dbe:	4a81                	li	s5,0
    3dc0:	bdbd                	j	3c3e <__muldf3+0x5e>
    3dc2:	4a11                	li	s4,4
    3dc4:	4481                	li	s1,0
    3dc6:	4901                	li	s2,0
    3dc8:	4c85                	li	s9,1
    3dca:	4a81                	li	s5,0
    3dcc:	bd8d                	j	3c3e <__muldf3+0x5e>
    3dce:	001a6a13          	ori	s4,s4,1
    3dd2:	4981                	li	s3,0
    3dd4:	4581                	li	a1,0
    3dd6:	4805                	li	a6,1
    3dd8:	b55d                	j	3c7e <__muldf3+0x9e>
    3dda:	002a6a13          	ori	s4,s4,2
    3dde:	4981                	li	s3,0
    3de0:	4581                	li	a1,0
    3de2:	4809                	li	a6,2
    3de4:	bd69                	j	3c7e <__muldf3+0x9e>
    3de6:	4601                	li	a2,0
    3de8:	7ff00713          	li	a4,2047
    3dec:	000807b7          	lui	a5,0x80
    3df0:	4401                	li	s0,0
    3df2:	bdc5                	j	3ce2 <__muldf3+0x102>
    3df4:	4789                	li	a5,2
    3df6:	86de                	mv	a3,s7
    3df8:	ecfc9be3          	bne	s9,a5,3cce <__muldf3+0xee>
    3dfc:	8636                	mv	a2,a3
    3dfe:	7ff00713          	li	a4,2047
    3e02:	4781                	li	a5,0
    3e04:	4401                	li	s0,0
    3e06:	bdf1                	j	3ce2 <__muldf3+0x102>
    3e08:	6341                	lui	t1,0x10
    3e0a:	fff30793          	addi	a5,t1,-1 # ffff <_data_lma+0x40e3>
    3e0e:	0104d513          	srli	a0,s1,0x10
    3e12:	0105de13          	srli	t3,a1,0x10
    3e16:	8cfd                	and	s1,s1,a5
    3e18:	8dfd                	and	a1,a1,a5
    3e1a:	029587b3          	mul	a5,a1,s1
    3e1e:	02b508b3          	mul	a7,a0,a1
    3e22:	0107d393          	srli	t2,a5,0x10
    3e26:	029e0833          	mul	a6,t3,s1
    3e2a:	9846                	add	a6,a6,a7
    3e2c:	93c2                	add	t2,t2,a6
    3e2e:	03c50833          	mul	a6,a0,t3
    3e32:	0113f363          	bgeu	t2,a7,3e38 <__muldf3+0x258>
    3e36:	981a                	add	a6,a6,t1
    3e38:	6341                	lui	t1,0x10
    3e3a:	fff30e93          	addi	t4,t1,-1 # ffff <_data_lma+0x40e3>
    3e3e:	0109d293          	srli	t0,s3,0x10
    3e42:	01d9f9b3          	and	s3,s3,t4
    3e46:	01d3f8b3          	and	a7,t2,t4
    3e4a:	01d7f7b3          	and	a5,a5,t4
    3e4e:	08c2                	slli	a7,a7,0x10
    3e50:	03348eb3          	mul	t4,s1,s3
    3e54:	98be                	add	a7,a7,a5
    3e56:	0103d393          	srli	t2,t2,0x10
    3e5a:	03350fb3          	mul	t6,a0,s3
    3e5e:	010edf13          	srli	t5,t4,0x10
    3e62:	029284b3          	mul	s1,t0,s1
    3e66:	94fe                	add	s1,s1,t6
    3e68:	94fa                	add	s1,s1,t5
    3e6a:	025507b3          	mul	a5,a0,t0
    3e6e:	01f4f363          	bgeu	s1,t6,3e74 <__muldf3+0x294>
    3e72:	979a                	add	a5,a5,t1
    3e74:	6341                	lui	t1,0x10
    3e76:	fff30b93          	addi	s7,t1,-1 # ffff <_data_lma+0x40e3>
    3e7a:	01045a13          	srli	s4,s0,0x10
    3e7e:	01747533          	and	a0,s0,s7
    3e82:	0174ffb3          	and	t6,s1,s7
    3e86:	80c1                	srli	s1,s1,0x10
    3e88:	00f48f33          	add	t5,s1,a5
    3e8c:	02a58433          	mul	s0,a1,a0
    3e90:	017efeb3          	and	t4,t4,s7
    3e94:	0fc2                	slli	t6,t6,0x10
    3e96:	9ff6                	add	t6,t6,t4
    3e98:	93fe                	add	t2,t2,t6
    3e9a:	02ae07b3          	mul	a5,t3,a0
    3e9e:	01045e93          	srli	t4,s0,0x10
    3ea2:	02ba05b3          	mul	a1,s4,a1
    3ea6:	97ae                	add	a5,a5,a1
    3ea8:	9ebe                	add	t4,t4,a5
    3eaa:	034e0e33          	mul	t3,t3,s4
    3eae:	00bef363          	bgeu	t4,a1,3eb4 <__muldf3+0x2d4>
    3eb2:	9e1a                	add	t3,t3,t1
    3eb4:	67c1                	lui	a5,0x10
    3eb6:	fff78593          	addi	a1,a5,-1 # ffff <_data_lma+0x40e3>
    3eba:	00bef333          	and	t1,t4,a1
    3ebe:	8c6d                	and	s0,s0,a1
    3ec0:	0342                	slli	t1,t1,0x10
    3ec2:	9322                	add	t1,t1,s0
    3ec4:	010ede93          	srli	t4,t4,0x10
    3ec8:	033505b3          	mul	a1,a0,s3
    3ecc:	9e76                	add	t3,t3,t4
    3ece:	02a28533          	mul	a0,t0,a0
    3ed2:	0105d413          	srli	s0,a1,0x10
    3ed6:	033a09b3          	mul	s3,s4,s3
    3eda:	954e                	add	a0,a0,s3
    3edc:	9522                	add	a0,a0,s0
    3ede:	034282b3          	mul	t0,t0,s4
    3ee2:	01357363          	bgeu	a0,s3,3ee8 <__muldf3+0x308>
    3ee6:	92be                	add	t0,t0,a5
    3ee8:	6ec1                	lui	t4,0x10
    3eea:	1efd                	addi	t4,t4,-1
    3eec:	01d577b3          	and	a5,a0,t4
    3ef0:	07c2                	slli	a5,a5,0x10
    3ef2:	01d5feb3          	and	t4,a1,t4
    3ef6:	97f6                	add	a5,a5,t4
    3ef8:	007805b3          	add	a1,a6,t2
    3efc:	01f5bfb3          	sltu	t6,a1,t6
    3f00:	97fa                	add	a5,a5,t5
    3f02:	959a                	add	a1,a1,t1
    3f04:	01f78433          	add	s0,a5,t6
    3f08:	0065b833          	sltu	a6,a1,t1
    3f0c:	01c40eb3          	add	t4,s0,t3
    3f10:	010e8333          	add	t1,t4,a6
    3f14:	01f43433          	sltu	s0,s0,t6
    3f18:	01e7b7b3          	sltu	a5,a5,t5
    3f1c:	8fc1                	or	a5,a5,s0
    3f1e:	01033833          	sltu	a6,t1,a6
    3f22:	01055413          	srli	s0,a0,0x10
    3f26:	01cebe33          	sltu	t3,t4,t3
    3f2a:	943e                	add	s0,s0,a5
    3f2c:	010e6833          	or	a6,t3,a6
    3f30:	9442                	add	s0,s0,a6
    3f32:	00959493          	slli	s1,a1,0x9
    3f36:	9416                	add	s0,s0,t0
    3f38:	01735513          	srli	a0,t1,0x17
    3f3c:	0114e4b3          	or	s1,s1,a7
    3f40:	0426                	slli	s0,s0,0x9
    3f42:	009034b3          	snez	s1,s1
    3f46:	81dd                	srli	a1,a1,0x17
    3f48:	8c49                	or	s0,s0,a0
    3f4a:	8ccd                	or	s1,s1,a1
    3f4c:	0326                	slli	t1,t1,0x9
    3f4e:	00741793          	slli	a5,s0,0x7
    3f52:	0064e4b3          	or	s1,s1,t1
    3f56:	0007db63          	bgez	a5,3f6c <__muldf3+0x38c>
    3f5a:	0014d793          	srli	a5,s1,0x1
    3f5e:	8885                	andi	s1,s1,1
    3f60:	01f41593          	slli	a1,s0,0x1f
    3f64:	8cdd                	or	s1,s1,a5
    3f66:	8ccd                	or	s1,s1,a1
    3f68:	8005                	srli	s0,s0,0x1
    3f6a:	893a                	mv	s2,a4
    3f6c:	3ff90713          	addi	a4,s2,1023
    3f70:	04e05963          	blez	a4,3fc2 <__muldf3+0x3e2>
    3f74:	0074f793          	andi	a5,s1,7
    3f78:	cb99                	beqz	a5,3f8e <__muldf3+0x3ae>
    3f7a:	4789                	li	a5,2
    3f7c:	001aea93          	ori	s5,s5,1
    3f80:	20fb0b63          	beq	s6,a5,4196 <__muldf3+0x5b6>
    3f84:	478d                	li	a5,3
    3f86:	1efb0d63          	beq	s6,a5,4180 <__muldf3+0x5a0>
    3f8a:	1c0b0f63          	beqz	s6,4168 <__muldf3+0x588>
    3f8e:	00741793          	slli	a5,s0,0x7
    3f92:	0007d863          	bgez	a5,3fa2 <__muldf3+0x3c2>
    3f96:	ff0007b7          	lui	a5,0xff000
    3f9a:	17fd                	addi	a5,a5,-1
    3f9c:	8c7d                	and	s0,s0,a5
    3f9e:	40090713          	addi	a4,s2,1024
    3fa2:	7fe00793          	li	a5,2046
    3fa6:	10e7c963          	blt	a5,a4,40b8 <__muldf3+0x4d8>
    3faa:	0034d693          	srli	a3,s1,0x3
    3fae:	00941793          	slli	a5,s0,0x9
    3fb2:	01d41493          	slli	s1,s0,0x1d
    3fb6:	00d4e433          	or	s0,s1,a3
    3fba:	83b1                	srli	a5,a5,0xc
    3fbc:	7ff77713          	andi	a4,a4,2047
    3fc0:	b30d                	j	3ce2 <__muldf3+0x102>
    3fc2:	4785                	li	a5,1
    3fc4:	8f99                	sub	a5,a5,a4
    3fc6:	e379                	bnez	a4,408c <__muldf3+0x4ac>
    3fc8:	0074f593          	andi	a1,s1,7
    3fcc:	8722                	mv	a4,s0
    3fce:	cd81                	beqz	a1,3fe6 <__muldf3+0x406>
    3fd0:	4709                	li	a4,2
    3fd2:	001aea93          	ori	s5,s5,1
    3fd6:	20eb0963          	beq	s6,a4,41e8 <__muldf3+0x608>
    3fda:	470d                	li	a4,3
    3fdc:	1eeb0d63          	beq	s6,a4,41d6 <__muldf3+0x5f6>
    3fe0:	8722                	mv	a4,s0
    3fe2:	1c0b0f63          	beqz	s6,41c0 <__muldf3+0x5e0>
    3fe6:	8361                	srli	a4,a4,0x18
    3fe8:	00174713          	xori	a4,a4,1
    3fec:	00177593          	andi	a1,a4,1
    3ff0:	41e90913          	addi	s2,s2,1054
    3ff4:	01249733          	sll	a4,s1,s2
    3ff8:	01241933          	sll	s2,s0,s2
    3ffc:	00f4d4b3          	srl	s1,s1,a5
    4000:	00e03733          	snez	a4,a4
    4004:	009964b3          	or	s1,s2,s1
    4008:	8cd9                	or	s1,s1,a4
    400a:	0074f513          	andi	a0,s1,7
    400e:	00f45733          	srl	a4,s0,a5
    4012:	c919                	beqz	a0,4028 <__muldf3+0x448>
    4014:	4789                	li	a5,2
    4016:	001aea93          	ori	s5,s5,1
    401a:	1efb0863          	beq	s6,a5,420a <__muldf3+0x62a>
    401e:	478d                	li	a5,3
    4020:	1cfb0a63          	beq	s6,a5,41f4 <__muldf3+0x614>
    4024:	1e0b0863          	beqz	s6,4214 <__muldf3+0x634>
    4028:	00871793          	slli	a5,a4,0x8
    402c:	1807d063          	bgez	a5,41ac <__muldf3+0x5cc>
    4030:	001aea93          	ori	s5,s5,1
    4034:	16059663          	bnez	a1,41a0 <__muldf3+0x5c0>
    4038:	067e                	slli	a2,a2,0x1f
    403a:	001007b7          	lui	a5,0x100
    403e:	8fd1                	or	a5,a5,a2
    4040:	4501                	li	a0,0
    4042:	85be                	mv	a1,a5
    4044:	001aa073          	csrs	fflags,s5
    4048:	b17d                	j	3cf6 <__muldf3+0x116>
    404a:	182010ef          	jal	ra,51cc <__clzsi2>
    404e:	01550713          	addi	a4,a0,21
    4052:	45f1                	li	a1,28
    4054:	02050793          	addi	a5,a0,32
    4058:	4622                	lw	a2,8(sp)
    405a:	46b2                	lw	a3,12(sp)
    405c:	d0e5d8e3          	bge	a1,a4,3d6c <__muldf3+0x18c>
    4060:	1561                	addi	a0,a0,-8
    4062:	00aa1433          	sll	s0,s4,a0
    4066:	4481                	li	s1,0
    4068:	bb31                	j	3d84 <__muldf3+0x1a4>
    406a:	8532                	mv	a0,a2
    406c:	c432                	sw	a2,8(sp)
    406e:	15e010ef          	jal	ra,51cc <__clzsi2>
    4072:	01550693          	addi	a3,a0,21
    4076:	4771                	li	a4,28
    4078:	02050793          	addi	a5,a0,32
    407c:	4622                	lw	a2,8(sp)
    407e:	cad756e3          	bge	a4,a3,3d2a <__muldf3+0x14a>
    4082:	1561                	addi	a0,a0,-8
    4084:	4581                	li	a1,0
    4086:	00a619b3          	sll	s3,a2,a0
    408a:	b965                	j	3d42 <__muldf3+0x162>
    408c:	03800593          	li	a1,56
    4090:	06f5d963          	bge	a1,a5,4102 <__muldf3+0x522>
    4094:	8c45                	or	s0,s0,s1
    4096:	cc01                	beqz	s0,40ae <__muldf3+0x4ce>
    4098:	4789                	li	a5,2
    409a:	001aea93          	ori	s5,s5,1
    409e:	00d03433          	snez	s0,a3
    40a2:	00fb0663          	beq	s6,a5,40ae <__muldf3+0x4ce>
    40a6:	478d                	li	a5,3
    40a8:	4401                	li	s0,0
    40aa:	18fb0163          	beq	s6,a5,422c <__muldf3+0x64c>
    40ae:	002aea93          	ori	s5,s5,2
    40b2:	4681                	li	a3,0
    40b4:	4781                	li	a5,0
    40b6:	a015                	j	40da <__muldf3+0x4fa>
    40b8:	4789                	li	a5,2
    40ba:	0cfb0c63          	beq	s6,a5,4192 <__muldf3+0x5b2>
    40be:	478d                	li	a5,3
    40c0:	08fb0e63          	beq	s6,a5,415c <__muldf3+0x57c>
    40c4:	080b0d63          	beqz	s6,415e <__muldf3+0x57e>
    40c8:	00100437          	lui	s0,0x100
    40cc:	fff40793          	addi	a5,s0,-1 # fffff <_data_lma+0xf40e3>
    40d0:	7fe00693          	li	a3,2046
    40d4:	547d                	li	s0,-1
    40d6:	005aea93          	ori	s5,s5,5
    40da:	00c79713          	slli	a4,a5,0xc
    40de:	8331                	srli	a4,a4,0xc
    40e0:	01469793          	slli	a5,a3,0x14
    40e4:	067e                	slli	a2,a2,0x1f
    40e6:	8fd9                	or	a5,a5,a4
    40e8:	8fd1                	or	a5,a5,a2
    40ea:	8522                	mv	a0,s0
    40ec:	85be                	mv	a1,a5
    40ee:	001aa073          	csrs	fflags,s5
    40f2:	b111                	j	3cf6 <__muldf3+0x116>
    40f4:	4501                	li	a0,0
    40f6:	7ff805b7          	lui	a1,0x7ff80
    40fa:	4ac1                	li	s5,16
    40fc:	001aa073          	csrs	fflags,s5
    4100:	bedd                	j	3cf6 <__muldf3+0x116>
    4102:	45fd                	li	a1,31
    4104:	12f5d763          	bge	a1,a5,4232 <__muldf3+0x652>
    4108:	5585                	li	a1,-31
    410a:	40e58733          	sub	a4,a1,a4
    410e:	02000593          	li	a1,32
    4112:	00e45733          	srl	a4,s0,a4
    4116:	00b78763          	beq	a5,a1,4124 <__muldf3+0x544>
    411a:	43e90913          	addi	s2,s2,1086
    411e:	01241433          	sll	s0,s0,s2
    4122:	8cc1                	or	s1,s1,s0
    4124:	009034b3          	snez	s1,s1
    4128:	8cd9                	or	s1,s1,a4
    412a:	0074f793          	andi	a5,s1,7
    412e:	cb99                	beqz	a5,4144 <__muldf3+0x564>
    4130:	4789                	li	a5,2
    4132:	001aea93          	ori	s5,s5,1
    4136:	0cfb0863          	beq	s6,a5,4206 <__muldf3+0x626>
    413a:	478d                	li	a5,3
    413c:	0afb0a63          	beq	s6,a5,41f0 <__muldf3+0x610>
    4140:	0c0b0863          	beqz	s6,4210 <__muldf3+0x630>
    4144:	0034d413          	srli	s0,s1,0x3
    4148:	4781                	li	a5,0
    414a:	001af693          	andi	a3,s5,1
    414e:	4701                	li	a4,0
    4150:	b80689e3          	beqz	a3,3ce2 <__muldf3+0x102>
    4154:	4681                	li	a3,0
    4156:	002aea93          	ori	s5,s5,2
    415a:	b741                	j	40da <__muldf3+0x4fa>
    415c:	f6b5                	bnez	a3,40c8 <__muldf3+0x4e8>
    415e:	7ff00693          	li	a3,2047
    4162:	4781                	li	a5,0
    4164:	4401                	li	s0,0
    4166:	bf85                	j	40d6 <__muldf3+0x4f6>
    4168:	00f4f793          	andi	a5,s1,15
    416c:	4591                	li	a1,4
    416e:	e2b780e3          	beq	a5,a1,3f8e <__muldf3+0x3ae>
    4172:	00448793          	addi	a5,s1,4
    4176:	0097b4b3          	sltu	s1,a5,s1
    417a:	9426                	add	s0,s0,s1
    417c:	84be                	mv	s1,a5
    417e:	bd01                	j	3f8e <__muldf3+0x3ae>
    4180:	e00697e3          	bnez	a3,3f8e <__muldf3+0x3ae>
    4184:	00848793          	addi	a5,s1,8
    4188:	0097b4b3          	sltu	s1,a5,s1
    418c:	9426                	add	s0,s0,s1
    418e:	84be                	mv	s1,a5
    4190:	bbfd                	j	3f8e <__muldf3+0x3ae>
    4192:	da9d                	beqz	a3,40c8 <__muldf3+0x4e8>
    4194:	b7e9                	j	415e <__muldf3+0x57e>
    4196:	de068ce3          	beqz	a3,3f8e <__muldf3+0x3ae>
    419a:	b7ed                	j	4184 <__muldf3+0x5a4>
    419c:	893a                	mv	s2,a4
    419e:	b3f9                	j	3f6c <__muldf3+0x38c>
    41a0:	4685                	li	a3,1
    41a2:	4781                	li	a5,0
    41a4:	4401                	li	s0,0
    41a6:	002aea93          	ori	s5,s5,2
    41aa:	bf05                	j	40da <__muldf3+0x4fa>
    41ac:	00971793          	slli	a5,a4,0x9
    41b0:	0034d413          	srli	s0,s1,0x3
    41b4:	0776                	slli	a4,a4,0x1d
    41b6:	83b1                	srli	a5,a5,0xc
    41b8:	8c59                	or	s0,s0,a4
    41ba:	f9c1                	bnez	a1,414a <__muldf3+0x56a>
    41bc:	4701                	li	a4,0
    41be:	b615                	j	3ce2 <__muldf3+0x102>
    41c0:	00f4f593          	andi	a1,s1,15
    41c4:	4511                	li	a0,4
    41c6:	e2a580e3          	beq	a1,a0,3fe6 <__muldf3+0x406>
    41ca:	ffc4b713          	sltiu	a4,s1,-4
    41ce:	00174713          	xori	a4,a4,1
    41d2:	9722                	add	a4,a4,s0
    41d4:	bd09                	j	3fe6 <__muldf3+0x406>
    41d6:	8722                	mv	a4,s0
    41d8:	e00697e3          	bnez	a3,3fe6 <__muldf3+0x406>
    41dc:	ff84b713          	sltiu	a4,s1,-8
    41e0:	00174713          	xori	a4,a4,1
    41e4:	9722                	add	a4,a4,s0
    41e6:	b501                	j	3fe6 <__muldf3+0x406>
    41e8:	8722                	mv	a4,s0
    41ea:	de068ee3          	beqz	a3,3fe6 <__muldf3+0x406>
    41ee:	b7fd                	j	41dc <__muldf3+0x5fc>
    41f0:	4585                	li	a1,1
    41f2:	4701                	li	a4,0
    41f4:	e2069ae3          	bnez	a3,4028 <__muldf3+0x448>
    41f8:	00848793          	addi	a5,s1,8
    41fc:	0097b4b3          	sltu	s1,a5,s1
    4200:	9726                	add	a4,a4,s1
    4202:	84be                	mv	s1,a5
    4204:	b515                	j	4028 <__muldf3+0x448>
    4206:	4585                	li	a1,1
    4208:	4701                	li	a4,0
    420a:	e0068fe3          	beqz	a3,4028 <__muldf3+0x448>
    420e:	b7ed                	j	41f8 <__muldf3+0x618>
    4210:	4585                	li	a1,1
    4212:	4701                	li	a4,0
    4214:	00f4f793          	andi	a5,s1,15
    4218:	4691                	li	a3,4
    421a:	e0d787e3          	beq	a5,a3,4028 <__muldf3+0x448>
    421e:	00448793          	addi	a5,s1,4
    4222:	0097b4b3          	sltu	s1,a5,s1
    4226:	9726                	add	a4,a4,s1
    4228:	84be                	mv	s1,a5
    422a:	bbfd                	j	4028 <__muldf3+0x448>
    422c:	0016b413          	seqz	s0,a3
    4230:	bdbd                	j	40ae <__muldf3+0x4ce>
    4232:	4585                	li	a1,1
    4234:	bb75                	j	3ff0 <__muldf3+0x410>

00004236 <__subdf3>:
    4236:	1101                	addi	sp,sp,-32
    4238:	ce06                	sw	ra,28(sp)
    423a:	cc22                	sw	s0,24(sp)
    423c:	ca26                	sw	s1,20(sp)
    423e:	c84a                	sw	s2,16(sp)
    4240:	c64e                	sw	s3,12(sp)
    4242:	c452                	sw	s4,8(sp)
    4244:	002029f3          	frrm	s3
    4248:	00100837          	lui	a6,0x100
    424c:	187d                	addi	a6,a6,-1
    424e:	00b87733          	and	a4,a6,a1
    4252:	0146d893          	srli	a7,a3,0x14
    4256:	00d87833          	and	a6,a6,a3
    425a:	0145d413          	srli	s0,a1,0x14
    425e:	00371e13          	slli	t3,a4,0x3
    4262:	01d55793          	srli	a5,a0,0x1d
    4266:	080e                	slli	a6,a6,0x3
    4268:	01d65313          	srli	t1,a2,0x1d
    426c:	7ff8f893          	andi	a7,a7,2047
    4270:	7ff00e93          	li	t4,2047
    4274:	01f5d493          	srli	s1,a1,0x1f
    4278:	01c7e733          	or	a4,a5,t3
    427c:	7ff47413          	andi	s0,s0,2047
    4280:	00351e13          	slli	t3,a0,0x3
    4284:	82fd                	srli	a3,a3,0x1f
    4286:	01036833          	or	a6,t1,a6
    428a:	00361593          	slli	a1,a2,0x3
    428e:	1dd88263          	beq	a7,t4,4452 <__subdf3+0x21c>
    4292:	0016c693          	xori	a3,a3,1
    4296:	41140333          	sub	t1,s0,a7
    429a:	16d48763          	beq	s1,a3,4408 <__subdf3+0x1d2>
    429e:	1c605363          	blez	t1,4464 <__subdf3+0x22e>
    42a2:	22088463          	beqz	a7,44ca <__subdf3+0x294>
    42a6:	008007b7          	lui	a5,0x800
    42aa:	00f86833          	or	a6,a6,a5
    42ae:	6dd40263          	beq	s0,t4,4972 <__subdf3+0x73c>
    42b2:	03800793          	li	a5,56
    42b6:	3a67cd63          	blt	a5,t1,4670 <__subdf3+0x43a>
    42ba:	47fd                	li	a5,31
    42bc:	5267c263          	blt	a5,t1,47e0 <__subdf3+0x5aa>
    42c0:	02000793          	li	a5,32
    42c4:	406787b3          	sub	a5,a5,t1
    42c8:	0065d933          	srl	s2,a1,t1
    42cc:	00f81633          	sll	a2,a6,a5
    42d0:	00f595b3          	sll	a1,a1,a5
    42d4:	01266633          	or	a2,a2,s2
    42d8:	00685333          	srl	t1,a6,t1
    42dc:	00b03933          	snez	s2,a1
    42e0:	01266633          	or	a2,a2,s2
    42e4:	40670733          	sub	a4,a4,t1
    42e8:	40ce0933          	sub	s2,t3,a2
    42ec:	012e3633          	sltu	a2,t3,s2
    42f0:	8f11                	sub	a4,a4,a2
    42f2:	00871793          	slli	a5,a4,0x8
    42f6:	2a07da63          	bgez	a5,45aa <__subdf3+0x374>
    42fa:	00971a13          	slli	s4,a4,0x9
    42fe:	009a5a13          	srli	s4,s4,0x9
    4302:	340a0b63          	beqz	s4,4658 <__subdf3+0x422>
    4306:	8552                	mv	a0,s4
    4308:	6c5000ef          	jal	ra,51cc <__clzsi2>
    430c:	1561                	addi	a0,a0,-8
    430e:	02000793          	li	a5,32
    4312:	8f89                	sub	a5,a5,a0
    4314:	00aa1733          	sll	a4,s4,a0
    4318:	00f957b3          	srl	a5,s2,a5
    431c:	8fd9                	or	a5,a5,a4
    431e:	00a91a33          	sll	s4,s2,a0
    4322:	32854063          	blt	a0,s0,4642 <__subdf3+0x40c>
    4326:	8d01                	sub	a0,a0,s0
    4328:	00150713          	addi	a4,a0,1
    432c:	46fd                	li	a3,31
    432e:	44e6c063          	blt	a3,a4,476e <__subdf3+0x538>
    4332:	02000693          	li	a3,32
    4336:	8e99                	sub	a3,a3,a4
    4338:	00ea5933          	srl	s2,s4,a4
    433c:	00d79633          	sll	a2,a5,a3
    4340:	00da16b3          	sll	a3,s4,a3
    4344:	01266633          	or	a2,a2,s2
    4348:	00d036b3          	snez	a3,a3
    434c:	00d66933          	or	s2,a2,a3
    4350:	00e7d733          	srl	a4,a5,a4
    4354:	00e967b3          	or	a5,s2,a4
    4358:	16078063          	beqz	a5,44b8 <__subdf3+0x282>
    435c:	00797793          	andi	a5,s2,7
    4360:	00191593          	slli	a1,s2,0x1
    4364:	00171613          	slli	a2,a4,0x1
    4368:	01f95693          	srli	a3,s2,0x1f
    436c:	0075f513          	andi	a0,a1,7
    4370:	96b2                	add	a3,a3,a2
    4372:	4301                	li	t1,0
    4374:	c911                	beqz	a0,4388 <__subdf3+0x152>
    4376:	4609                	li	a2,2
    4378:	66c98163          	beq	s3,a2,49da <__subdf3+0x7a4>
    437c:	460d                	li	a2,3
    437e:	4305                	li	t1,1
    4380:	64c98563          	beq	s3,a2,49ca <__subdf3+0x794>
    4384:	62098863          	beqz	s3,49b4 <__subdf3+0x77e>
    4388:	01000637          	lui	a2,0x1000
    438c:	8ef1                	and	a3,a3,a2
    438e:	0016b513          	seqz	a0,a3
    4392:	10078ce3          	beqz	a5,4caa <__subdf3+0xa74>
    4396:	4401                	li	s0,0
    4398:	4789                	li	a5,2
    439a:	26f98c63          	beq	s3,a5,4612 <__subdf3+0x3dc>
    439e:	478d                	li	a5,3
    43a0:	28f98863          	beq	s3,a5,4630 <__subdf3+0x3fa>
    43a4:	24098263          	beqz	s3,45e8 <__subdf3+0x3b2>
    43a8:	008005b7          	lui	a1,0x800
    43ac:	8df9                	and	a1,a1,a4
    43ae:	4305                	li	t1,1
    43b0:	c119                	beqz	a0,43b6 <__subdf3+0x180>
    43b2:	00236313          	ori	t1,t1,2
    43b6:	4a058363          	beqz	a1,485c <__subdf3+0x626>
    43ba:	0405                	addi	s0,s0,1
    43bc:	7ff00793          	li	a5,2047
    43c0:	20f40363          	beq	s0,a5,45c6 <__subdf3+0x390>
    43c4:	ff8007b7          	lui	a5,0xff800
    43c8:	17fd                	addi	a5,a5,-1
    43ca:	8ff9                	and	a5,a5,a4
    43cc:	01d79613          	slli	a2,a5,0x1d
    43d0:	00395913          	srli	s2,s2,0x3
    43d4:	07a6                	slli	a5,a5,0x9
    43d6:	01266633          	or	a2,a2,s2
    43da:	83b1                	srli	a5,a5,0xc
    43dc:	7ff47413          	andi	s0,s0,2047
    43e0:	8885                	andi	s1,s1,1
    43e2:	00c79713          	slli	a4,a5,0xc
    43e6:	0452                	slli	s0,s0,0x14
    43e8:	8331                	srli	a4,a4,0xc
    43ea:	04fe                	slli	s1,s1,0x1f
    43ec:	8f41                	or	a4,a4,s0
    43ee:	8f45                	or	a4,a4,s1
    43f0:	8532                	mv	a0,a2
    43f2:	85ba                	mv	a1,a4
    43f4:	2a031463          	bnez	t1,469c <__subdf3+0x466>
    43f8:	40f2                	lw	ra,28(sp)
    43fa:	4462                	lw	s0,24(sp)
    43fc:	44d2                	lw	s1,20(sp)
    43fe:	4942                	lw	s2,16(sp)
    4400:	49b2                	lw	s3,12(sp)
    4402:	4a22                	lw	s4,8(sp)
    4404:	6105                	addi	sp,sp,32
    4406:	8082                	ret
    4408:	0c605d63          	blez	t1,44e2 <__subdf3+0x2ac>
    440c:	16088c63          	beqz	a7,4584 <__subdf3+0x34e>
    4410:	008007b7          	lui	a5,0x800
    4414:	00f86833          	or	a6,a6,a5
    4418:	51d40a63          	beq	s0,t4,492c <__subdf3+0x6f6>
    441c:	03800793          	li	a5,56
    4420:	3667cc63          	blt	a5,t1,4798 <__subdf3+0x562>
    4424:	47fd                	li	a5,31
    4426:	4667d063          	bge	a5,t1,4886 <__subdf3+0x650>
    442a:	fe030613          	addi	a2,t1,-32
    442e:	02000793          	li	a5,32
    4432:	00c85633          	srl	a2,a6,a2
    4436:	00f30a63          	beq	t1,a5,444a <__subdf3+0x214>
    443a:	04000793          	li	a5,64
    443e:	40678333          	sub	t1,a5,t1
    4442:	00681833          	sll	a6,a6,t1
    4446:	0105e5b3          	or	a1,a1,a6
    444a:	00b035b3          	snez	a1,a1
    444e:	8e4d                	or	a2,a2,a1
    4450:	ae81                	j	47a0 <__subdf3+0x56a>
    4452:	00b867b3          	or	a5,a6,a1
    4456:	80140313          	addi	t1,s0,-2047
    445a:	e399                	bnez	a5,4460 <__subdf3+0x22a>
    445c:	0016c693          	xori	a3,a3,1
    4460:	08d48163          	beq	s1,a3,44e2 <__subdf3+0x2ac>
    4464:	0c031563          	bnez	t1,452e <__subdf3+0x2f8>
    4468:	00140793          	addi	a5,s0,1
    446c:	7fe7f793          	andi	a5,a5,2046
    4470:	24079263          	bnez	a5,46b4 <__subdf3+0x47e>
    4474:	01c76eb3          	or	t4,a4,t3
    4478:	00b867b3          	or	a5,a6,a1
    447c:	5a041263          	bnez	s0,4a20 <__subdf3+0x7ea>
    4480:	480e8e63          	beqz	t4,491c <__subdf3+0x6e6>
    4484:	4a078263          	beqz	a5,4928 <__subdf3+0x6f2>
    4488:	40be0533          	sub	a0,t3,a1
    448c:	00ae37b3          	sltu	a5,t3,a0
    4490:	41070633          	sub	a2,a4,a6
    4494:	8e1d                	sub	a2,a2,a5
    4496:	00861793          	slli	a5,a2,0x8
    449a:	6a07d463          	bgez	a5,4b42 <__subdf3+0x90c>
    449e:	41c58933          	sub	s2,a1,t3
    44a2:	40e807b3          	sub	a5,a6,a4
    44a6:	0125b5b3          	sltu	a1,a1,s2
    44aa:	40b78733          	sub	a4,a5,a1
    44ae:	00e967b3          	or	a5,s2,a4
    44b2:	84b6                	mv	s1,a3
    44b4:	ea0794e3          	bnez	a5,435c <__subdf3+0x126>
    44b8:	4601                	li	a2,0
    44ba:	4401                	li	s0,0
    44bc:	4301                	li	t1,0
    44be:	07b2                	slli	a5,a5,0xc
    44c0:	83b1                	srli	a5,a5,0xc
    44c2:	7ff47413          	andi	s0,s0,2047
    44c6:	8885                	andi	s1,s1,1
    44c8:	bf29                	j	43e2 <__subdf3+0x1ac>
    44ca:	00b867b3          	or	a5,a6,a1
    44ce:	1a078663          	beqz	a5,467a <__subdf3+0x444>
    44d2:	fff30793          	addi	a5,t1,-1
    44d6:	48078063          	beqz	a5,4956 <__subdf3+0x720>
    44da:	45d30963          	beq	t1,t4,492c <__subdf3+0x6f6>
    44de:	833e                	mv	t1,a5
    44e0:	bbc9                	j	42b2 <__subdf3+0x7c>
    44e2:	20031063          	bnez	t1,46e2 <__subdf3+0x4ac>
    44e6:	00140693          	addi	a3,s0,1
    44ea:	7fe6f793          	andi	a5,a3,2046
    44ee:	4e079a63          	bnez	a5,49e2 <__subdf3+0x7ac>
    44f2:	01c766b3          	or	a3,a4,t3
    44f6:	3e041e63          	bnez	s0,48f2 <__subdf3+0x6bc>
    44fa:	00b867b3          	or	a5,a6,a1
    44fe:	5a068a63          	beqz	a3,4ab2 <__subdf3+0x87c>
    4502:	42078363          	beqz	a5,4928 <__subdf3+0x6f2>
    4506:	00be0933          	add	s2,t3,a1
    450a:	010707b3          	add	a5,a4,a6
    450e:	01c93633          	sltu	a2,s2,t3
    4512:	00c78733          	add	a4,a5,a2
    4516:	00871793          	slli	a5,a4,0x8
    451a:	e207dde3          	bgez	a5,4354 <__subdf3+0x11e>
    451e:	ff8007b7          	lui	a5,0xff800
    4522:	17fd                	addi	a5,a5,-1
    4524:	8f7d                	and	a4,a4,a5
    4526:	4405                	li	s0,1
    4528:	00797793          	andi	a5,s2,7
    452c:	a069                	j	45b6 <__subdf3+0x380>
    452e:	408887b3          	sub	a5,a7,s0
    4532:	20041363          	bnez	s0,4738 <__subdf3+0x502>
    4536:	01c76533          	or	a0,a4,t3
    453a:	c125                	beqz	a0,459a <__subdf3+0x364>
    453c:	fff78513          	addi	a0,a5,-1 # ff7fffff <_eusrstack+0xdf7dffff>
    4540:	54050f63          	beqz	a0,4a9e <__subdf3+0x868>
    4544:	7ff00313          	li	t1,2047
    4548:	60678663          	beq	a5,t1,4b54 <__subdf3+0x91e>
    454c:	87aa                	mv	a5,a0
    454e:	03800613          	li	a2,56
    4552:	2af64b63          	blt	a2,a5,4808 <__subdf3+0x5d2>
    4556:	467d                	li	a2,31
    4558:	50f64863          	blt	a2,a5,4a68 <__subdf3+0x832>
    455c:	02000513          	li	a0,32
    4560:	8d1d                	sub	a0,a0,a5
    4562:	00a71633          	sll	a2,a4,a0
    4566:	00fe5333          	srl	t1,t3,a5
    456a:	00ae1533          	sll	a0,t3,a0
    456e:	00666633          	or	a2,a2,t1
    4572:	00a03933          	snez	s2,a0
    4576:	00f757b3          	srl	a5,a4,a5
    457a:	01266633          	or	a2,a2,s2
    457e:	40f80833          	sub	a6,a6,a5
    4582:	a479                	j	4810 <__subdf3+0x5da>
    4584:	00b867b3          	or	a5,a6,a1
    4588:	cbed                	beqz	a5,467a <__subdf3+0x444>
    458a:	fff30793          	addi	a5,t1,-1
    458e:	32078063          	beqz	a5,48ae <__subdf3+0x678>
    4592:	4bd30b63          	beq	t1,t4,4a48 <__subdf3+0x812>
    4596:	833e                	mv	t1,a5
    4598:	b551                	j	441c <__subdf3+0x1e6>
    459a:	7ff00713          	li	a4,2047
    459e:	5ee78a63          	beq	a5,a4,4b92 <__subdf3+0x95c>
    45a2:	8742                	mv	a4,a6
    45a4:	892e                	mv	s2,a1
    45a6:	843e                	mv	s0,a5
    45a8:	84b6                	mv	s1,a3
    45aa:	00e967b3          	or	a5,s2,a4
    45ae:	da0405e3          	beqz	s0,4358 <__subdf3+0x122>
    45b2:	00797793          	andi	a5,s2,7
    45b6:	4501                	li	a0,0
    45b8:	de0790e3          	bnez	a5,4398 <__subdf3+0x162>
    45bc:	008005b7          	lui	a1,0x800
    45c0:	8df9                	and	a1,a1,a4
    45c2:	4301                	li	t1,0
    45c4:	bbcd                	j	43b6 <__subdf3+0x180>
    45c6:	0c098f63          	beqz	s3,46a4 <__subdf3+0x46e>
    45ca:	478d                	li	a5,3
    45cc:	0cf98b63          	beq	s3,a5,46a2 <__subdf3+0x46c>
    45d0:	4789                	li	a5,2
    45d2:	30f98b63          	beq	s3,a5,48e8 <__subdf3+0x6b2>
    45d6:	00536313          	ori	t1,t1,5
    45da:	200007b7          	lui	a5,0x20000
    45de:	567d                	li	a2,-1
    45e0:	17fd                	addi	a5,a5,-1
    45e2:	7fe00413          	li	s0,2046
    45e6:	bde1                	j	44be <__subdf3+0x288>
    45e8:	008005b7          	lui	a1,0x800
    45ec:	00f97793          	andi	a5,s2,15
    45f0:	4691                	li	a3,4
    45f2:	4305                	li	t1,1
    45f4:	8df9                	and	a1,a1,a4
    45f6:	dad78de3          	beq	a5,a3,43b0 <__subdf3+0x17a>
    45fa:	ffc93793          	sltiu	a5,s2,-4
    45fe:	0017c793          	xori	a5,a5,1
    4602:	973e                	add	a4,a4,a5
    4604:	008005b7          	lui	a1,0x800
    4608:	8df9                	and	a1,a1,a4
    460a:	0911                	addi	s2,s2,4
    460c:	da0513e3          	bnez	a0,43b2 <__subdf3+0x17c>
    4610:	b35d                	j	43b6 <__subdf3+0x180>
    4612:	d8048be3          	beqz	s1,43a8 <__subdf3+0x172>
    4616:	00890793          	addi	a5,s2,8
    461a:	0127b633          	sltu	a2,a5,s2
    461e:	9732                	add	a4,a4,a2
    4620:	008005b7          	lui	a1,0x800
    4624:	8df9                	and	a1,a1,a4
    4626:	893e                	mv	s2,a5
    4628:	4305                	li	t1,1
    462a:	d80514e3          	bnez	a0,43b2 <__subdf3+0x17c>
    462e:	b361                	j	43b6 <__subdf3+0x180>
    4630:	d0fd                	beqz	s1,4616 <__subdf3+0x3e0>
    4632:	4305                	li	t1,1
    4634:	008005b7          	lui	a1,0x800
    4638:	8df9                	and	a1,a1,a4
    463a:	4485                	li	s1,1
    463c:	d6051be3          	bnez	a0,43b2 <__subdf3+0x17c>
    4640:	bb9d                	j	43b6 <__subdf3+0x180>
    4642:	ff800737          	lui	a4,0xff800
    4646:	177d                	addi	a4,a4,-1
    4648:	8f7d                	and	a4,a4,a5
    464a:	8952                	mv	s2,s4
    464c:	8c09                	sub	s0,s0,a0
    464e:	00e967b3          	or	a5,s2,a4
    4652:	d00403e3          	beqz	s0,4358 <__subdf3+0x122>
    4656:	bfb1                	j	45b2 <__subdf3+0x37c>
    4658:	854a                	mv	a0,s2
    465a:	373000ef          	jal	ra,51cc <__clzsi2>
    465e:	ff850793          	addi	a5,a0,-8
    4662:	477d                	li	a4,31
    4664:	0561                	addi	a0,a0,24
    4666:	00f917b3          	sll	a5,s2,a5
    466a:	caa74ce3          	blt	a4,a0,4322 <__subdf3+0xec>
    466e:	b145                	j	430e <__subdf3+0xd8>
    4670:	00b86833          	or	a6,a6,a1
    4674:	01003633          	snez	a2,a6
    4678:	b985                	j	42e8 <__subdf3+0xb2>
    467a:	31d30f63          	beq	t1,t4,4998 <__subdf3+0x762>
    467e:	008005b7          	lui	a1,0x800
    4682:	841a                	mv	s0,t1
    4684:	8df9                	and	a1,a1,a4
    4686:	8972                	mv	s2,t3
    4688:	4301                	li	t1,0
    468a:	b335                	j	43b6 <__subdf3+0x180>
    468c:	48888863          	beq	a7,s0,4b1c <__subdf3+0x8e6>
    4690:	48079f63          	bnez	a5,4b2e <__subdf3+0x8f8>
    4694:	4501                	li	a0,0
    4696:	7ff805b7          	lui	a1,0x7ff80
    469a:	4341                	li	t1,16
    469c:	00132073          	csrs	fflags,t1
    46a0:	bba1                	j	43f8 <__subdf3+0x1c2>
    46a2:	f895                	bnez	s1,45d6 <__subdf3+0x3a0>
    46a4:	00536313          	ori	t1,t1,5
    46a8:	8885                	andi	s1,s1,1
    46aa:	7ff00413          	li	s0,2047
    46ae:	4781                	li	a5,0
    46b0:	4601                	li	a2,0
    46b2:	bb05                	j	43e2 <__subdf3+0x1ac>
    46b4:	40be0933          	sub	s2,t3,a1
    46b8:	012e37b3          	sltu	a5,t3,s2
    46bc:	41070a33          	sub	s4,a4,a6
    46c0:	40fa0a33          	sub	s4,s4,a5
    46c4:	008a1793          	slli	a5,s4,0x8
    46c8:	3407c263          	bltz	a5,4a0c <__subdf3+0x7d6>
    46cc:	014967b3          	or	a5,s2,s4
    46d0:	c20799e3          	bnez	a5,4302 <__subdf3+0xcc>
    46d4:	ffe98493          	addi	s1,s3,-2
    46d8:	0014b493          	seqz	s1,s1
    46dc:	4601                	li	a2,0
    46de:	4401                	li	s0,0
    46e0:	bbf9                	j	44be <__subdf3+0x288>
    46e2:	408887b3          	sub	a5,a7,s0
    46e6:	12040e63          	beqz	s0,4822 <__subdf3+0x5ec>
    46ea:	00800537          	lui	a0,0x800
    46ee:	7ff00693          	li	a3,2047
    46f2:	8f49                	or	a4,a4,a0
    46f4:	50d88763          	beq	a7,a3,4c02 <__subdf3+0x9cc>
    46f8:	03800693          	li	a3,56
    46fc:	36f6c163          	blt	a3,a5,4a5e <__subdf3+0x828>
    4700:	46fd                	li	a3,31
    4702:	46f6c363          	blt	a3,a5,4b68 <__subdf3+0x932>
    4706:	02000693          	li	a3,32
    470a:	8e9d                	sub	a3,a3,a5
    470c:	00d71633          	sll	a2,a4,a3
    4710:	00fe5533          	srl	a0,t3,a5
    4714:	00de16b3          	sll	a3,t3,a3
    4718:	8e49                	or	a2,a2,a0
    471a:	00d03933          	snez	s2,a3
    471e:	00f757b3          	srl	a5,a4,a5
    4722:	01266633          	or	a2,a2,s2
    4726:	983e                	add	a6,a6,a5
    4728:	00b60933          	add	s2,a2,a1
    472c:	00b937b3          	sltu	a5,s2,a1
    4730:	01078733          	add	a4,a5,a6
    4734:	8446                	mv	s0,a7
    4736:	a895                	j	47aa <__subdf3+0x574>
    4738:	00800337          	lui	t1,0x800
    473c:	7ff00513          	li	a0,2047
    4740:	00676733          	or	a4,a4,t1
    4744:	e0a895e3          	bne	a7,a0,454e <__subdf3+0x318>
    4748:	00b865b3          	or	a1,a6,a1
    474c:	20058263          	beqz	a1,4950 <__subdf3+0x71a>
    4750:	060e                	slli	a2,a2,0x3
    4752:	820d                	srli	a2,a2,0x3
    4754:	01d81793          	slli	a5,a6,0x1d
    4758:	00981713          	slli	a4,a6,0x9
    475c:	8e5d                	or	a2,a2,a5
    475e:	84b6                	mv	s1,a3
    4760:	00385793          	srli	a5,a6,0x3
    4764:	4301                	li	t1,0
    4766:	10074663          	bltz	a4,4872 <__subdf3+0x63c>
    476a:	4341                	li	t1,16
    476c:	a219                	j	4872 <__subdf3+0x63c>
    476e:	1505                	addi	a0,a0,-31
    4770:	02000693          	li	a3,32
    4774:	00a7d533          	srl	a0,a5,a0
    4778:	00d70a63          	beq	a4,a3,478c <__subdf3+0x556>
    477c:	04000693          	li	a3,64
    4780:	40e68733          	sub	a4,a3,a4
    4784:	00e797b3          	sll	a5,a5,a4
    4788:	00fa6a33          	or	s4,s4,a5
    478c:	014037b3          	snez	a5,s4
    4790:	8fc9                	or	a5,a5,a0
    4792:	893e                	mv	s2,a5
    4794:	4701                	li	a4,0
    4796:	b6c9                	j	4358 <__subdf3+0x122>
    4798:	00b86833          	or	a6,a6,a1
    479c:	01003633          	snez	a2,a6
    47a0:	01c60933          	add	s2,a2,t3
    47a4:	01c93633          	sltu	a2,s2,t3
    47a8:	9732                	add	a4,a4,a2
    47aa:	00871793          	slli	a5,a4,0x8
    47ae:	de07dee3          	bgez	a5,45aa <__subdf3+0x374>
    47b2:	0405                	addi	s0,s0,1
    47b4:	7ff00793          	li	a5,2047
    47b8:	08f40363          	beq	s0,a5,483e <__subdf3+0x608>
    47bc:	ff8007b7          	lui	a5,0xff800
    47c0:	17fd                	addi	a5,a5,-1
    47c2:	8ff9                	and	a5,a5,a4
    47c4:	00197613          	andi	a2,s2,1
    47c8:	00195713          	srli	a4,s2,0x1
    47cc:	8e59                	or	a2,a2,a4
    47ce:	01f79913          	slli	s2,a5,0x1f
    47d2:	00c96933          	or	s2,s2,a2
    47d6:	0017d713          	srli	a4,a5,0x1
    47da:	00797793          	andi	a5,s2,7
    47de:	bbe1                	j	45b6 <__subdf3+0x380>
    47e0:	fe030613          	addi	a2,t1,-32 # 7fffe0 <_data_lma+0x7f40c4>
    47e4:	02000793          	li	a5,32
    47e8:	00c85633          	srl	a2,a6,a2
    47ec:	00f30a63          	beq	t1,a5,4800 <__subdf3+0x5ca>
    47f0:	04000793          	li	a5,64
    47f4:	40678333          	sub	t1,a5,t1
    47f8:	00681833          	sll	a6,a6,t1
    47fc:	0105e5b3          	or	a1,a1,a6
    4800:	00b035b3          	snez	a1,a1
    4804:	8e4d                	or	a2,a2,a1
    4806:	b4cd                	j	42e8 <__subdf3+0xb2>
    4808:	01c76633          	or	a2,a4,t3
    480c:	00c03633          	snez	a2,a2
    4810:	40c58933          	sub	s2,a1,a2
    4814:	0125b7b3          	sltu	a5,a1,s2
    4818:	40f80733          	sub	a4,a6,a5
    481c:	8446                	mv	s0,a7
    481e:	84b6                	mv	s1,a3
    4820:	bcc9                	j	42f2 <__subdf3+0xbc>
    4822:	01c766b3          	or	a3,a4,t3
    4826:	28068963          	beqz	a3,4ab8 <__subdf3+0x882>
    482a:	fff78693          	addi	a3,a5,-1 # ff7fffff <_eusrstack+0xdf7dffff>
    482e:	38068b63          	beqz	a3,4bc4 <__subdf3+0x98e>
    4832:	7ff00513          	li	a0,2047
    4836:	40a78e63          	beq	a5,a0,4c52 <__subdf3+0xa1c>
    483a:	87b6                	mv	a5,a3
    483c:	bd75                	j	46f8 <__subdf3+0x4c2>
    483e:	20098363          	beqz	s3,4a44 <__subdf3+0x80e>
    4842:	478d                	li	a5,3
    4844:	3ef98b63          	beq	s3,a5,4c3a <__subdf3+0xa04>
    4848:	4789                	li	a5,2
    484a:	3cf98f63          	beq	s3,a5,4c28 <__subdf3+0x9f2>
    484e:	44099063          	bnez	s3,4c8e <__subdf3+0xa58>
    4852:	7fe00413          	li	s0,2046
    4856:	4701                	li	a4,0
    4858:	490d                	li	s2,3
    485a:	4315                	li	t1,5
    485c:	01d71793          	slli	a5,a4,0x1d
    4860:	00395613          	srli	a2,s2,0x3
    4864:	7ff00693          	li	a3,2047
    4868:	8e5d                	or	a2,a2,a5
    486a:	00375793          	srli	a5,a4,0x3
    486e:	c4d418e3          	bne	s0,a3,44be <__subdf3+0x288>
    4872:	8fd1                	or	a5,a5,a2
    4874:	e2078ae3          	beqz	a5,46a8 <__subdf3+0x472>
    4878:	4481                	li	s1,0
    487a:	7ff00413          	li	s0,2047
    487e:	000807b7          	lui	a5,0x80
    4882:	4601                	li	a2,0
    4884:	beb9                	j	43e2 <__subdf3+0x1ac>
    4886:	02000793          	li	a5,32
    488a:	406787b3          	sub	a5,a5,t1
    488e:	0065d933          	srl	s2,a1,t1
    4892:	00f81633          	sll	a2,a6,a5
    4896:	00f595b3          	sll	a1,a1,a5
    489a:	01266633          	or	a2,a2,s2
    489e:	00685333          	srl	t1,a6,t1
    48a2:	00b03933          	snez	s2,a1
    48a6:	01266633          	or	a2,a2,s2
    48aa:	971a                	add	a4,a4,t1
    48ac:	bdd5                	j	47a0 <__subdf3+0x56a>
    48ae:	00be0933          	add	s2,t3,a1
    48b2:	010707b3          	add	a5,a4,a6
    48b6:	01c93633          	sltu	a2,s2,t3
    48ba:	00c78733          	add	a4,a5,a2
    48be:	00871793          	slli	a5,a4,0x8
    48c2:	4405                	li	s0,1
    48c4:	ce07d7e3          	bgez	a5,45b2 <__subdf3+0x37c>
    48c8:	ff8007b7          	lui	a5,0xff800
    48cc:	17fd                	addi	a5,a5,-1
    48ce:	8ff9                	and	a5,a5,a4
    48d0:	00195613          	srli	a2,s2,0x1
    48d4:	01f79913          	slli	s2,a5,0x1f
    48d8:	00c96933          	or	s2,s2,a2
    48dc:	0017d713          	srli	a4,a5,0x1
    48e0:	4409                	li	s0,2
    48e2:	00797793          	andi	a5,s2,7
    48e6:	b9c1                	j	45b6 <__subdf3+0x380>
    48e8:	00536313          	ori	t1,t1,5
    48ec:	ce0487e3          	beqz	s1,45da <__subdf3+0x3a4>
    48f0:	bb65                	j	46a8 <__subdf3+0x472>
    48f2:	7ff00793          	li	a5,2047
    48f6:	2ef40063          	beq	s0,a5,4bd6 <__subdf3+0x9a0>
    48fa:	1ef88863          	beq	a7,a5,4aea <__subdf3+0x8b4>
    48fe:	1e068c63          	beqz	a3,4af6 <__subdf3+0x8c0>
    4902:	00b86833          	or	a6,a6,a1
    4906:	f60819e3          	bnez	a6,4878 <__subdf3+0x642>
    490a:	00351613          	slli	a2,a0,0x3
    490e:	01d71793          	slli	a5,a4,0x1d
    4912:	820d                	srli	a2,a2,0x3
    4914:	8e5d                	or	a2,a2,a5
    4916:	00375793          	srli	a5,a4,0x3
    491a:	bfa1                	j	4872 <__subdf3+0x63c>
    491c:	16078b63          	beqz	a5,4a92 <__subdf3+0x85c>
    4920:	4781                	li	a5,0
    4922:	8742                	mv	a4,a6
    4924:	8e2e                	mv	t3,a1
    4926:	84b6                	mv	s1,a3
    4928:	8972                	mv	s2,t3
    492a:	bc1d                	j	4360 <__subdf3+0x12a>
    492c:	01c76633          	or	a2,a4,t3
    4930:	c20d                	beqz	a2,4952 <__subdf3+0x71c>
    4932:	00400337          	lui	t1,0x400
    4936:	050e                	slli	a0,a0,0x3
    4938:	00677333          	and	t1,a4,t1
    493c:	01d71613          	slli	a2,a4,0x1d
    4940:	810d                	srli	a0,a0,0x3
    4942:	00133313          	seqz	t1,t1
    4946:	8e49                	or	a2,a2,a0
    4948:	00375793          	srli	a5,a4,0x3
    494c:	0312                	slli	t1,t1,0x4
    494e:	b715                	j	4872 <__subdf3+0x63c>
    4950:	84b6                	mv	s1,a3
    4952:	4301                	li	t1,0
    4954:	bb91                	j	46a8 <__subdf3+0x472>
    4956:	40be0933          	sub	s2,t3,a1
    495a:	410707b3          	sub	a5,a4,a6
    495e:	012e3633          	sltu	a2,t3,s2
    4962:	40c78733          	sub	a4,a5,a2
    4966:	00871793          	slli	a5,a4,0x8
    496a:	4405                	li	s0,1
    496c:	9807c7e3          	bltz	a5,42fa <__subdf3+0xc4>
    4970:	b189                	j	45b2 <__subdf3+0x37c>
    4972:	01c76633          	or	a2,a4,t3
    4976:	de71                	beqz	a2,4952 <__subdf3+0x71c>
    4978:	00400337          	lui	t1,0x400
    497c:	00351613          	slli	a2,a0,0x3
    4980:	00677333          	and	t1,a4,t1
    4984:	01d71793          	slli	a5,a4,0x1d
    4988:	820d                	srli	a2,a2,0x3
    498a:	00133313          	seqz	t1,t1
    498e:	8e5d                	or	a2,a2,a5
    4990:	0312                	slli	t1,t1,0x4
    4992:	00375793          	srli	a5,a4,0x3
    4996:	bdf1                	j	4872 <__subdf3+0x63c>
    4998:	01c767b3          	or	a5,a4,t3
    499c:	ebcd                	bnez	a5,4a4e <__subdf3+0x818>
    499e:	4701                	li	a4,0
    49a0:	4e01                	li	t3,0
    49a2:	4301                	li	t1,0
    49a4:	01d71793          	slli	a5,a4,0x1d
    49a8:	003e5613          	srli	a2,t3,0x3
    49ac:	8e5d                	or	a2,a2,a5
    49ae:	00375793          	srli	a5,a4,0x3
    49b2:	b5c1                	j	4872 <__subdf3+0x63c>
    49b4:	00f5f613          	andi	a2,a1,15
    49b8:	4511                	li	a0,4
    49ba:	9ca607e3          	beq	a2,a0,4388 <__subdf3+0x152>
    49be:	ffc5b593          	sltiu	a1,a1,-4
    49c2:	0015c593          	xori	a1,a1,1
    49c6:	96ae                	add	a3,a3,a1
    49c8:	b2c1                	j	4388 <__subdf3+0x152>
    49ca:	9a049fe3          	bnez	s1,4388 <__subdf3+0x152>
    49ce:	ff85b613          	sltiu	a2,a1,-8
    49d2:	00164613          	xori	a2,a2,1
    49d6:	96b2                	add	a3,a3,a2
    49d8:	ba45                	j	4388 <__subdf3+0x152>
    49da:	4305                	li	t1,1
    49dc:	9a0486e3          	beqz	s1,4388 <__subdf3+0x152>
    49e0:	b7fd                	j	49ce <__subdf3+0x798>
    49e2:	7ff00793          	li	a5,2047
    49e6:	0ef68163          	beq	a3,a5,4ac8 <__subdf3+0x892>
    49ea:	95f2                	add	a1,a1,t3
    49ec:	010707b3          	add	a5,a4,a6
    49f0:	01c5b733          	sltu	a4,a1,t3
    49f4:	97ba                	add	a5,a5,a4
    49f6:	01f79613          	slli	a2,a5,0x1f
    49fa:	8185                	srli	a1,a1,0x1
    49fc:	00b66933          	or	s2,a2,a1
    4a00:	0017d713          	srli	a4,a5,0x1
    4a04:	8436                	mv	s0,a3
    4a06:	00797793          	andi	a5,s2,7
    4a0a:	b675                	j	45b6 <__subdf3+0x380>
    4a0c:	41c58933          	sub	s2,a1,t3
    4a10:	40e80833          	sub	a6,a6,a4
    4a14:	0125b5b3          	sltu	a1,a1,s2
    4a18:	40b80a33          	sub	s4,a6,a1
    4a1c:	84b6                	mv	s1,a3
    4a1e:	b0d5                	j	4302 <__subdf3+0xcc>
    4a20:	7ff00593          	li	a1,2047
    4a24:	0eb40163          	beq	s0,a1,4b06 <__subdf3+0x8d0>
    4a28:	0eb88a63          	beq	a7,a1,4b1c <__subdf3+0x8e6>
    4a2c:	c60e82e3          	beqz	t4,4690 <__subdf3+0x45a>
    4a30:	e40794e3          	bnez	a5,4878 <__subdf3+0x642>
    4a34:	050e                	slli	a0,a0,0x3
    4a36:	01d71613          	slli	a2,a4,0x1d
    4a3a:	810d                	srli	a0,a0,0x3
    4a3c:	8e49                	or	a2,a2,a0
    4a3e:	00375793          	srli	a5,a4,0x3
    4a42:	bd05                	j	4872 <__subdf3+0x63c>
    4a44:	4315                	li	t1,5
    4a46:	b18d                	j	46a8 <__subdf3+0x472>
    4a48:	01c767b3          	or	a5,a4,t3
    4a4c:	d399                	beqz	a5,4952 <__subdf3+0x71c>
    4a4e:	00400337          	lui	t1,0x400
    4a52:	00677333          	and	t1,a4,t1
    4a56:	00133313          	seqz	t1,t1
    4a5a:	0312                	slli	t1,t1,0x4
    4a5c:	b7a1                	j	49a4 <__subdf3+0x76e>
    4a5e:	01c76633          	or	a2,a4,t3
    4a62:	00c03633          	snez	a2,a2
    4a66:	b1c9                	j	4728 <__subdf3+0x4f2>
    4a68:	fe078613          	addi	a2,a5,-32 # ff7fffe0 <_eusrstack+0xdf7dffe0>
    4a6c:	02000513          	li	a0,32
    4a70:	00c75933          	srl	s2,a4,a2
    4a74:	00a78a63          	beq	a5,a0,4a88 <__subdf3+0x852>
    4a78:	04000613          	li	a2,64
    4a7c:	40f607b3          	sub	a5,a2,a5
    4a80:	00f717b3          	sll	a5,a4,a5
    4a84:	00fe6e33          	or	t3,t3,a5
    4a88:	01c03633          	snez	a2,t3
    4a8c:	01266633          	or	a2,a2,s2
    4a90:	b341                	j	4810 <__subdf3+0x5da>
    4a92:	ffe98493          	addi	s1,s3,-2
    4a96:	0014b493          	seqz	s1,s1
    4a9a:	4601                	li	a2,0
    4a9c:	b40d                	j	44be <__subdf3+0x288>
    4a9e:	41c58933          	sub	s2,a1,t3
    4aa2:	40e807b3          	sub	a5,a6,a4
    4aa6:	0125b5b3          	sltu	a1,a1,s2
    4aaa:	40b78733          	sub	a4,a5,a1
    4aae:	84b6                	mv	s1,a3
    4ab0:	bd5d                	j	4966 <__subdf3+0x730>
    4ab2:	8742                	mv	a4,a6
    4ab4:	892e                	mv	s2,a1
    4ab6:	b04d                	j	4358 <__subdf3+0x122>
    4ab8:	7ff00713          	li	a4,2047
    4abc:	0ee78863          	beq	a5,a4,4bac <__subdf3+0x976>
    4ac0:	8742                	mv	a4,a6
    4ac2:	892e                	mv	s2,a1
    4ac4:	843e                	mv	s0,a5
    4ac6:	b4d5                	j	45aa <__subdf3+0x374>
    4ac8:	f6098ee3          	beqz	s3,4a44 <__subdf3+0x80e>
    4acc:	478d                	li	a5,3
    4ace:	1cf98563          	beq	s3,a5,4c98 <__subdf3+0xa62>
    4ad2:	4789                	li	a5,2
    4ad4:	14f98a63          	beq	s3,a5,4c28 <__subdf3+0x9f2>
    4ad8:	1a099b63          	bnez	s3,4c8e <__subdf3+0xa58>
    4adc:	4501                	li	a0,0
    4ade:	4315                	li	t1,5
    4ae0:	7fe00413          	li	s0,2046
    4ae4:	577d                	li	a4,-1
    4ae6:	597d                	li	s2,-1
    4ae8:	be09                	j	45fa <__subdf3+0x3c4>
    4aea:	00b865b3          	or	a1,a6,a1
    4aee:	10059263          	bnez	a1,4bf2 <__subdf3+0x9bc>
    4af2:	e0069ce3          	bnez	a3,490a <__subdf3+0x6d4>
    4af6:	060e                	slli	a2,a2,0x3
    4af8:	01d81793          	slli	a5,a6,0x1d
    4afc:	820d                	srli	a2,a2,0x3
    4afe:	8e5d                	or	a2,a2,a5
    4b00:	00385793          	srli	a5,a6,0x3
    4b04:	b3bd                	j	4872 <__subdf3+0x63c>
    4b06:	b80e83e3          	beqz	t4,468c <__subdf3+0x456>
    4b0a:	00971593          	slli	a1,a4,0x9
    4b0e:	0005c363          	bltz	a1,4b14 <__subdf3+0x8de>
    4b12:	4341                	li	t1,16
    4b14:	7ff00593          	li	a1,2047
    4b18:	f0b89ce3          	bne	a7,a1,4a30 <__subdf3+0x7fa>
    4b1c:	12078863          	beqz	a5,4c4c <__subdf3+0xa16>
    4b20:	00981793          	slli	a5,a6,0x9
    4b24:	0007c363          	bltz	a5,4b2a <__subdf3+0x8f4>
    4b28:	4341                	li	t1,16
    4b2a:	d40e97e3          	bnez	t4,4878 <__subdf3+0x642>
    4b2e:	00361793          	slli	a5,a2,0x3
    4b32:	838d                	srli	a5,a5,0x3
    4b34:	01d81613          	slli	a2,a6,0x1d
    4b38:	8e5d                	or	a2,a2,a5
    4b3a:	84b6                	mv	s1,a3
    4b3c:	00385793          	srli	a5,a6,0x3
    4b40:	bb0d                	j	4872 <__subdf3+0x63c>
    4b42:	00c567b3          	or	a5,a0,a2
    4b46:	d7b1                	beqz	a5,4a92 <__subdf3+0x85c>
    4b48:	8e2a                	mv	t3,a0
    4b4a:	00757793          	andi	a5,a0,7
    4b4e:	8732                	mv	a4,a2
    4b50:	8972                	mv	s2,t3
    4b52:	b039                	j	4360 <__subdf3+0x12a>
    4b54:	00b865b3          	or	a1,a6,a1
    4b58:	de058ce3          	beqz	a1,4950 <__subdf3+0x71a>
    4b5c:	00361793          	slli	a5,a2,0x3
    4b60:	838d                	srli	a5,a5,0x3
    4b62:	01d81613          	slli	a2,a6,0x1d
    4b66:	becd                	j	4758 <__subdf3+0x522>
    4b68:	fe078613          	addi	a2,a5,-32
    4b6c:	02000693          	li	a3,32
    4b70:	00c75933          	srl	s2,a4,a2
    4b74:	00d78a63          	beq	a5,a3,4b88 <__subdf3+0x952>
    4b78:	04000693          	li	a3,64
    4b7c:	40f687b3          	sub	a5,a3,a5
    4b80:	00f717b3          	sll	a5,a4,a5
    4b84:	00fe6e33          	or	t3,t3,a5
    4b88:	01c03633          	snez	a2,t3
    4b8c:	01266633          	or	a2,a2,s2
    4b90:	be61                	j	4728 <__subdf3+0x4f2>
    4b92:	00b86e33          	or	t3,a6,a1
    4b96:	0e0e0263          	beqz	t3,4c7a <__subdf3+0xa44>
    4b9a:	00981793          	slli	a5,a6,0x9
    4b9e:	8742                	mv	a4,a6
    4ba0:	8e2e                	mv	t3,a1
    4ba2:	84b6                	mv	s1,a3
    4ba4:	0007ce63          	bltz	a5,4bc0 <__subdf3+0x98a>
    4ba8:	4341                	li	t1,16
    4baa:	bbed                	j	49a4 <__subdf3+0x76e>
    4bac:	00b86e33          	or	t3,a6,a1
    4bb0:	0e0e0163          	beqz	t3,4c92 <__subdf3+0xa5c>
    4bb4:	00981793          	slli	a5,a6,0x9
    4bb8:	8742                	mv	a4,a6
    4bba:	8e2e                	mv	t3,a1
    4bbc:	fe07d6e3          	bgez	a5,4ba8 <__subdf3+0x972>
    4bc0:	4301                	li	t1,0
    4bc2:	b3cd                	j	49a4 <__subdf3+0x76e>
    4bc4:	00be0933          	add	s2,t3,a1
    4bc8:	010707b3          	add	a5,a4,a6
    4bcc:	00b935b3          	sltu	a1,s2,a1
    4bd0:	00b78733          	add	a4,a5,a1
    4bd4:	b1ed                	j	48be <__subdf3+0x688>
    4bd6:	c6d5                	beqz	a3,4c82 <__subdf3+0xa4c>
    4bd8:	00971793          	slli	a5,a4,0x9
    4bdc:	0007c363          	bltz	a5,4be2 <__subdf3+0x9ac>
    4be0:	4341                	li	t1,16
    4be2:	7ff00793          	li	a5,2047
    4be6:	d0f89ee3          	bne	a7,a5,4902 <__subdf3+0x6cc>
    4bea:	00b865b3          	or	a1,a6,a1
    4bee:	d0058ee3          	beqz	a1,490a <__subdf3+0x6d4>
    4bf2:	00981793          	slli	a5,a6,0x9
    4bf6:	0007c363          	bltz	a5,4bfc <__subdf3+0x9c6>
    4bfa:	4341                	li	t1,16
    4bfc:	ee068de3          	beqz	a3,4af6 <__subdf3+0x8c0>
    4c00:	b9a5                	j	4878 <__subdf3+0x642>
    4c02:	00b865b3          	or	a1,a6,a1
    4c06:	d40586e3          	beqz	a1,4952 <__subdf3+0x71c>
    4c0a:	00400337          	lui	t1,0x400
    4c0e:	060e                	slli	a2,a2,0x3
    4c10:	00687333          	and	t1,a6,t1
    4c14:	01d81793          	slli	a5,a6,0x1d
    4c18:	820d                	srli	a2,a2,0x3
    4c1a:	00133313          	seqz	t1,t1
    4c1e:	8e5d                	or	a2,a2,a5
    4c20:	0312                	slli	t1,t1,0x4
    4c22:	00385793          	srli	a5,a6,0x3
    4c26:	b1b1                	j	4872 <__subdf3+0x63c>
    4c28:	e0049ee3          	bnez	s1,4a44 <__subdf3+0x80e>
    4c2c:	7fe00413          	li	s0,2046
    4c30:	577d                	li	a4,-1
    4c32:	597d                	li	s2,-1
    4c34:	4315                	li	t1,5
    4c36:	f84ff06f          	j	43ba <__subdf3+0x184>
    4c3a:	e00485e3          	beqz	s1,4a44 <__subdf3+0x80e>
    4c3e:	7fe00413          	li	s0,2046
    4c42:	4501                	li	a0,0
    4c44:	597d                	li	s2,-1
    4c46:	577d                	li	a4,-1
    4c48:	4315                	li	t1,5
    4c4a:	b2ed                	j	4634 <__subdf3+0x3fe>
    4c4c:	a40e84e3          	beqz	t4,4694 <__subdf3+0x45e>
    4c50:	b3d5                	j	4a34 <__subdf3+0x7fe>
    4c52:	00b865b3          	or	a1,a6,a1
    4c56:	ce058ee3          	beqz	a1,4952 <__subdf3+0x71c>
    4c5a:	00400337          	lui	t1,0x400
    4c5e:	00361793          	slli	a5,a2,0x3
    4c62:	00687333          	and	t1,a6,t1
    4c66:	838d                	srli	a5,a5,0x3
    4c68:	01d81613          	slli	a2,a6,0x1d
    4c6c:	00133313          	seqz	t1,t1
    4c70:	8e5d                	or	a2,a2,a5
    4c72:	0312                	slli	t1,t1,0x4
    4c74:	00385793          	srli	a5,a6,0x3
    4c78:	beed                	j	4872 <__subdf3+0x63c>
    4c7a:	4701                	li	a4,0
    4c7c:	84b6                	mv	s1,a3
    4c7e:	4301                	li	t1,0
    4c80:	b315                	j	49a4 <__subdf3+0x76e>
    4c82:	e6889ae3          	bne	a7,s0,4af6 <__subdf3+0x8c0>
    4c86:	00b865b3          	or	a1,a6,a1
    4c8a:	f5a5                	bnez	a1,4bf2 <__subdf3+0x9bc>
    4c8c:	b5ad                	j	4af6 <__subdf3+0x8c0>
    4c8e:	4315                	li	t1,5
    4c90:	ba2d                	j	45ca <__subdf3+0x394>
    4c92:	4701                	li	a4,0
    4c94:	4301                	li	t1,0
    4c96:	b339                	j	49a4 <__subdf3+0x76e>
    4c98:	da0486e3          	beqz	s1,4a44 <__subdf3+0x80e>
    4c9c:	4501                	li	a0,0
    4c9e:	7fe00413          	li	s0,2046
    4ca2:	597d                	li	s2,-1
    4ca4:	577d                	li	a4,-1
    4ca6:	4315                	li	t1,5
    4ca8:	b271                	j	4634 <__subdf3+0x3fe>
    4caa:	008005b7          	lui	a1,0x800
    4cae:	8df9                	and	a1,a1,a4
    4cb0:	4401                	li	s0,0
    4cb2:	f0069263          	bnez	a3,43b6 <__subdf3+0x180>
    4cb6:	f0030063          	beqz	t1,43b6 <__subdf3+0x180>
    4cba:	00236313          	ori	t1,t1,2
    4cbe:	ef8ff06f          	j	43b6 <__subdf3+0x180>

00004cc2 <__fixunsdfsi>:
    4cc2:	002027f3          	frrm	a5
    4cc6:	00100637          	lui	a2,0x100
    4cca:	0145d713          	srli	a4,a1,0x14
    4cce:	fff60793          	addi	a5,a2,-1 # fffff <_data_lma+0xf40e3>
    4cd2:	7ff77713          	andi	a4,a4,2047
    4cd6:	3fe00813          	li	a6,1022
    4cda:	8fed                	and	a5,a5,a1
    4cdc:	86aa                	mv	a3,a0
    4cde:	81fd                	srli	a1,a1,0x1f
    4ce0:	00e84f63          	blt	a6,a4,4cfe <__fixunsdfsi+0x3c>
    4ce4:	c711                	beqz	a4,4cf0 <__fixunsdfsi+0x2e>
    4ce6:	4501                	li	a0,0
    4ce8:	4685                	li	a3,1
    4cea:	0016a073          	csrs	fflags,a3
    4cee:	8082                	ret
    4cf0:	8fc9                	or	a5,a5,a0
    4cf2:	4501                	li	a0,0
    4cf4:	c385                	beqz	a5,4d14 <__fixunsdfsi+0x52>
    4cf6:	4685                	li	a3,1
    4cf8:	0016a073          	csrs	fflags,a3
    4cfc:	8082                	ret
    4cfe:	c581                	beqz	a1,4d06 <__fixunsdfsi+0x44>
    4d00:	4501                	li	a0,0
    4d02:	46c1                	li	a3,16
    4d04:	b7dd                	j	4cea <__fixunsdfsi+0x28>
    4d06:	41e00593          	li	a1,1054
    4d0a:	00e5d663          	bge	a1,a4,4d16 <__fixunsdfsi+0x54>
    4d0e:	557d                	li	a0,-1
    4d10:	46c1                	li	a3,16
    4d12:	bfe1                	j	4cea <__fixunsdfsi+0x28>
    4d14:	8082                	ret
    4d16:	43300593          	li	a1,1075
    4d1a:	8d99                	sub	a1,a1,a4
    4d1c:	487d                	li	a6,31
    4d1e:	8fd1                	or	a5,a5,a2
    4d20:	00b84f63          	blt	a6,a1,4d3e <__fixunsdfsi+0x7c>
    4d24:	bed70713          	addi	a4,a4,-1043 # ff7ffbed <_eusrstack+0xdf7dfbed>
    4d28:	00e516b3          	sll	a3,a0,a4
    4d2c:	00e79733          	sll	a4,a5,a4
    4d30:	00b55533          	srl	a0,a0,a1
    4d34:	00d036b3          	snez	a3,a3
    4d38:	8d59                	or	a0,a0,a4
    4d3a:	fac5                	bnez	a3,4cea <__fixunsdfsi+0x28>
    4d3c:	8082                	ret
    4d3e:	02000613          	li	a2,32
    4d42:	00c58763          	beq	a1,a2,4d50 <__fixunsdfsi+0x8e>
    4d46:	c0d70693          	addi	a3,a4,-1011
    4d4a:	00d796b3          	sll	a3,a5,a3
    4d4e:	8ec9                	or	a3,a3,a0
    4d50:	41300513          	li	a0,1043
    4d54:	8d19                	sub	a0,a0,a4
    4d56:	00d036b3          	snez	a3,a3
    4d5a:	00a7d533          	srl	a0,a5,a0
    4d5e:	bff1                	j	4d3a <__fixunsdfsi+0x78>

00004d60 <__floatunsidf>:
    4d60:	cd15                	beqz	a0,4d9c <__floatunsidf+0x3c>
    4d62:	1141                	addi	sp,sp,-16
    4d64:	c422                	sw	s0,8(sp)
    4d66:	c606                	sw	ra,12(sp)
    4d68:	842a                	mv	s0,a0
    4d6a:	218d                	jal	51cc <__clzsi2>
    4d6c:	41e00693          	li	a3,1054
    4d70:	8e89                	sub	a3,a3,a0
    4d72:	47a9                	li	a5,10
    4d74:	7ff6f693          	andi	a3,a3,2047
    4d78:	02a7dc63          	bge	a5,a0,4db0 <__floatunsidf+0x50>
    4d7c:	1555                	addi	a0,a0,-11
    4d7e:	00a417b3          	sll	a5,s0,a0
    4d82:	07b2                	slli	a5,a5,0xc
    4d84:	83b1                	srli	a5,a5,0xc
    4d86:	4701                	li	a4,0
    4d88:	40b2                	lw	ra,12(sp)
    4d8a:	4422                	lw	s0,8(sp)
    4d8c:	07b2                	slli	a5,a5,0xc
    4d8e:	06d2                	slli	a3,a3,0x14
    4d90:	83b1                	srli	a5,a5,0xc
    4d92:	8fd5                	or	a5,a5,a3
    4d94:	853a                	mv	a0,a4
    4d96:	85be                	mv	a1,a5
    4d98:	0141                	addi	sp,sp,16
    4d9a:	8082                	ret
    4d9c:	4781                	li	a5,0
    4d9e:	4681                	li	a3,0
    4da0:	07b2                	slli	a5,a5,0xc
    4da2:	06d2                	slli	a3,a3,0x14
    4da4:	83b1                	srli	a5,a5,0xc
    4da6:	4701                	li	a4,0
    4da8:	8fd5                	or	a5,a5,a3
    4daa:	853a                	mv	a0,a4
    4dac:	85be                	mv	a1,a5
    4dae:	8082                	ret
    4db0:	472d                	li	a4,11
    4db2:	8f09                	sub	a4,a4,a0
    4db4:	00e457b3          	srl	a5,s0,a4
    4db8:	07b2                	slli	a5,a5,0xc
    4dba:	01550713          	addi	a4,a0,21 # 800015 <_data_lma+0x7f40f9>
    4dbe:	00e41733          	sll	a4,s0,a4
    4dc2:	83b1                	srli	a5,a5,0xc
    4dc4:	b7d1                	j	4d88 <__floatunsidf+0x28>

00004dc6 <__extendsfdf2>:
    4dc6:	1141                	addi	sp,sp,-16
    4dc8:	c606                	sw	ra,12(sp)
    4dca:	c422                	sw	s0,8(sp)
    4dcc:	c226                	sw	s1,4(sp)
    4dce:	e00507d3          	fmv.x.w	a5,fa0
    4dd2:	00202773          	frrm	a4
    4dd6:	0177d513          	srli	a0,a5,0x17
    4dda:	0ff57513          	andi	a0,a0,255
    4dde:	00150713          	addi	a4,a0,1
    4de2:	00979413          	slli	s0,a5,0x9
    4de6:	0fe77713          	andi	a4,a4,254
    4dea:	8025                	srli	s0,s0,0x9
    4dec:	01f7d493          	srli	s1,a5,0x1f
    4df0:	c31d                	beqz	a4,4e16 <__extendsfdf2+0x50>
    4df2:	00345793          	srli	a5,s0,0x3
    4df6:	38050513          	addi	a0,a0,896
    4dfa:	0476                	slli	s0,s0,0x1d
    4dfc:	07b2                	slli	a5,a5,0xc
    4dfe:	0552                	slli	a0,a0,0x14
    4e00:	83b1                	srli	a5,a5,0xc
    4e02:	8fc9                	or	a5,a5,a0
    4e04:	04fe                	slli	s1,s1,0x1f
    4e06:	8fc5                	or	a5,a5,s1
    4e08:	8522                	mv	a0,s0
    4e0a:	85be                	mv	a1,a5
    4e0c:	40b2                	lw	ra,12(sp)
    4e0e:	4422                	lw	s0,8(sp)
    4e10:	4492                	lw	s1,4(sp)
    4e12:	0141                	addi	sp,sp,16
    4e14:	8082                	ret
    4e16:	e90d                	bnez	a0,4e48 <__extendsfdf2+0x82>
    4e18:	c435                	beqz	s0,4e84 <__extendsfdf2+0xbe>
    4e1a:	8522                	mv	a0,s0
    4e1c:	2e45                	jal	51cc <__clzsi2>
    4e1e:	47a9                	li	a5,10
    4e20:	08a7c163          	blt	a5,a0,4ea2 <__extendsfdf2+0xdc>
    4e24:	472d                	li	a4,11
    4e26:	8f09                	sub	a4,a4,a0
    4e28:	01550793          	addi	a5,a0,21
    4e2c:	00e45733          	srl	a4,s0,a4
    4e30:	00f41433          	sll	s0,s0,a5
    4e34:	00c71793          	slli	a5,a4,0xc
    4e38:	38900713          	li	a4,905
    4e3c:	40a70533          	sub	a0,a4,a0
    4e40:	83b1                	srli	a5,a5,0xc
    4e42:	7ff57513          	andi	a0,a0,2047
    4e46:	bf5d                	j	4dfc <__extendsfdf2+0x36>
    4e48:	c815                	beqz	s0,4e7c <__extendsfdf2+0xb6>
    4e4a:	00080737          	lui	a4,0x80
    4e4e:	00345793          	srli	a5,s0,0x3
    4e52:	8fd9                	or	a5,a5,a4
    4e54:	00100737          	lui	a4,0x100
    4e58:	177d                	addi	a4,a4,-1
    4e5a:	00941613          	slli	a2,s0,0x9
    4e5e:	01d41693          	slli	a3,s0,0x1d
    4e62:	8ff9                	and	a5,a5,a4
    4e64:	02065363          	bgez	a2,4e8a <__extendsfdf2+0xc4>
    4e68:	8f7d                	and	a4,a4,a5
    4e6a:	01f49793          	slli	a5,s1,0x1f
    4e6e:	7ff004b7          	lui	s1,0x7ff00
    4e72:	8cd9                	or	s1,s1,a4
    4e74:	8fc5                	or	a5,a5,s1
    4e76:	8536                	mv	a0,a3
    4e78:	85be                	mv	a1,a5
    4e7a:	bf49                	j	4e0c <__extendsfdf2+0x46>
    4e7c:	7ff00513          	li	a0,2047
    4e80:	4781                	li	a5,0
    4e82:	bfad                	j	4dfc <__extendsfdf2+0x36>
    4e84:	4501                	li	a0,0
    4e86:	4781                	li	a5,0
    4e88:	bf95                	j	4dfc <__extendsfdf2+0x36>
    4e8a:	8f7d                	and	a4,a4,a5
    4e8c:	01f49793          	slli	a5,s1,0x1f
    4e90:	7ff004b7          	lui	s1,0x7ff00
    4e94:	8f45                	or	a4,a4,s1
    4e96:	8fd9                	or	a5,a5,a4
    4e98:	8536                	mv	a0,a3
    4e9a:	85be                	mv	a1,a5
    4e9c:	00186073          	csrsi	fflags,16
    4ea0:	b7b5                	j	4e0c <__extendsfdf2+0x46>
    4ea2:	ff550713          	addi	a4,a0,-11
    4ea6:	00e41733          	sll	a4,s0,a4
    4eaa:	4401                	li	s0,0
    4eac:	b761                	j	4e34 <__extendsfdf2+0x6e>

00004eae <__truncdfsf2>:
    4eae:	002028f3          	frrm	a7
    4eb2:	0145d693          	srli	a3,a1,0x14
    4eb6:	00c59713          	slli	a4,a1,0xc
    4eba:	7ff6f693          	andi	a3,a3,2047
    4ebe:	8331                	srli	a4,a4,0xc
    4ec0:	00168813          	addi	a6,a3,1 # 10001 <_data_lma+0x40e5>
    4ec4:	070e                	slli	a4,a4,0x3
    4ec6:	01d55613          	srli	a2,a0,0x1d
    4eca:	7fe87813          	andi	a6,a6,2046
    4ece:	81fd                	srli	a1,a1,0x1f
    4ed0:	8f51                	or	a4,a4,a2
    4ed2:	00351793          	slli	a5,a0,0x3
    4ed6:	0a080b63          	beqz	a6,4f8c <__truncdfsf2+0xde>
    4eda:	c8068613          	addi	a2,a3,-896
    4ede:	0fe00813          	li	a6,254
    4ee2:	02c85f63          	bge	a6,a2,4f20 <__truncdfsf2+0x72>
    4ee6:	12088f63          	beqz	a7,5024 <__truncdfsf2+0x176>
    4eea:	478d                	li	a5,3
    4eec:	26f88063          	beq	a7,a5,514c <__truncdfsf2+0x29e>
    4ef0:	4789                	li	a5,2
    4ef2:	26f88763          	beq	a7,a5,5160 <__truncdfsf2+0x2b2>
    4ef6:	26089663          	bnez	a7,5162 <__truncdfsf2+0x2b4>
    4efa:	0fe00613          	li	a2,254
    4efe:	470d                	li	a4,3
    4f00:	4515                	li	a0,5
    4f02:	071a                	slli	a4,a4,0x6
    4f04:	8325                	srli	a4,a4,0x9
    4f06:	0ff67613          	andi	a2,a2,255
    4f0a:	00971793          	slli	a5,a4,0x9
    4f0e:	065e                	slli	a2,a2,0x17
    4f10:	83a5                	srli	a5,a5,0x9
    4f12:	05fe                	slli	a1,a1,0x1f
    4f14:	8fd1                	or	a5,a5,a2
    4f16:	8fcd                	or	a5,a5,a1
    4f18:	e53d                	bnez	a0,4f86 <__truncdfsf2+0xd8>
    4f1a:	f0078553          	fmv.w.x	fa0,a5
    4f1e:	8082                	ret
    4f20:	10c05a63          	blez	a2,5034 <__truncdfsf2+0x186>
    4f24:	051a                	slli	a0,a0,0x6
    4f26:	00a03533          	snez	a0,a0
    4f2a:	070e                	slli	a4,a4,0x3
    4f2c:	83f5                	srli	a5,a5,0x1d
    4f2e:	8f49                	or	a4,a4,a0
    4f30:	8f5d                	or	a4,a4,a5
    4f32:	00777793          	andi	a5,a4,7
    4f36:	4501                	li	a0,0
    4f38:	d7e9                	beqz	a5,4f02 <__truncdfsf2+0x54>
    4f3a:	4789                	li	a5,2
    4f3c:	1ef88e63          	beq	a7,a5,5138 <__truncdfsf2+0x28a>
    4f40:	478d                	li	a5,3
    4f42:	16f88863          	beq	a7,a5,50b2 <__truncdfsf2+0x204>
    4f46:	4781                	li	a5,0
    4f48:	4505                	li	a0,1
    4f4a:	fa089ce3          	bnez	a7,4f02 <__truncdfsf2+0x54>
    4f4e:	00f77693          	andi	a3,a4,15
    4f52:	4811                	li	a6,4
    4f54:	4505                	li	a0,1
    4f56:	01068463          	beq	a3,a6,4f5e <__truncdfsf2+0xb0>
    4f5a:	0711                	addi	a4,a4,4
    4f5c:	4505                	li	a0,1
    4f5e:	c399                	beqz	a5,4f64 <__truncdfsf2+0xb6>
    4f60:	00256513          	ori	a0,a0,2
    4f64:	00571793          	slli	a5,a4,0x5
    4f68:	f807dde3          	bgez	a5,4f02 <__truncdfsf2+0x54>
    4f6c:	0605                	addi	a2,a2,1
    4f6e:	0ff00793          	li	a5,255
    4f72:	f8f618e3          	bne	a2,a5,4f02 <__truncdfsf2+0x54>
    4f76:	00556513          	ori	a0,a0,5
    4f7a:	10089c63          	bnez	a7,5092 <__truncdfsf2+0x1e4>
    4f7e:	05fe                	slli	a1,a1,0x1f
    4f80:	7f8007b7          	lui	a5,0x7f800
    4f84:	8fcd                	or	a5,a5,a1
    4f86:	00152073          	csrs	fflags,a0
    4f8a:	bf41                	j	4f1a <__truncdfsf2+0x6c>
    4f8c:	00f76633          	or	a2,a4,a5
    4f90:	eaa9                	bnez	a3,4fe2 <__truncdfsf2+0x134>
    4f92:	01f59793          	slli	a5,a1,0x1f
    4f96:	d251                	beqz	a2,4f1a <__truncdfsf2+0x6c>
    4f98:	4789                	li	a5,2
    4f9a:	16f88d63          	beq	a7,a5,5114 <__truncdfsf2+0x266>
    4f9e:	478d                	li	a5,3
    4fa0:	14f88563          	beq	a7,a5,50ea <__truncdfsf2+0x23c>
    4fa4:	4705                	li	a4,1
    4fa6:	4789                	li	a5,2
    4fa8:	4685                	li	a3,1
    4faa:	1e088963          	beqz	a7,519c <__truncdfsf2+0x2ee>
    4fae:	83ed                	srli	a5,a5,0x1b
    4fb0:	0017c793          	xori	a5,a5,1
    4fb4:	8b85                	andi	a5,a5,1
    4fb6:	4505                	li	a0,1
    4fb8:	20068163          	beqz	a3,51ba <__truncdfsf2+0x30c>
    4fbc:	4689                	li	a3,2
    4fbe:	18d88563          	beq	a7,a3,5148 <__truncdfsf2+0x29a>
    4fc2:	468d                	li	a3,3
    4fc4:	16d88863          	beq	a7,a3,5134 <__truncdfsf2+0x286>
    4fc8:	4601                	li	a2,0
    4fca:	f80882e3          	beqz	a7,4f4e <__truncdfsf2+0xa0>
    4fce:	4505                	li	a0,1
    4fd0:	10079a63          	bnez	a5,50e4 <__truncdfsf2+0x236>
    4fd4:	00571793          	slli	a5,a4,0x5
    4fd8:	4605                	li	a2,1
    4fda:	f207c4e3          	bltz	a5,4f02 <__truncdfsf2+0x54>
    4fde:	4601                	li	a2,0
    4fe0:	b70d                	j	4f02 <__truncdfsf2+0x54>
    4fe2:	ca15                	beqz	a2,5016 <__truncdfsf2+0x168>
    4fe4:	7ff00793          	li	a5,2047
    4fe8:	4501                	li	a0,0
    4fea:	00f69863          	bne	a3,a5,4ffa <__truncdfsf2+0x14c>
    4fee:	00400637          	lui	a2,0x400
    4ff2:	8f71                	and	a4,a4,a2
    4ff4:	00173513          	seqz	a0,a4
    4ff8:	0512                	slli	a0,a0,0x4
    4ffa:	00400737          	lui	a4,0x400
    4ffe:	0ff00613          	li	a2,255
    5002:	00971793          	slli	a5,a4,0x9
    5006:	4581                	li	a1,0
    5008:	065e                	slli	a2,a2,0x17
    500a:	83a5                	srli	a5,a5,0x9
    500c:	05fe                	slli	a1,a1,0x1f
    500e:	8fd1                	or	a5,a5,a2
    5010:	8fcd                	or	a5,a5,a1
    5012:	d501                	beqz	a0,4f1a <__truncdfsf2+0x6c>
    5014:	bf8d                	j	4f86 <__truncdfsf2+0xd8>
    5016:	05fe                	slli	a1,a1,0x1f
    5018:	7f8007b7          	lui	a5,0x7f800
    501c:	8fcd                	or	a5,a5,a1
    501e:	f0078553          	fmv.w.x	fa0,a5
    5022:	8082                	ret
    5024:	05fe                	slli	a1,a1,0x1f
    5026:	7f8007b7          	lui	a5,0x7f800
    502a:	8fcd                	or	a5,a5,a1
    502c:	4515                	li	a0,5
    502e:	00152073          	csrs	fflags,a0
    5032:	b5e5                	j	4f1a <__truncdfsf2+0x6c>
    5034:	5525                	li	a0,-23
    5036:	08a64763          	blt	a2,a0,50c4 <__truncdfsf2+0x216>
    503a:	4579                	li	a0,30
    503c:	00800337          	lui	t1,0x800
    5040:	8d11                	sub	a0,a0,a2
    5042:	487d                	li	a6,31
    5044:	00676733          	or	a4,a4,t1
    5048:	0aa85863          	bge	a6,a0,50f8 <__truncdfsf2+0x24a>
    504c:	5879                	li	a6,-2
    504e:	40c80633          	sub	a2,a6,a2
    5052:	02000813          	li	a6,32
    5056:	00c75633          	srl	a2,a4,a2
    505a:	01050763          	beq	a0,a6,5068 <__truncdfsf2+0x1ba>
    505e:	ca268693          	addi	a3,a3,-862
    5062:	00d716b3          	sll	a3,a4,a3
    5066:	8fd5                	or	a5,a5,a3
    5068:	00f03733          	snez	a4,a5
    506c:	8f51                	or	a4,a4,a2
    506e:	01f59793          	slli	a5,a1,0x1f
    5072:	ea0704e3          	beqz	a4,4f1a <__truncdfsf2+0x6c>
    5076:	00171793          	slli	a5,a4,0x1
    507a:	0077f613          	andi	a2,a5,7
    507e:	00777693          	andi	a3,a4,7
    5082:	10061063          	bnez	a2,5182 <__truncdfsf2+0x2d4>
    5086:	83ed                	srli	a5,a5,0x1b
    5088:	0017c793          	xori	a5,a5,1
    508c:	8b85                	andi	a5,a5,1
    508e:	4501                	li	a0,0
    5090:	b725                	j	4fb8 <__truncdfsf2+0x10a>
    5092:	478d                	li	a5,3
    5094:	0cf88363          	beq	a7,a5,515a <__truncdfsf2+0x2ac>
    5098:	4789                	li	a5,2
    509a:	08f88463          	beq	a7,a5,5122 <__truncdfsf2+0x274>
    509e:	ff000737          	lui	a4,0xff000
    50a2:	1779                	addi	a4,a4,-2
    50a4:	05fe                	slli	a1,a1,0x1f
    50a6:	8305                	srli	a4,a4,0x1
    50a8:	00b767b3          	or	a5,a4,a1
    50ac:	00152073          	csrs	fflags,a0
    50b0:	b5ad                	j	4f1a <__truncdfsf2+0x6c>
    50b2:	4781                	li	a5,0
    50b4:	852e                	mv	a0,a1
    50b6:	ea0594e3          	bnez	a1,4f5e <__truncdfsf2+0xb0>
    50ba:	0721                	addi	a4,a4,8
    50bc:	4505                	li	a0,1
    50be:	ea0791e3          	bnez	a5,4f60 <__truncdfsf2+0xb2>
    50c2:	b54d                	j	4f64 <__truncdfsf2+0xb6>
    50c4:	4709                	li	a4,2
    50c6:	04e88763          	beq	a7,a4,5114 <__truncdfsf2+0x266>
    50ca:	478d                	li	a5,3
    50cc:	00f88f63          	beq	a7,a5,50ea <__truncdfsf2+0x23c>
    50d0:	04088c63          	beqz	a7,5128 <__truncdfsf2+0x27a>
    50d4:	0ce88f63          	beq	a7,a4,51b2 <__truncdfsf2+0x304>
    50d8:	0cf88963          	beq	a7,a5,51aa <__truncdfsf2+0x2fc>
    50dc:	4785                	li	a5,1
    50de:	4705                	li	a4,1
    50e0:	04088863          	beqz	a7,5130 <__truncdfsf2+0x282>
    50e4:	853e                	mv	a0,a5
    50e6:	4601                	li	a2,0
    50e8:	bda5                	j	4f60 <__truncdfsf2+0xb2>
    50ea:	4685                	li	a3,1
    50ec:	4705                	li	a4,1
    50ee:	4789                	li	a5,2
    50f0:	ea059fe3          	bnez	a1,4fae <__truncdfsf2+0x100>
    50f4:	07a1                	addi	a5,a5,8
    50f6:	bd65                	j	4fae <__truncdfsf2+0x100>
    50f8:	c8268693          	addi	a3,a3,-894
    50fc:	00d79633          	sll	a2,a5,a3
    5100:	00c03633          	snez	a2,a2
    5104:	00d716b3          	sll	a3,a4,a3
    5108:	00a7d7b3          	srl	a5,a5,a0
    510c:	00d66733          	or	a4,a2,a3
    5110:	8f5d                	or	a4,a4,a5
    5112:	bfb1                	j	506e <__truncdfsf2+0x1c0>
    5114:	4685                	li	a3,1
    5116:	4705                	li	a4,1
    5118:	4789                	li	a5,2
    511a:	e8058ae3          	beqz	a1,4fae <__truncdfsf2+0x100>
    511e:	07a1                	addi	a5,a5,8
    5120:	b579                	j	4fae <__truncdfsf2+0x100>
    5122:	ddb5                	beqz	a1,509e <__truncdfsf2+0x1f0>
    5124:	4585                	li	a1,1
    5126:	bda1                	j	4f7e <__truncdfsf2+0xd0>
    5128:	4705                	li	a4,1
    512a:	4601                	li	a2,0
    512c:	4785                	li	a5,1
    512e:	b505                	j	4f4e <__truncdfsf2+0xa0>
    5130:	4601                	li	a2,0
    5132:	b525                	j	4f5a <__truncdfsf2+0xac>
    5134:	4601                	li	a2,0
    5136:	bfbd                	j	50b4 <__truncdfsf2+0x206>
    5138:	4781                	li	a5,0
    513a:	4505                	li	a0,1
    513c:	e20581e3          	beqz	a1,4f5e <__truncdfsf2+0xb0>
    5140:	0721                	addi	a4,a4,8
    5142:	e0079fe3          	bnez	a5,4f60 <__truncdfsf2+0xb2>
    5146:	bd39                	j	4f64 <__truncdfsf2+0xb6>
    5148:	4601                	li	a2,0
    514a:	bfc5                	j	513a <__truncdfsf2+0x28c>
    514c:	e185                	bnez	a1,516c <__truncdfsf2+0x2be>
    514e:	7f8007b7          	lui	a5,0x7f800
    5152:	4515                	li	a0,5
    5154:	00152073          	csrs	fflags,a0
    5158:	b3c9                	j	4f1a <__truncdfsf2+0x6c>
    515a:	e20582e3          	beqz	a1,4f7e <__truncdfsf2+0xd0>
    515e:	b781                	j	509e <__truncdfsf2+0x1f0>
    5160:	e999                	bnez	a1,5176 <__truncdfsf2+0x2c8>
    5162:	577d                	li	a4,-1
    5164:	0fe00613          	li	a2,254
    5168:	4515                	li	a0,5
    516a:	b509                	j	4f6c <__truncdfsf2+0xbe>
    516c:	0fe00613          	li	a2,254
    5170:	577d                	li	a4,-1
    5172:	4515                	li	a0,5
    5174:	bbc5                	j	4f64 <__truncdfsf2+0xb6>
    5176:	ff8007b7          	lui	a5,0xff800
    517a:	4515                	li	a0,5
    517c:	00152073          	csrs	fflags,a0
    5180:	bb69                	j	4f1a <__truncdfsf2+0x6c>
    5182:	4609                	li	a2,2
    5184:	f8c88be3          	beq	a7,a2,511a <__truncdfsf2+0x26c>
    5188:	460d                	li	a2,3
    518a:	f6c883e3          	beq	a7,a2,50f0 <__truncdfsf2+0x242>
    518e:	e20890e3          	bnez	a7,4fae <__truncdfsf2+0x100>
    5192:	00f7f613          	andi	a2,a5,15
    5196:	4511                	li	a0,4
    5198:	e0a60be3          	beq	a2,a0,4fae <__truncdfsf2+0x100>
    519c:	0791                	addi	a5,a5,4
    519e:	83ed                	srli	a5,a5,0x1b
    51a0:	0017c793          	xori	a5,a5,1
    51a4:	8b85                	andi	a5,a5,1
    51a6:	4505                	li	a0,1
    51a8:	bd01                	j	4fb8 <__truncdfsf2+0x10a>
    51aa:	4705                	li	a4,1
    51ac:	4601                	li	a2,0
    51ae:	4785                	li	a5,1
    51b0:	b711                	j	50b4 <__truncdfsf2+0x206>
    51b2:	4705                	li	a4,1
    51b4:	4601                	li	a2,0
    51b6:	4785                	li	a5,1
    51b8:	b749                	j	513a <__truncdfsf2+0x28c>
    51ba:	e0078de3          	beqz	a5,4fd4 <__truncdfsf2+0x126>
    51be:	f505                	bnez	a0,50e6 <__truncdfsf2+0x238>
    51c0:	00571793          	slli	a5,a4,0x5
    51c4:	4605                	li	a2,1
    51c6:	d207cee3          	bltz	a5,4f02 <__truncdfsf2+0x54>
    51ca:	bd11                	j	4fde <__truncdfsf2+0x130>

000051cc <__clzsi2>:
    51cc:	67c1                	lui	a5,0x10
    51ce:	02f57e63          	bgeu	a0,a5,520a <__clzsi2+0x3e>
    51d2:	0ff00793          	li	a5,255
    51d6:	02000713          	li	a4,32
    51da:	00a7ec63          	bltu	a5,a0,51f2 <__clzsi2+0x26>
    51de:	00007797          	auipc	a5,0x7
    51e2:	ba278793          	addi	a5,a5,-1118 # bd80 <__clz_tab>
    51e6:	97aa                	add	a5,a5,a0
    51e8:	0007c503          	lbu	a0,0(a5)
    51ec:	40a70533          	sub	a0,a4,a0
    51f0:	8082                	ret
    51f2:	8121                	srli	a0,a0,0x8
    51f4:	00007797          	auipc	a5,0x7
    51f8:	b8c78793          	addi	a5,a5,-1140 # bd80 <__clz_tab>
    51fc:	97aa                	add	a5,a5,a0
    51fe:	0007c503          	lbu	a0,0(a5)
    5202:	4761                	li	a4,24
    5204:	40a70533          	sub	a0,a4,a0
    5208:	8082                	ret
    520a:	010007b7          	lui	a5,0x1000
    520e:	00f56e63          	bltu	a0,a5,522a <__clzsi2+0x5e>
    5212:	8161                	srli	a0,a0,0x18
    5214:	00007797          	auipc	a5,0x7
    5218:	b6c78793          	addi	a5,a5,-1172 # bd80 <__clz_tab>
    521c:	97aa                	add	a5,a5,a0
    521e:	0007c503          	lbu	a0,0(a5)
    5222:	4721                	li	a4,8
    5224:	40a70533          	sub	a0,a4,a0
    5228:	8082                	ret
    522a:	8141                	srli	a0,a0,0x10
    522c:	00007797          	auipc	a5,0x7
    5230:	b5478793          	addi	a5,a5,-1196 # bd80 <__clz_tab>
    5234:	97aa                	add	a5,a5,a0
    5236:	0007c503          	lbu	a0,0(a5)
    523a:	4741                	li	a4,16
    523c:	40a70533          	sub	a0,a4,a0
    5240:	8082                	ret

00005242 <__errno>:
    5242:	81418793          	addi	a5,gp,-2028 # 200000b4 <_impure_ptr>
    5246:	4388                	lw	a0,0(a5)
    5248:	8082                	ret

0000524a <iprintf>:
    524a:	7139                	addi	sp,sp,-64
    524c:	da3e                	sw	a5,52(sp)
    524e:	d22e                	sw	a1,36(sp)
    5250:	d432                	sw	a2,40(sp)
    5252:	d636                	sw	a3,44(sp)
    5254:	d83a                	sw	a4,48(sp)
    5256:	dc42                	sw	a6,56(sp)
    5258:	de46                	sw	a7,60(sp)
    525a:	81418793          	addi	a5,gp,-2028 # 200000b4 <_impure_ptr>
    525e:	cc22                	sw	s0,24(sp)
    5260:	4380                	lw	s0,0(a5)
    5262:	ca26                	sw	s1,20(sp)
    5264:	ce06                	sw	ra,28(sp)
    5266:	84aa                	mv	s1,a0
    5268:	c409                	beqz	s0,5272 <iprintf+0x28>
    526a:	4c1c                	lw	a5,24(s0)
    526c:	e399                	bnez	a5,5272 <iprintf+0x28>
    526e:	8522                	mv	a0,s0
    5270:	2b51                	jal	5804 <__sinit>
    5272:	440c                	lw	a1,8(s0)
    5274:	1054                	addi	a3,sp,36
    5276:	8626                	mv	a2,s1
    5278:	8522                	mv	a0,s0
    527a:	c636                	sw	a3,12(sp)
    527c:	549000ef          	jal	ra,5fc4 <_vfiprintf_r>
    5280:	40f2                	lw	ra,28(sp)
    5282:	4462                	lw	s0,24(sp)
    5284:	44d2                	lw	s1,20(sp)
    5286:	6121                	addi	sp,sp,64
    5288:	8082                	ret

0000528a <_puts_r>:
    528a:	1101                	addi	sp,sp,-32
    528c:	ca26                	sw	s1,20(sp)
    528e:	c84a                	sw	s2,16(sp)
    5290:	ce06                	sw	ra,28(sp)
    5292:	cc22                	sw	s0,24(sp)
    5294:	c64e                	sw	s3,12(sp)
    5296:	c452                	sw	s4,8(sp)
    5298:	84aa                	mv	s1,a0
    529a:	892e                	mv	s2,a1
    529c:	c501                	beqz	a0,52a4 <_puts_r+0x1a>
    529e:	4d1c                	lw	a5,24(a0)
    52a0:	e391                	bnez	a5,52a4 <_puts_r+0x1a>
    52a2:	238d                	jal	5804 <__sinit>
    52a4:	4c9c                	lw	a5,24(s1)
    52a6:	4480                	lw	s0,8(s1)
    52a8:	e399                	bnez	a5,52ae <_puts_r+0x24>
    52aa:	8526                	mv	a0,s1
    52ac:	2ba1                	jal	5804 <__sinit>
    52ae:	00007797          	auipc	a5,0x7
    52b2:	bf278793          	addi	a5,a5,-1038 # bea0 <__sf_fake_stdin>
    52b6:	02f41c63          	bne	s0,a5,52ee <_puts_r+0x64>
    52ba:	40c0                	lw	s0,4(s1)
    52bc:	00c45783          	lhu	a5,12(s0)
    52c0:	8ba1                	andi	a5,a5,8
    52c2:	c7b1                	beqz	a5,530e <_puts_r+0x84>
    52c4:	481c                	lw	a5,16(s0)
    52c6:	c7a1                	beqz	a5,530e <_puts_r+0x84>
    52c8:	59fd                	li	s3,-1
    52ca:	4a29                	li	s4,10
    52cc:	441c                	lw	a5,8(s0)
    52ce:	00094583          	lbu	a1,0(s2)
    52d2:	17fd                	addi	a5,a5,-1
    52d4:	e9b1                	bnez	a1,5328 <_puts_r+0x9e>
    52d6:	c41c                	sw	a5,8(s0)
    52d8:	0607de63          	bgez	a5,5354 <_puts_r+0xca>
    52dc:	8622                	mv	a2,s0
    52de:	45a9                	li	a1,10
    52e0:	8526                	mv	a0,s1
    52e2:	28f5                	jal	53de <__swbuf_r>
    52e4:	57fd                	li	a5,-1
    52e6:	02f50863          	beq	a0,a5,5316 <_puts_r+0x8c>
    52ea:	4529                	li	a0,10
    52ec:	a035                	j	5318 <_puts_r+0x8e>
    52ee:	00007797          	auipc	a5,0x7
    52f2:	bd278793          	addi	a5,a5,-1070 # bec0 <__sf_fake_stdout>
    52f6:	00f41463          	bne	s0,a5,52fe <_puts_r+0x74>
    52fa:	4480                	lw	s0,8(s1)
    52fc:	b7c1                	j	52bc <_puts_r+0x32>
    52fe:	00007797          	auipc	a5,0x7
    5302:	b8278793          	addi	a5,a5,-1150 # be80 <__sf_fake_stderr>
    5306:	faf41be3          	bne	s0,a5,52bc <_puts_r+0x32>
    530a:	44c0                	lw	s0,12(s1)
    530c:	bf45                	j	52bc <_puts_r+0x32>
    530e:	85a2                	mv	a1,s0
    5310:	8526                	mv	a0,s1
    5312:	2271                	jal	549e <__swsetup_r>
    5314:	d955                	beqz	a0,52c8 <_puts_r+0x3e>
    5316:	557d                	li	a0,-1
    5318:	40f2                	lw	ra,28(sp)
    531a:	4462                	lw	s0,24(sp)
    531c:	44d2                	lw	s1,20(sp)
    531e:	4942                	lw	s2,16(sp)
    5320:	49b2                	lw	s3,12(sp)
    5322:	4a22                	lw	s4,8(sp)
    5324:	6105                	addi	sp,sp,32
    5326:	8082                	ret
    5328:	c41c                	sw	a5,8(s0)
    532a:	0905                	addi	s2,s2,1
    532c:	0007d763          	bgez	a5,533a <_puts_r+0xb0>
    5330:	4c18                	lw	a4,24(s0)
    5332:	00e7cb63          	blt	a5,a4,5348 <_puts_r+0xbe>
    5336:	01458963          	beq	a1,s4,5348 <_puts_r+0xbe>
    533a:	401c                	lw	a5,0(s0)
    533c:	00178713          	addi	a4,a5,1
    5340:	c018                	sw	a4,0(s0)
    5342:	00b78023          	sb	a1,0(a5)
    5346:	b759                	j	52cc <_puts_r+0x42>
    5348:	8622                	mv	a2,s0
    534a:	8526                	mv	a0,s1
    534c:	2849                	jal	53de <__swbuf_r>
    534e:	f7351fe3          	bne	a0,s3,52cc <_puts_r+0x42>
    5352:	b7d1                	j	5316 <_puts_r+0x8c>
    5354:	401c                	lw	a5,0(s0)
    5356:	00178713          	addi	a4,a5,1
    535a:	c018                	sw	a4,0(s0)
    535c:	4729                	li	a4,10
    535e:	00e78023          	sb	a4,0(a5)
    5362:	b761                	j	52ea <_puts_r+0x60>

00005364 <puts>:
    5364:	81418793          	addi	a5,gp,-2028 # 200000b4 <_impure_ptr>
    5368:	85aa                	mv	a1,a0
    536a:	4388                	lw	a0,0(a5)
    536c:	bf39                	j	528a <_puts_r>

0000536e <_vsniprintf_r>:
    536e:	7119                	addi	sp,sp,-128
    5370:	dca2                	sw	s0,120(sp)
    5372:	de86                	sw	ra,124(sp)
    5374:	daa6                	sw	s1,116(sp)
    5376:	8432                	mv	s0,a2
    5378:	00065b63          	bgez	a2,538e <_vsniprintf_r+0x20>
    537c:	08b00793          	li	a5,139
    5380:	c11c                	sw	a5,0(a0)
    5382:	557d                	li	a0,-1
    5384:	50f6                	lw	ra,124(sp)
    5386:	5466                	lw	s0,120(sp)
    5388:	54d6                	lw	s1,116(sp)
    538a:	6109                	addi	sp,sp,128
    538c:	8082                	ret
    538e:	8636                	mv	a2,a3
    5390:	20800693          	li	a3,520
    5394:	c42e                	sw	a1,8(sp)
    5396:	cc2e                	sw	a1,24(sp)
    5398:	00d11a23          	sh	a3,20(sp)
    539c:	4581                	li	a1,0
    539e:	c019                	beqz	s0,53a4 <_vsniprintf_r+0x36>
    53a0:	fff40593          	addi	a1,s0,-1
    53a4:	57fd                	li	a5,-1
    53a6:	c82e                	sw	a1,16(sp)
    53a8:	ce2e                	sw	a1,28(sp)
    53aa:	86ba                	mv	a3,a4
    53ac:	002c                	addi	a1,sp,8
    53ae:	00f11b23          	sh	a5,22(sp)
    53b2:	84aa                	mv	s1,a0
    53b4:	125000ef          	jal	ra,5cd8 <_svfiprintf_r>
    53b8:	57fd                	li	a5,-1
    53ba:	00f55563          	bge	a0,a5,53c4 <_vsniprintf_r+0x56>
    53be:	08b00793          	li	a5,139
    53c2:	c09c                	sw	a5,0(s1)
    53c4:	d061                	beqz	s0,5384 <_vsniprintf_r+0x16>
    53c6:	47a2                	lw	a5,8(sp)
    53c8:	00078023          	sb	zero,0(a5)
    53cc:	bf65                	j	5384 <_vsniprintf_r+0x16>

000053ce <vsniprintf>:
    53ce:	81418793          	addi	a5,gp,-2028 # 200000b4 <_impure_ptr>
    53d2:	8736                	mv	a4,a3
    53d4:	86b2                	mv	a3,a2
    53d6:	862e                	mv	a2,a1
    53d8:	85aa                	mv	a1,a0
    53da:	4388                	lw	a0,0(a5)
    53dc:	bf49                	j	536e <_vsniprintf_r>

000053de <__swbuf_r>:
    53de:	1101                	addi	sp,sp,-32
    53e0:	cc22                	sw	s0,24(sp)
    53e2:	ca26                	sw	s1,20(sp)
    53e4:	c84a                	sw	s2,16(sp)
    53e6:	ce06                	sw	ra,28(sp)
    53e8:	c64e                	sw	s3,12(sp)
    53ea:	84aa                	mv	s1,a0
    53ec:	892e                	mv	s2,a1
    53ee:	8432                	mv	s0,a2
    53f0:	c501                	beqz	a0,53f8 <__swbuf_r+0x1a>
    53f2:	4d1c                	lw	a5,24(a0)
    53f4:	e391                	bnez	a5,53f8 <__swbuf_r+0x1a>
    53f6:	2139                	jal	5804 <__sinit>
    53f8:	00007797          	auipc	a5,0x7
    53fc:	aa878793          	addi	a5,a5,-1368 # bea0 <__sf_fake_stdin>
    5400:	06f41963          	bne	s0,a5,5472 <__swbuf_r+0x94>
    5404:	40c0                	lw	s0,4(s1)
    5406:	4c1c                	lw	a5,24(s0)
    5408:	c41c                	sw	a5,8(s0)
    540a:	00c45783          	lhu	a5,12(s0)
    540e:	8ba1                	andi	a5,a5,8
    5410:	c3c9                	beqz	a5,5492 <__swbuf_r+0xb4>
    5412:	481c                	lw	a5,16(s0)
    5414:	cfbd                	beqz	a5,5492 <__swbuf_r+0xb4>
    5416:	481c                	lw	a5,16(s0)
    5418:	4008                	lw	a0,0(s0)
    541a:	0ff97993          	andi	s3,s2,255
    541e:	0ff97913          	andi	s2,s2,255
    5422:	8d1d                	sub	a0,a0,a5
    5424:	485c                	lw	a5,20(s0)
    5426:	00f54663          	blt	a0,a5,5432 <__swbuf_r+0x54>
    542a:	85a2                	mv	a1,s0
    542c:	8526                	mv	a0,s1
    542e:	2c65                	jal	56e6 <_fflush_r>
    5430:	e52d                	bnez	a0,549a <__swbuf_r+0xbc>
    5432:	441c                	lw	a5,8(s0)
    5434:	0505                	addi	a0,a0,1
    5436:	17fd                	addi	a5,a5,-1
    5438:	c41c                	sw	a5,8(s0)
    543a:	401c                	lw	a5,0(s0)
    543c:	00178713          	addi	a4,a5,1
    5440:	c018                	sw	a4,0(s0)
    5442:	01378023          	sb	s3,0(a5)
    5446:	485c                	lw	a5,20(s0)
    5448:	00a78963          	beq	a5,a0,545a <__swbuf_r+0x7c>
    544c:	00c45783          	lhu	a5,12(s0)
    5450:	8b85                	andi	a5,a5,1
    5452:	cb81                	beqz	a5,5462 <__swbuf_r+0x84>
    5454:	47a9                	li	a5,10
    5456:	00f91663          	bne	s2,a5,5462 <__swbuf_r+0x84>
    545a:	85a2                	mv	a1,s0
    545c:	8526                	mv	a0,s1
    545e:	2461                	jal	56e6 <_fflush_r>
    5460:	ed0d                	bnez	a0,549a <__swbuf_r+0xbc>
    5462:	40f2                	lw	ra,28(sp)
    5464:	4462                	lw	s0,24(sp)
    5466:	854a                	mv	a0,s2
    5468:	44d2                	lw	s1,20(sp)
    546a:	4942                	lw	s2,16(sp)
    546c:	49b2                	lw	s3,12(sp)
    546e:	6105                	addi	sp,sp,32
    5470:	8082                	ret
    5472:	00007797          	auipc	a5,0x7
    5476:	a4e78793          	addi	a5,a5,-1458 # bec0 <__sf_fake_stdout>
    547a:	00f41463          	bne	s0,a5,5482 <__swbuf_r+0xa4>
    547e:	4480                	lw	s0,8(s1)
    5480:	b759                	j	5406 <__swbuf_r+0x28>
    5482:	00007797          	auipc	a5,0x7
    5486:	9fe78793          	addi	a5,a5,-1538 # be80 <__sf_fake_stderr>
    548a:	f6f41ee3          	bne	s0,a5,5406 <__swbuf_r+0x28>
    548e:	44c0                	lw	s0,12(s1)
    5490:	bf9d                	j	5406 <__swbuf_r+0x28>
    5492:	85a2                	mv	a1,s0
    5494:	8526                	mv	a0,s1
    5496:	2021                	jal	549e <__swsetup_r>
    5498:	dd3d                	beqz	a0,5416 <__swbuf_r+0x38>
    549a:	597d                	li	s2,-1
    549c:	b7d9                	j	5462 <__swbuf_r+0x84>

0000549e <__swsetup_r>:
    549e:	1141                	addi	sp,sp,-16
    54a0:	81418793          	addi	a5,gp,-2028 # 200000b4 <_impure_ptr>
    54a4:	c226                	sw	s1,4(sp)
    54a6:	4384                	lw	s1,0(a5)
    54a8:	c422                	sw	s0,8(sp)
    54aa:	c04a                	sw	s2,0(sp)
    54ac:	c606                	sw	ra,12(sp)
    54ae:	892a                	mv	s2,a0
    54b0:	842e                	mv	s0,a1
    54b2:	c489                	beqz	s1,54bc <__swsetup_r+0x1e>
    54b4:	4c9c                	lw	a5,24(s1)
    54b6:	e399                	bnez	a5,54bc <__swsetup_r+0x1e>
    54b8:	8526                	mv	a0,s1
    54ba:	26a9                	jal	5804 <__sinit>
    54bc:	00007797          	auipc	a5,0x7
    54c0:	9e478793          	addi	a5,a5,-1564 # bea0 <__sf_fake_stdin>
    54c4:	02f41c63          	bne	s0,a5,54fc <__swsetup_r+0x5e>
    54c8:	40c0                	lw	s0,4(s1)
    54ca:	00c41703          	lh	a4,12(s0)
    54ce:	01071793          	slli	a5,a4,0x10
    54d2:	83c1                	srli	a5,a5,0x10
    54d4:	0087f693          	andi	a3,a5,8
    54d8:	eeb5                	bnez	a3,5554 <__swsetup_r+0xb6>
    54da:	0107f693          	andi	a3,a5,16
    54de:	ee9d                	bnez	a3,551c <__swsetup_r+0x7e>
    54e0:	47a5                	li	a5,9
    54e2:	00f92023          	sw	a5,0(s2)
    54e6:	04076713          	ori	a4,a4,64
    54ea:	00e41623          	sh	a4,12(s0)
    54ee:	557d                	li	a0,-1
    54f0:	40b2                	lw	ra,12(sp)
    54f2:	4422                	lw	s0,8(sp)
    54f4:	4492                	lw	s1,4(sp)
    54f6:	4902                	lw	s2,0(sp)
    54f8:	0141                	addi	sp,sp,16
    54fa:	8082                	ret
    54fc:	00007797          	auipc	a5,0x7
    5500:	9c478793          	addi	a5,a5,-1596 # bec0 <__sf_fake_stdout>
    5504:	00f41463          	bne	s0,a5,550c <__swsetup_r+0x6e>
    5508:	4480                	lw	s0,8(s1)
    550a:	b7c1                	j	54ca <__swsetup_r+0x2c>
    550c:	00007797          	auipc	a5,0x7
    5510:	97478793          	addi	a5,a5,-1676 # be80 <__sf_fake_stderr>
    5514:	faf41be3          	bne	s0,a5,54ca <__swsetup_r+0x2c>
    5518:	44c0                	lw	s0,12(s1)
    551a:	bf45                	j	54ca <__swsetup_r+0x2c>
    551c:	8b91                	andi	a5,a5,4
    551e:	c78d                	beqz	a5,5548 <__swsetup_r+0xaa>
    5520:	584c                	lw	a1,52(s0)
    5522:	c989                	beqz	a1,5534 <__swsetup_r+0x96>
    5524:	04440793          	addi	a5,s0,68
    5528:	00f58463          	beq	a1,a5,5530 <__swsetup_r+0x92>
    552c:	854a                	mv	a0,s2
    552e:	2b35                	jal	5a6a <_free_r>
    5530:	02042a23          	sw	zero,52(s0)
    5534:	00c45783          	lhu	a5,12(s0)
    5538:	00042223          	sw	zero,4(s0)
    553c:	fdb7f793          	andi	a5,a5,-37
    5540:	00f41623          	sh	a5,12(s0)
    5544:	481c                	lw	a5,16(s0)
    5546:	c01c                	sw	a5,0(s0)
    5548:	00c45783          	lhu	a5,12(s0)
    554c:	0087e793          	ori	a5,a5,8
    5550:	00f41623          	sh	a5,12(s0)
    5554:	481c                	lw	a5,16(s0)
    5556:	ef81                	bnez	a5,556e <__swsetup_r+0xd0>
    5558:	00c45783          	lhu	a5,12(s0)
    555c:	20000713          	li	a4,512
    5560:	2807f793          	andi	a5,a5,640
    5564:	00e78563          	beq	a5,a4,556e <__swsetup_r+0xd0>
    5568:	85a2                	mv	a1,s0
    556a:	854a                	mv	a0,s2
    556c:	2185                	jal	59cc <__smakebuf_r>
    556e:	00c45783          	lhu	a5,12(s0)
    5572:	0017f713          	andi	a4,a5,1
    5576:	c705                	beqz	a4,559e <__swsetup_r+0x100>
    5578:	485c                	lw	a5,20(s0)
    557a:	00042423          	sw	zero,8(s0)
    557e:	40f007b3          	neg	a5,a5
    5582:	cc1c                	sw	a5,24(s0)
    5584:	481c                	lw	a5,16(s0)
    5586:	4501                	li	a0,0
    5588:	f7a5                	bnez	a5,54f0 <__swsetup_r+0x52>
    558a:	00c41783          	lh	a5,12(s0)
    558e:	0807f713          	andi	a4,a5,128
    5592:	df39                	beqz	a4,54f0 <__swsetup_r+0x52>
    5594:	0407e793          	ori	a5,a5,64
    5598:	00f41623          	sh	a5,12(s0)
    559c:	bf89                	j	54ee <__swsetup_r+0x50>
    559e:	8b89                	andi	a5,a5,2
    55a0:	4701                	li	a4,0
    55a2:	e391                	bnez	a5,55a6 <__swsetup_r+0x108>
    55a4:	4858                	lw	a4,20(s0)
    55a6:	c418                	sw	a4,8(s0)
    55a8:	bff1                	j	5584 <__swsetup_r+0xe6>

000055aa <__sflush_r>:
    55aa:	00c5d783          	lhu	a5,12(a1) # 80000c <_data_lma+0x7f40f0>
    55ae:	1101                	addi	sp,sp,-32
    55b0:	cc22                	sw	s0,24(sp)
    55b2:	ca26                	sw	s1,20(sp)
    55b4:	ce06                	sw	ra,28(sp)
    55b6:	c84a                	sw	s2,16(sp)
    55b8:	c64e                	sw	s3,12(sp)
    55ba:	0087f713          	andi	a4,a5,8
    55be:	84aa                	mv	s1,a0
    55c0:	842e                	mv	s0,a1
    55c2:	ef71                	bnez	a4,569e <__sflush_r+0xf4>
    55c4:	41d8                	lw	a4,4(a1)
    55c6:	00e04d63          	bgtz	a4,55e0 <__sflush_r+0x36>
    55ca:	41b8                	lw	a4,64(a1)
    55cc:	00e04a63          	bgtz	a4,55e0 <__sflush_r+0x36>
    55d0:	4501                	li	a0,0
    55d2:	40f2                	lw	ra,28(sp)
    55d4:	4462                	lw	s0,24(sp)
    55d6:	44d2                	lw	s1,20(sp)
    55d8:	4942                	lw	s2,16(sp)
    55da:	49b2                	lw	s3,12(sp)
    55dc:	6105                	addi	sp,sp,32
    55de:	8082                	ret
    55e0:	5458                	lw	a4,44(s0)
    55e2:	d77d                	beqz	a4,55d0 <__sflush_r+0x26>
    55e4:	0004a903          	lw	s2,0(s1) # 7ff00000 <_eusrstack+0x5fee0000>
    55e8:	01379693          	slli	a3,a5,0x13
    55ec:	0004a023          	sw	zero,0(s1)
    55f0:	0606dd63          	bgez	a3,566a <__sflush_r+0xc0>
    55f4:	4870                	lw	a2,84(s0)
    55f6:	00c45783          	lhu	a5,12(s0)
    55fa:	8b91                	andi	a5,a5,4
    55fc:	c799                	beqz	a5,560a <__sflush_r+0x60>
    55fe:	405c                	lw	a5,4(s0)
    5600:	8e1d                	sub	a2,a2,a5
    5602:	585c                	lw	a5,52(s0)
    5604:	c399                	beqz	a5,560a <__sflush_r+0x60>
    5606:	403c                	lw	a5,64(s0)
    5608:	8e1d                	sub	a2,a2,a5
    560a:	545c                	lw	a5,44(s0)
    560c:	500c                	lw	a1,32(s0)
    560e:	4681                	li	a3,0
    5610:	8526                	mv	a0,s1
    5612:	9782                	jalr	a5
    5614:	57fd                	li	a5,-1
    5616:	00c45703          	lhu	a4,12(s0)
    561a:	00f51d63          	bne	a0,a5,5634 <__sflush_r+0x8a>
    561e:	4094                	lw	a3,0(s1)
    5620:	47f5                	li	a5,29
    5622:	06d7e863          	bltu	a5,a3,5692 <__sflush_r+0xe8>
    5626:	204007b7          	lui	a5,0x20400
    562a:	0785                	addi	a5,a5,1
    562c:	00d7d7b3          	srl	a5,a5,a3
    5630:	8b85                	andi	a5,a5,1
    5632:	c3a5                	beqz	a5,5692 <__sflush_r+0xe8>
    5634:	481c                	lw	a5,16(s0)
    5636:	00042223          	sw	zero,4(s0)
    563a:	c01c                	sw	a5,0(s0)
    563c:	01371793          	slli	a5,a4,0x13
    5640:	0007d863          	bgez	a5,5650 <__sflush_r+0xa6>
    5644:	57fd                	li	a5,-1
    5646:	00f51463          	bne	a0,a5,564e <__sflush_r+0xa4>
    564a:	409c                	lw	a5,0(s1)
    564c:	e391                	bnez	a5,5650 <__sflush_r+0xa6>
    564e:	c868                	sw	a0,84(s0)
    5650:	584c                	lw	a1,52(s0)
    5652:	0124a023          	sw	s2,0(s1)
    5656:	ddad                	beqz	a1,55d0 <__sflush_r+0x26>
    5658:	04440793          	addi	a5,s0,68
    565c:	00f58463          	beq	a1,a5,5664 <__sflush_r+0xba>
    5660:	8526                	mv	a0,s1
    5662:	2121                	jal	5a6a <_free_r>
    5664:	02042a23          	sw	zero,52(s0)
    5668:	b7a5                	j	55d0 <__sflush_r+0x26>
    566a:	500c                	lw	a1,32(s0)
    566c:	4601                	li	a2,0
    566e:	4685                	li	a3,1
    5670:	8526                	mv	a0,s1
    5672:	9702                	jalr	a4
    5674:	57fd                	li	a5,-1
    5676:	862a                	mv	a2,a0
    5678:	f6f51fe3          	bne	a0,a5,55f6 <__sflush_r+0x4c>
    567c:	409c                	lw	a5,0(s1)
    567e:	dfa5                	beqz	a5,55f6 <__sflush_r+0x4c>
    5680:	4775                	li	a4,29
    5682:	00e78563          	beq	a5,a4,568c <__sflush_r+0xe2>
    5686:	4759                	li	a4,22
    5688:	04e79463          	bne	a5,a4,56d0 <__sflush_r+0x126>
    568c:	0124a023          	sw	s2,0(s1)
    5690:	b781                	j	55d0 <__sflush_r+0x26>
    5692:	04076713          	ori	a4,a4,64
    5696:	00e41623          	sh	a4,12(s0)
    569a:	557d                	li	a0,-1
    569c:	bf1d                	j	55d2 <__sflush_r+0x28>
    569e:	0105a983          	lw	s3,16(a1)
    56a2:	f20987e3          	beqz	s3,55d0 <__sflush_r+0x26>
    56a6:	0005a903          	lw	s2,0(a1)
    56aa:	8b8d                	andi	a5,a5,3
    56ac:	0135a023          	sw	s3,0(a1)
    56b0:	41390933          	sub	s2,s2,s3
    56b4:	4701                	li	a4,0
    56b6:	e391                	bnez	a5,56ba <__sflush_r+0x110>
    56b8:	49d8                	lw	a4,20(a1)
    56ba:	c418                	sw	a4,8(s0)
    56bc:	f1205ae3          	blez	s2,55d0 <__sflush_r+0x26>
    56c0:	541c                	lw	a5,40(s0)
    56c2:	500c                	lw	a1,32(s0)
    56c4:	86ca                	mv	a3,s2
    56c6:	864e                	mv	a2,s3
    56c8:	8526                	mv	a0,s1
    56ca:	9782                	jalr	a5
    56cc:	00a04963          	bgtz	a0,56de <__sflush_r+0x134>
    56d0:	00c45783          	lhu	a5,12(s0)
    56d4:	0407e793          	ori	a5,a5,64
    56d8:	00f41623          	sh	a5,12(s0)
    56dc:	bf7d                	j	569a <__sflush_r+0xf0>
    56de:	99aa                	add	s3,s3,a0
    56e0:	40a90933          	sub	s2,s2,a0
    56e4:	bfe1                	j	56bc <__sflush_r+0x112>

000056e6 <_fflush_r>:
    56e6:	499c                	lw	a5,16(a1)
    56e8:	cfb9                	beqz	a5,5746 <_fflush_r+0x60>
    56ea:	1101                	addi	sp,sp,-32
    56ec:	cc22                	sw	s0,24(sp)
    56ee:	ce06                	sw	ra,28(sp)
    56f0:	842a                	mv	s0,a0
    56f2:	c511                	beqz	a0,56fe <_fflush_r+0x18>
    56f4:	4d1c                	lw	a5,24(a0)
    56f6:	e781                	bnez	a5,56fe <_fflush_r+0x18>
    56f8:	c62e                	sw	a1,12(sp)
    56fa:	2229                	jal	5804 <__sinit>
    56fc:	45b2                	lw	a1,12(sp)
    56fe:	00006797          	auipc	a5,0x6
    5702:	7a278793          	addi	a5,a5,1954 # bea0 <__sf_fake_stdin>
    5706:	00f59b63          	bne	a1,a5,571c <_fflush_r+0x36>
    570a:	404c                	lw	a1,4(s0)
    570c:	00c59783          	lh	a5,12(a1)
    5710:	c795                	beqz	a5,573c <_fflush_r+0x56>
    5712:	8522                	mv	a0,s0
    5714:	4462                	lw	s0,24(sp)
    5716:	40f2                	lw	ra,28(sp)
    5718:	6105                	addi	sp,sp,32
    571a:	bd41                	j	55aa <__sflush_r>
    571c:	00006797          	auipc	a5,0x6
    5720:	7a478793          	addi	a5,a5,1956 # bec0 <__sf_fake_stdout>
    5724:	00f59463          	bne	a1,a5,572c <_fflush_r+0x46>
    5728:	440c                	lw	a1,8(s0)
    572a:	b7cd                	j	570c <_fflush_r+0x26>
    572c:	00006797          	auipc	a5,0x6
    5730:	75478793          	addi	a5,a5,1876 # be80 <__sf_fake_stderr>
    5734:	fcf59ce3          	bne	a1,a5,570c <_fflush_r+0x26>
    5738:	444c                	lw	a1,12(s0)
    573a:	bfc9                	j	570c <_fflush_r+0x26>
    573c:	40f2                	lw	ra,28(sp)
    573e:	4462                	lw	s0,24(sp)
    5740:	4501                	li	a0,0
    5742:	6105                	addi	sp,sp,32
    5744:	8082                	ret
    5746:	4501                	li	a0,0
    5748:	8082                	ret

0000574a <std>:
    574a:	1141                	addi	sp,sp,-16
    574c:	c422                	sw	s0,8(sp)
    574e:	c606                	sw	ra,12(sp)
    5750:	842a                	mv	s0,a0
    5752:	00b51623          	sh	a1,12(a0)
    5756:	00c51723          	sh	a2,14(a0)
    575a:	00052023          	sw	zero,0(a0)
    575e:	00052223          	sw	zero,4(a0)
    5762:	00052423          	sw	zero,8(a0)
    5766:	06052223          	sw	zero,100(a0)
    576a:	00052823          	sw	zero,16(a0)
    576e:	00052a23          	sw	zero,20(a0)
    5772:	00052c23          	sw	zero,24(a0)
    5776:	4621                	li	a2,8
    5778:	4581                	li	a1,0
    577a:	05c50513          	addi	a0,a0,92
    577e:	a83fa0ef          	jal	ra,200 <memset>
    5782:	00001797          	auipc	a5,0x1
    5786:	ec478793          	addi	a5,a5,-316 # 6646 <__sread>
    578a:	d05c                	sw	a5,36(s0)
    578c:	00001797          	auipc	a5,0x1
    5790:	eea78793          	addi	a5,a5,-278 # 6676 <__swrite>
    5794:	d41c                	sw	a5,40(s0)
    5796:	00001797          	auipc	a5,0x1
    579a:	f2e78793          	addi	a5,a5,-210 # 66c4 <__sseek>
    579e:	d45c                	sw	a5,44(s0)
    57a0:	00001797          	auipc	a5,0x1
    57a4:	f5a78793          	addi	a5,a5,-166 # 66fa <__sclose>
    57a8:	d000                	sw	s0,32(s0)
    57aa:	d81c                	sw	a5,48(s0)
    57ac:	40b2                	lw	ra,12(sp)
    57ae:	4422                	lw	s0,8(sp)
    57b0:	0141                	addi	sp,sp,16
    57b2:	8082                	ret

000057b4 <_cleanup_r>:
    57b4:	00000597          	auipc	a1,0x0
    57b8:	f3258593          	addi	a1,a1,-206 # 56e6 <_fflush_r>
    57bc:	a2a9                	j	5906 <_fwalk_reent>

000057be <__sfmoreglue>:
    57be:	1141                	addi	sp,sp,-16
    57c0:	c226                	sw	s1,4(sp)
    57c2:	06800613          	li	a2,104
    57c6:	fff58493          	addi	s1,a1,-1
    57ca:	02c484b3          	mul	s1,s1,a2
    57ce:	c04a                	sw	s2,0(sp)
    57d0:	892e                	mv	s2,a1
    57d2:	c422                	sw	s0,8(sp)
    57d4:	c606                	sw	ra,12(sp)
    57d6:	07448593          	addi	a1,s1,116
    57da:	2e25                	jal	5b12 <_malloc_r>
    57dc:	842a                	mv	s0,a0
    57de:	cd01                	beqz	a0,57f6 <__sfmoreglue+0x38>
    57e0:	00052023          	sw	zero,0(a0)
    57e4:	01252223          	sw	s2,4(a0)
    57e8:	0531                	addi	a0,a0,12
    57ea:	c408                	sw	a0,8(s0)
    57ec:	06848613          	addi	a2,s1,104
    57f0:	4581                	li	a1,0
    57f2:	a0ffa0ef          	jal	ra,200 <memset>
    57f6:	8522                	mv	a0,s0
    57f8:	40b2                	lw	ra,12(sp)
    57fa:	4422                	lw	s0,8(sp)
    57fc:	4492                	lw	s1,4(sp)
    57fe:	4902                	lw	s2,0(sp)
    5800:	0141                	addi	sp,sp,16
    5802:	8082                	ret

00005804 <__sinit>:
    5804:	4d1c                	lw	a5,24(a0)
    5806:	e3ad                	bnez	a5,5868 <__sinit+0x64>
    5808:	1141                	addi	sp,sp,-16
    580a:	c606                	sw	ra,12(sp)
    580c:	c422                	sw	s0,8(sp)
    580e:	00000797          	auipc	a5,0x0
    5812:	fa678793          	addi	a5,a5,-90 # 57b4 <_cleanup_r>
    5816:	d51c                	sw	a5,40(a0)
    5818:	81818793          	addi	a5,gp,-2024 # 200000b8 <_global_impure_ptr>
    581c:	439c                	lw	a5,0(a5)
    581e:	04052423          	sw	zero,72(a0)
    5822:	04052623          	sw	zero,76(a0)
    5826:	04052823          	sw	zero,80(a0)
    582a:	00f51463          	bne	a0,a5,5832 <__sinit+0x2e>
    582e:	4785                	li	a5,1
    5830:	cd1c                	sw	a5,24(a0)
    5832:	842a                	mv	s0,a0
    5834:	281d                	jal	586a <__sfp>
    5836:	c048                	sw	a0,4(s0)
    5838:	8522                	mv	a0,s0
    583a:	2805                	jal	586a <__sfp>
    583c:	c408                	sw	a0,8(s0)
    583e:	8522                	mv	a0,s0
    5840:	202d                	jal	586a <__sfp>
    5842:	c448                	sw	a0,12(s0)
    5844:	4048                	lw	a0,4(s0)
    5846:	4601                	li	a2,0
    5848:	4591                	li	a1,4
    584a:	3701                	jal	574a <std>
    584c:	4408                	lw	a0,8(s0)
    584e:	4605                	li	a2,1
    5850:	45a5                	li	a1,9
    5852:	3de5                	jal	574a <std>
    5854:	4448                	lw	a0,12(s0)
    5856:	4609                	li	a2,2
    5858:	45c9                	li	a1,18
    585a:	3dc5                	jal	574a <std>
    585c:	4785                	li	a5,1
    585e:	cc1c                	sw	a5,24(s0)
    5860:	40b2                	lw	ra,12(sp)
    5862:	4422                	lw	s0,8(sp)
    5864:	0141                	addi	sp,sp,16
    5866:	8082                	ret
    5868:	8082                	ret

0000586a <__sfp>:
    586a:	1141                	addi	sp,sp,-16
    586c:	81818793          	addi	a5,gp,-2024 # 200000b8 <_global_impure_ptr>
    5870:	c226                	sw	s1,4(sp)
    5872:	4384                	lw	s1,0(a5)
    5874:	c04a                	sw	s2,0(sp)
    5876:	c606                	sw	ra,12(sp)
    5878:	4c9c                	lw	a5,24(s1)
    587a:	c422                	sw	s0,8(sp)
    587c:	892a                	mv	s2,a0
    587e:	e399                	bnez	a5,5884 <__sfp+0x1a>
    5880:	8526                	mv	a0,s1
    5882:	3749                	jal	5804 <__sinit>
    5884:	04848493          	addi	s1,s1,72
    5888:	4480                	lw	s0,8(s1)
    588a:	40dc                	lw	a5,4(s1)
    588c:	17fd                	addi	a5,a5,-1
    588e:	0007d663          	bgez	a5,589a <__sfp+0x30>
    5892:	409c                	lw	a5,0(s1)
    5894:	cfb9                	beqz	a5,58f2 <__sfp+0x88>
    5896:	4084                	lw	s1,0(s1)
    5898:	bfc5                	j	5888 <__sfp+0x1e>
    589a:	00c41703          	lh	a4,12(s0)
    589e:	e739                	bnez	a4,58ec <__sfp+0x82>
    58a0:	77c1                	lui	a5,0xffff0
    58a2:	0785                	addi	a5,a5,1
    58a4:	06042223          	sw	zero,100(s0)
    58a8:	00042023          	sw	zero,0(s0)
    58ac:	00042223          	sw	zero,4(s0)
    58b0:	00042423          	sw	zero,8(s0)
    58b4:	c45c                	sw	a5,12(s0)
    58b6:	00042823          	sw	zero,16(s0)
    58ba:	00042a23          	sw	zero,20(s0)
    58be:	00042c23          	sw	zero,24(s0)
    58c2:	4621                	li	a2,8
    58c4:	4581                	li	a1,0
    58c6:	05c40513          	addi	a0,s0,92
    58ca:	937fa0ef          	jal	ra,200 <memset>
    58ce:	02042a23          	sw	zero,52(s0)
    58d2:	02042c23          	sw	zero,56(s0)
    58d6:	04042423          	sw	zero,72(s0)
    58da:	04042623          	sw	zero,76(s0)
    58de:	8522                	mv	a0,s0
    58e0:	40b2                	lw	ra,12(sp)
    58e2:	4422                	lw	s0,8(sp)
    58e4:	4492                	lw	s1,4(sp)
    58e6:	4902                	lw	s2,0(sp)
    58e8:	0141                	addi	sp,sp,16
    58ea:	8082                	ret
    58ec:	06840413          	addi	s0,s0,104
    58f0:	bf71                	j	588c <__sfp+0x22>
    58f2:	4591                	li	a1,4
    58f4:	854a                	mv	a0,s2
    58f6:	35e1                	jal	57be <__sfmoreglue>
    58f8:	c088                	sw	a0,0(s1)
    58fa:	fd51                	bnez	a0,5896 <__sfp+0x2c>
    58fc:	47b1                	li	a5,12
    58fe:	00f92023          	sw	a5,0(s2)
    5902:	4401                	li	s0,0
    5904:	bfe9                	j	58de <__sfp+0x74>

00005906 <_fwalk_reent>:
    5906:	7179                	addi	sp,sp,-48
    5908:	d422                	sw	s0,40(sp)
    590a:	d04a                	sw	s2,32(sp)
    590c:	cc52                	sw	s4,24(sp)
    590e:	ca56                	sw	s5,20(sp)
    5910:	c85a                	sw	s6,16(sp)
    5912:	c65e                	sw	s7,12(sp)
    5914:	d606                	sw	ra,44(sp)
    5916:	d226                	sw	s1,36(sp)
    5918:	ce4e                	sw	s3,28(sp)
    591a:	8a2a                	mv	s4,a0
    591c:	8aae                	mv	s5,a1
    591e:	04850413          	addi	s0,a0,72
    5922:	4901                	li	s2,0
    5924:	4b05                	li	s6,1
    5926:	5bfd                	li	s7,-1
    5928:	ec09                	bnez	s0,5942 <_fwalk_reent+0x3c>
    592a:	50b2                	lw	ra,44(sp)
    592c:	5422                	lw	s0,40(sp)
    592e:	854a                	mv	a0,s2
    5930:	5492                	lw	s1,36(sp)
    5932:	5902                	lw	s2,32(sp)
    5934:	49f2                	lw	s3,28(sp)
    5936:	4a62                	lw	s4,24(sp)
    5938:	4ad2                	lw	s5,20(sp)
    593a:	4b42                	lw	s6,16(sp)
    593c:	4bb2                	lw	s7,12(sp)
    593e:	6145                	addi	sp,sp,48
    5940:	8082                	ret
    5942:	4404                	lw	s1,8(s0)
    5944:	00442983          	lw	s3,4(s0)
    5948:	19fd                	addi	s3,s3,-1
    594a:	0009d463          	bgez	s3,5952 <_fwalk_reent+0x4c>
    594e:	4000                	lw	s0,0(s0)
    5950:	bfe1                	j	5928 <_fwalk_reent+0x22>
    5952:	00c4d783          	lhu	a5,12(s1)
    5956:	00fb7b63          	bgeu	s6,a5,596c <_fwalk_reent+0x66>
    595a:	00e49783          	lh	a5,14(s1)
    595e:	01778763          	beq	a5,s7,596c <_fwalk_reent+0x66>
    5962:	85a6                	mv	a1,s1
    5964:	8552                	mv	a0,s4
    5966:	9a82                	jalr	s5
    5968:	00a96933          	or	s2,s2,a0
    596c:	06848493          	addi	s1,s1,104
    5970:	bfe1                	j	5948 <_fwalk_reent+0x42>

00005972 <__swhatbuf_r>:
    5972:	7119                	addi	sp,sp,-128
    5974:	daa6                	sw	s1,116(sp)
    5976:	84ae                	mv	s1,a1
    5978:	00e59583          	lh	a1,14(a1)
    597c:	dca2                	sw	s0,120(sp)
    597e:	de86                	sw	ra,124(sp)
    5980:	8432                	mv	s0,a2
    5982:	0005dc63          	bgez	a1,599a <__swhatbuf_r+0x28>
    5986:	00c4d783          	lhu	a5,12(s1)
    598a:	0006a023          	sw	zero,0(a3)
    598e:	0807f793          	andi	a5,a5,128
    5992:	e785                	bnez	a5,59ba <__swhatbuf_r+0x48>
    5994:	40000793          	li	a5,1024
    5998:	a01d                	j	59be <__swhatbuf_r+0x4c>
    599a:	0830                	addi	a2,sp,24
    599c:	c636                	sw	a3,12(sp)
    599e:	5c9000ef          	jal	ra,6766 <_fstat_r>
    59a2:	46b2                	lw	a3,12(sp)
    59a4:	fe0541e3          	bltz	a0,5986 <__swhatbuf_r+0x14>
    59a8:	4772                	lw	a4,28(sp)
    59aa:	67bd                	lui	a5,0xf
    59ac:	8ff9                	and	a5,a5,a4
    59ae:	7779                	lui	a4,0xffffe
    59b0:	97ba                	add	a5,a5,a4
    59b2:	0017b793          	seqz	a5,a5
    59b6:	c29c                	sw	a5,0(a3)
    59b8:	bff1                	j	5994 <__swhatbuf_r+0x22>
    59ba:	04000793          	li	a5,64
    59be:	c01c                	sw	a5,0(s0)
    59c0:	50f6                	lw	ra,124(sp)
    59c2:	5466                	lw	s0,120(sp)
    59c4:	54d6                	lw	s1,116(sp)
    59c6:	4501                	li	a0,0
    59c8:	6109                	addi	sp,sp,128
    59ca:	8082                	ret

000059cc <__smakebuf_r>:
    59cc:	00c5d783          	lhu	a5,12(a1)
    59d0:	1101                	addi	sp,sp,-32
    59d2:	cc22                	sw	s0,24(sp)
    59d4:	ce06                	sw	ra,28(sp)
    59d6:	ca26                	sw	s1,20(sp)
    59d8:	c84a                	sw	s2,16(sp)
    59da:	8b89                	andi	a5,a5,2
    59dc:	842e                	mv	s0,a1
    59de:	cf89                	beqz	a5,59f8 <__smakebuf_r+0x2c>
    59e0:	04740793          	addi	a5,s0,71
    59e4:	c01c                	sw	a5,0(s0)
    59e6:	c81c                	sw	a5,16(s0)
    59e8:	4785                	li	a5,1
    59ea:	c85c                	sw	a5,20(s0)
    59ec:	40f2                	lw	ra,28(sp)
    59ee:	4462                	lw	s0,24(sp)
    59f0:	44d2                	lw	s1,20(sp)
    59f2:	4942                	lw	s2,16(sp)
    59f4:	6105                	addi	sp,sp,32
    59f6:	8082                	ret
    59f8:	0074                	addi	a3,sp,12
    59fa:	0030                	addi	a2,sp,8
    59fc:	84aa                	mv	s1,a0
    59fe:	3f95                	jal	5972 <__swhatbuf_r>
    5a00:	45a2                	lw	a1,8(sp)
    5a02:	892a                	mv	s2,a0
    5a04:	8526                	mv	a0,s1
    5a06:	2231                	jal	5b12 <_malloc_r>
    5a08:	ed01                	bnez	a0,5a20 <__smakebuf_r+0x54>
    5a0a:	00c41783          	lh	a5,12(s0)
    5a0e:	2007f713          	andi	a4,a5,512
    5a12:	ff69                	bnez	a4,59ec <__smakebuf_r+0x20>
    5a14:	9bf1                	andi	a5,a5,-4
    5a16:	0027e793          	ori	a5,a5,2
    5a1a:	00f41623          	sh	a5,12(s0)
    5a1e:	b7c9                	j	59e0 <__smakebuf_r+0x14>
    5a20:	00000797          	auipc	a5,0x0
    5a24:	d9478793          	addi	a5,a5,-620 # 57b4 <_cleanup_r>
    5a28:	d49c                	sw	a5,40(s1)
    5a2a:	00c45783          	lhu	a5,12(s0)
    5a2e:	c008                	sw	a0,0(s0)
    5a30:	c808                	sw	a0,16(s0)
    5a32:	0807e793          	ori	a5,a5,128
    5a36:	00f41623          	sh	a5,12(s0)
    5a3a:	47a2                	lw	a5,8(sp)
    5a3c:	c85c                	sw	a5,20(s0)
    5a3e:	47b2                	lw	a5,12(sp)
    5a40:	cf91                	beqz	a5,5a5c <__smakebuf_r+0x90>
    5a42:	00e41583          	lh	a1,14(s0)
    5a46:	8526                	mv	a0,s1
    5a48:	551000ef          	jal	ra,6798 <_isatty_r>
    5a4c:	c901                	beqz	a0,5a5c <__smakebuf_r+0x90>
    5a4e:	00c45783          	lhu	a5,12(s0)
    5a52:	9bf1                	andi	a5,a5,-4
    5a54:	0017e793          	ori	a5,a5,1
    5a58:	00f41623          	sh	a5,12(s0)
    5a5c:	00c45783          	lhu	a5,12(s0)
    5a60:	00f96933          	or	s2,s2,a5
    5a64:	01241623          	sh	s2,12(s0)
    5a68:	b751                	j	59ec <__smakebuf_r+0x20>

00005a6a <_free_r>:
    5a6a:	c1dd                	beqz	a1,5b10 <_free_r+0xa6>
    5a6c:	ffc5a783          	lw	a5,-4(a1)
    5a70:	1141                	addi	sp,sp,-16
    5a72:	c422                	sw	s0,8(sp)
    5a74:	c606                	sw	ra,12(sp)
    5a76:	c226                	sw	s1,4(sp)
    5a78:	ffc58413          	addi	s0,a1,-4
    5a7c:	0007d363          	bgez	a5,5a82 <_free_r+0x18>
    5a80:	943e                	add	s0,s0,a5
    5a82:	84aa                	mv	s1,a0
    5a84:	693000ef          	jal	ra,6916 <__malloc_lock>
    5a88:	84018793          	addi	a5,gp,-1984 # 200000e0 <__malloc_free_list>
    5a8c:	439c                	lw	a5,0(a5)
    5a8e:	ef81                	bnez	a5,5aa6 <_free_r+0x3c>
    5a90:	00042223          	sw	zero,4(s0)
    5a94:	8481a023          	sw	s0,-1984(gp) # 200000e0 <__malloc_free_list>
    5a98:	4422                	lw	s0,8(sp)
    5a9a:	40b2                	lw	ra,12(sp)
    5a9c:	8526                	mv	a0,s1
    5a9e:	4492                	lw	s1,4(sp)
    5aa0:	0141                	addi	sp,sp,16
    5aa2:	6770006f          	j	6918 <__malloc_unlock>
    5aa6:	00f47e63          	bgeu	s0,a5,5ac2 <_free_r+0x58>
    5aaa:	4014                	lw	a3,0(s0)
    5aac:	00d40733          	add	a4,s0,a3
    5ab0:	00e79663          	bne	a5,a4,5abc <_free_r+0x52>
    5ab4:	4398                	lw	a4,0(a5)
    5ab6:	43dc                	lw	a5,4(a5)
    5ab8:	9736                	add	a4,a4,a3
    5aba:	c018                	sw	a4,0(s0)
    5abc:	c05c                	sw	a5,4(s0)
    5abe:	bfd9                	j	5a94 <_free_r+0x2a>
    5ac0:	87ba                	mv	a5,a4
    5ac2:	43d8                	lw	a4,4(a5)
    5ac4:	c319                	beqz	a4,5aca <_free_r+0x60>
    5ac6:	fee47de3          	bgeu	s0,a4,5ac0 <_free_r+0x56>
    5aca:	4394                	lw	a3,0(a5)
    5acc:	00d78633          	add	a2,a5,a3
    5ad0:	00861f63          	bne	a2,s0,5aee <_free_r+0x84>
    5ad4:	4010                	lw	a2,0(s0)
    5ad6:	96b2                	add	a3,a3,a2
    5ad8:	c394                	sw	a3,0(a5)
    5ada:	00d78633          	add	a2,a5,a3
    5ade:	fac71de3          	bne	a4,a2,5a98 <_free_r+0x2e>
    5ae2:	4310                	lw	a2,0(a4)
    5ae4:	4358                	lw	a4,4(a4)
    5ae6:	96b2                	add	a3,a3,a2
    5ae8:	c394                	sw	a3,0(a5)
    5aea:	c3d8                	sw	a4,4(a5)
    5aec:	b775                	j	5a98 <_free_r+0x2e>
    5aee:	00c47563          	bgeu	s0,a2,5af8 <_free_r+0x8e>
    5af2:	47b1                	li	a5,12
    5af4:	c09c                	sw	a5,0(s1)
    5af6:	b74d                	j	5a98 <_free_r+0x2e>
    5af8:	4010                	lw	a2,0(s0)
    5afa:	00c406b3          	add	a3,s0,a2
    5afe:	00d71663          	bne	a4,a3,5b0a <_free_r+0xa0>
    5b02:	4314                	lw	a3,0(a4)
    5b04:	4358                	lw	a4,4(a4)
    5b06:	96b2                	add	a3,a3,a2
    5b08:	c014                	sw	a3,0(s0)
    5b0a:	c058                	sw	a4,4(s0)
    5b0c:	c3c0                	sw	s0,4(a5)
    5b0e:	b769                	j	5a98 <_free_r+0x2e>
    5b10:	8082                	ret

00005b12 <_malloc_r>:
    5b12:	1101                	addi	sp,sp,-32
    5b14:	ca26                	sw	s1,20(sp)
    5b16:	00358493          	addi	s1,a1,3
    5b1a:	98f1                	andi	s1,s1,-4
    5b1c:	ce06                	sw	ra,28(sp)
    5b1e:	cc22                	sw	s0,24(sp)
    5b20:	c84a                	sw	s2,16(sp)
    5b22:	c64e                	sw	s3,12(sp)
    5b24:	04a1                	addi	s1,s1,8
    5b26:	47b1                	li	a5,12
    5b28:	04f4f563          	bgeu	s1,a5,5b72 <_malloc_r+0x60>
    5b2c:	44b1                	li	s1,12
    5b2e:	04b4e463          	bltu	s1,a1,5b76 <_malloc_r+0x64>
    5b32:	892a                	mv	s2,a0
    5b34:	5e3000ef          	jal	ra,6916 <__malloc_lock>
    5b38:	84018793          	addi	a5,gp,-1984 # 200000e0 <__malloc_free_list>
    5b3c:	4398                	lw	a4,0(a5)
    5b3e:	843a                	mv	s0,a4
    5b40:	e429                	bnez	s0,5b8a <_malloc_r+0x78>
    5b42:	84418793          	addi	a5,gp,-1980 # 200000e4 <__malloc_sbrk_start>
    5b46:	439c                	lw	a5,0(a5)
    5b48:	e799                	bnez	a5,5b56 <_malloc_r+0x44>
    5b4a:	4581                	li	a1,0
    5b4c:	854a                	mv	a0,s2
    5b4e:	2c7000ef          	jal	ra,6614 <_sbrk_r>
    5b52:	84a1a223          	sw	a0,-1980(gp) # 200000e4 <__malloc_sbrk_start>
    5b56:	85a6                	mv	a1,s1
    5b58:	854a                	mv	a0,s2
    5b5a:	2bb000ef          	jal	ra,6614 <_sbrk_r>
    5b5e:	59fd                	li	s3,-1
    5b60:	07351963          	bne	a0,s3,5bd2 <_malloc_r+0xc0>
    5b64:	47b1                	li	a5,12
    5b66:	00f92023          	sw	a5,0(s2)
    5b6a:	854a                	mv	a0,s2
    5b6c:	5ad000ef          	jal	ra,6918 <__malloc_unlock>
    5b70:	a029                	j	5b7a <_malloc_r+0x68>
    5b72:	fa04dee3          	bgez	s1,5b2e <_malloc_r+0x1c>
    5b76:	47b1                	li	a5,12
    5b78:	c11c                	sw	a5,0(a0)
    5b7a:	4501                	li	a0,0
    5b7c:	40f2                	lw	ra,28(sp)
    5b7e:	4462                	lw	s0,24(sp)
    5b80:	44d2                	lw	s1,20(sp)
    5b82:	4942                	lw	s2,16(sp)
    5b84:	49b2                	lw	s3,12(sp)
    5b86:	6105                	addi	sp,sp,32
    5b88:	8082                	ret
    5b8a:	401c                	lw	a5,0(s0)
    5b8c:	8f85                	sub	a5,a5,s1
    5b8e:	0207cf63          	bltz	a5,5bcc <_malloc_r+0xba>
    5b92:	46ad                	li	a3,11
    5b94:	00f6f663          	bgeu	a3,a5,5ba0 <_malloc_r+0x8e>
    5b98:	c01c                	sw	a5,0(s0)
    5b9a:	943e                	add	s0,s0,a5
    5b9c:	c004                	sw	s1,0(s0)
    5b9e:	a031                	j	5baa <_malloc_r+0x98>
    5ba0:	405c                	lw	a5,4(s0)
    5ba2:	02871363          	bne	a4,s0,5bc8 <_malloc_r+0xb6>
    5ba6:	84f1a023          	sw	a5,-1984(gp) # 200000e0 <__malloc_free_list>
    5baa:	854a                	mv	a0,s2
    5bac:	56d000ef          	jal	ra,6918 <__malloc_unlock>
    5bb0:	00b40513          	addi	a0,s0,11
    5bb4:	00440793          	addi	a5,s0,4
    5bb8:	9961                	andi	a0,a0,-8
    5bba:	40f50733          	sub	a4,a0,a5
    5bbe:	df5d                	beqz	a4,5b7c <_malloc_r+0x6a>
    5bc0:	943a                	add	s0,s0,a4
    5bc2:	8f89                	sub	a5,a5,a0
    5bc4:	c01c                	sw	a5,0(s0)
    5bc6:	bf5d                	j	5b7c <_malloc_r+0x6a>
    5bc8:	c35c                	sw	a5,4(a4)
    5bca:	b7c5                	j	5baa <_malloc_r+0x98>
    5bcc:	8722                	mv	a4,s0
    5bce:	4040                	lw	s0,4(s0)
    5bd0:	bf85                	j	5b40 <_malloc_r+0x2e>
    5bd2:	00350413          	addi	s0,a0,3
    5bd6:	9871                	andi	s0,s0,-4
    5bd8:	fc8502e3          	beq	a0,s0,5b9c <_malloc_r+0x8a>
    5bdc:	40a405b3          	sub	a1,s0,a0
    5be0:	854a                	mv	a0,s2
    5be2:	233000ef          	jal	ra,6614 <_sbrk_r>
    5be6:	fb351be3          	bne	a0,s3,5b9c <_malloc_r+0x8a>
    5bea:	bfad                	j	5b64 <_malloc_r+0x52>

00005bec <__ssputs_r>:
    5bec:	1101                	addi	sp,sp,-32
    5bee:	c84a                	sw	s2,16(sp)
    5bf0:	0085a903          	lw	s2,8(a1)
    5bf4:	cc22                	sw	s0,24(sp)
    5bf6:	c452                	sw	s4,8(sp)
    5bf8:	c05a                	sw	s6,0(sp)
    5bfa:	ce06                	sw	ra,28(sp)
    5bfc:	ca26                	sw	s1,20(sp)
    5bfe:	c64e                	sw	s3,12(sp)
    5c00:	c256                	sw	s5,4(sp)
    5c02:	842e                	mv	s0,a1
    5c04:	8b32                	mv	s6,a2
    5c06:	8a36                	mv	s4,a3
    5c08:	0926ed63          	bltu	a3,s2,5ca2 <__ssputs_r+0xb6>
    5c0c:	00c5d783          	lhu	a5,12(a1)
    5c10:	4807f713          	andi	a4,a5,1152
    5c14:	c749                	beqz	a4,5c9e <__ssputs_r+0xb2>
    5c16:	4004                	lw	s1,0(s0)
    5c18:	498c                	lw	a1,16(a1)
    5c1a:	4858                	lw	a4,20(s0)
    5c1c:	8aaa                	mv	s5,a0
    5c1e:	40b489b3          	sub	s3,s1,a1
    5c22:	448d                	li	s1,3
    5c24:	02e484b3          	mul	s1,s1,a4
    5c28:	4709                	li	a4,2
    5c2a:	02e4c4b3          	div	s1,s1,a4
    5c2e:	00168713          	addi	a4,a3,1
    5c32:	974e                	add	a4,a4,s3
    5c34:	00e4f363          	bgeu	s1,a4,5c3a <__ssputs_r+0x4e>
    5c38:	84ba                	mv	s1,a4
    5c3a:	4007f793          	andi	a5,a5,1024
    5c3e:	c3d1                	beqz	a5,5cc2 <__ssputs_r+0xd6>
    5c40:	85a6                	mv	a1,s1
    5c42:	8556                	mv	a0,s5
    5c44:	35f9                	jal	5b12 <_malloc_r>
    5c46:	892a                	mv	s2,a0
    5c48:	e50d                	bnez	a0,5c72 <__ssputs_r+0x86>
    5c4a:	47b1                	li	a5,12
    5c4c:	00faa023          	sw	a5,0(s5)
    5c50:	00c45783          	lhu	a5,12(s0)
    5c54:	557d                	li	a0,-1
    5c56:	0407e793          	ori	a5,a5,64
    5c5a:	00f41623          	sh	a5,12(s0)
    5c5e:	40f2                	lw	ra,28(sp)
    5c60:	4462                	lw	s0,24(sp)
    5c62:	44d2                	lw	s1,20(sp)
    5c64:	4942                	lw	s2,16(sp)
    5c66:	49b2                	lw	s3,12(sp)
    5c68:	4a22                	lw	s4,8(sp)
    5c6a:	4a92                	lw	s5,4(sp)
    5c6c:	4b02                	lw	s6,0(sp)
    5c6e:	6105                	addi	sp,sp,32
    5c70:	8082                	ret
    5c72:	480c                	lw	a1,16(s0)
    5c74:	864e                	mv	a2,s3
    5c76:	3a1000ef          	jal	ra,6816 <memcpy>
    5c7a:	00c45783          	lhu	a5,12(s0)
    5c7e:	b7f7f793          	andi	a5,a5,-1153
    5c82:	0807e793          	ori	a5,a5,128
    5c86:	00f41623          	sh	a5,12(s0)
    5c8a:	01242823          	sw	s2,16(s0)
    5c8e:	c844                	sw	s1,20(s0)
    5c90:	994e                	add	s2,s2,s3
    5c92:	413484b3          	sub	s1,s1,s3
    5c96:	01242023          	sw	s2,0(s0)
    5c9a:	c404                	sw	s1,8(s0)
    5c9c:	8952                	mv	s2,s4
    5c9e:	012a7363          	bgeu	s4,s2,5ca4 <__ssputs_r+0xb8>
    5ca2:	8952                	mv	s2,s4
    5ca4:	4008                	lw	a0,0(s0)
    5ca6:	864a                	mv	a2,s2
    5ca8:	85da                	mv	a1,s6
    5caa:	423000ef          	jal	ra,68cc <memmove>
    5cae:	441c                	lw	a5,8(s0)
    5cb0:	4501                	li	a0,0
    5cb2:	412787b3          	sub	a5,a5,s2
    5cb6:	c41c                	sw	a5,8(s0)
    5cb8:	401c                	lw	a5,0(s0)
    5cba:	993e                	add	s2,s2,a5
    5cbc:	01242023          	sw	s2,0(s0)
    5cc0:	bf79                	j	5c5e <__ssputs_r+0x72>
    5cc2:	8626                	mv	a2,s1
    5cc4:	8556                	mv	a0,s5
    5cc6:	455000ef          	jal	ra,691a <_realloc_r>
    5cca:	892a                	mv	s2,a0
    5ccc:	fd5d                	bnez	a0,5c8a <__ssputs_r+0x9e>
    5cce:	480c                	lw	a1,16(s0)
    5cd0:	8556                	mv	a0,s5
    5cd2:	d99ff0ef          	jal	ra,5a6a <_free_r>
    5cd6:	bf95                	j	5c4a <__ssputs_r+0x5e>

00005cd8 <_svfiprintf_r>:
    5cd8:	00c5d783          	lhu	a5,12(a1)
    5cdc:	7171                	addi	sp,sp,-176
    5cde:	d326                	sw	s1,164(sp)
    5ce0:	d14a                	sw	s2,160(sp)
    5ce2:	cf4e                	sw	s3,156(sp)
    5ce4:	d706                	sw	ra,172(sp)
    5ce6:	d522                	sw	s0,168(sp)
    5ce8:	cd52                	sw	s4,152(sp)
    5cea:	cb56                	sw	s5,148(sp)
    5cec:	c95a                	sw	s6,144(sp)
    5cee:	c75e                	sw	s7,140(sp)
    5cf0:	c562                	sw	s8,136(sp)
    5cf2:	c366                	sw	s9,132(sp)
    5cf4:	0807f793          	andi	a5,a5,128
    5cf8:	89aa                	mv	s3,a0
    5cfa:	892e                	mv	s2,a1
    5cfc:	84b2                	mv	s1,a2
    5cfe:	c3b9                	beqz	a5,5d44 <_svfiprintf_r+0x6c>
    5d00:	499c                	lw	a5,16(a1)
    5d02:	e3a9                	bnez	a5,5d44 <_svfiprintf_r+0x6c>
    5d04:	04000593          	li	a1,64
    5d08:	c636                	sw	a3,12(sp)
    5d0a:	e09ff0ef          	jal	ra,5b12 <_malloc_r>
    5d0e:	00a92023          	sw	a0,0(s2)
    5d12:	00a92823          	sw	a0,16(s2)
    5d16:	46b2                	lw	a3,12(sp)
    5d18:	e115                	bnez	a0,5d3c <_svfiprintf_r+0x64>
    5d1a:	47b1                	li	a5,12
    5d1c:	00f9a023          	sw	a5,0(s3)
    5d20:	557d                	li	a0,-1
    5d22:	50ba                	lw	ra,172(sp)
    5d24:	542a                	lw	s0,168(sp)
    5d26:	549a                	lw	s1,164(sp)
    5d28:	590a                	lw	s2,160(sp)
    5d2a:	49fa                	lw	s3,156(sp)
    5d2c:	4a6a                	lw	s4,152(sp)
    5d2e:	4ada                	lw	s5,148(sp)
    5d30:	4b4a                	lw	s6,144(sp)
    5d32:	4bba                	lw	s7,140(sp)
    5d34:	4c2a                	lw	s8,136(sp)
    5d36:	4c9a                	lw	s9,132(sp)
    5d38:	614d                	addi	sp,sp,176
    5d3a:	8082                	ret
    5d3c:	04000793          	li	a5,64
    5d40:	00f92a23          	sw	a5,20(s2)
    5d44:	02000793          	li	a5,32
    5d48:	02f10ca3          	sb	a5,57(sp)
    5d4c:	03000793          	li	a5,48
    5d50:	da02                	sw	zero,52(sp)
    5d52:	02f10d23          	sb	a5,58(sp)
    5d56:	ce36                	sw	a3,28(sp)
    5d58:	02500b93          	li	s7,37
    5d5c:	00006a97          	auipc	s5,0x6
    5d60:	184a8a93          	addi	s5,s5,388 # bee0 <__sf_fake_stdout+0x20>
    5d64:	4c05                	li	s8,1
    5d66:	4b29                	li	s6,10
    5d68:	8426                	mv	s0,s1
    5d6a:	00044783          	lbu	a5,0(s0)
    5d6e:	c399                	beqz	a5,5d74 <_svfiprintf_r+0x9c>
    5d70:	09779d63          	bne	a5,s7,5e0a <_svfiprintf_r+0x132>
    5d74:	40940cb3          	sub	s9,s0,s1
    5d78:	000c8e63          	beqz	s9,5d94 <_svfiprintf_r+0xbc>
    5d7c:	86e6                	mv	a3,s9
    5d7e:	8626                	mv	a2,s1
    5d80:	85ca                	mv	a1,s2
    5d82:	854e                	mv	a0,s3
    5d84:	e69ff0ef          	jal	ra,5bec <__ssputs_r>
    5d88:	57fd                	li	a5,-1
    5d8a:	1af50463          	beq	a0,a5,5f32 <_svfiprintf_r+0x25a>
    5d8e:	56d2                	lw	a3,52(sp)
    5d90:	96e6                	add	a3,a3,s9
    5d92:	da36                	sw	a3,52(sp)
    5d94:	00044783          	lbu	a5,0(s0)
    5d98:	18078d63          	beqz	a5,5f32 <_svfiprintf_r+0x25a>
    5d9c:	57fd                	li	a5,-1
    5d9e:	00140493          	addi	s1,s0,1
    5da2:	d002                	sw	zero,32(sp)
    5da4:	d602                	sw	zero,44(sp)
    5da6:	d23e                	sw	a5,36(sp)
    5da8:	d402                	sw	zero,40(sp)
    5daa:	060101a3          	sb	zero,99(sp)
    5dae:	dc82                	sw	zero,120(sp)
    5db0:	0004c583          	lbu	a1,0(s1)
    5db4:	4615                	li	a2,5
    5db6:	8556                	mv	a0,s5
    5db8:	245000ef          	jal	ra,67fc <memchr>
    5dbc:	00148413          	addi	s0,s1,1
    5dc0:	5782                	lw	a5,32(sp)
    5dc2:	e531                	bnez	a0,5e0e <_svfiprintf_r+0x136>
    5dc4:	0107f713          	andi	a4,a5,16
    5dc8:	c709                	beqz	a4,5dd2 <_svfiprintf_r+0xfa>
    5dca:	02000713          	li	a4,32
    5dce:	06e101a3          	sb	a4,99(sp)
    5dd2:	0087f713          	andi	a4,a5,8
    5dd6:	c709                	beqz	a4,5de0 <_svfiprintf_r+0x108>
    5dd8:	02b00713          	li	a4,43
    5ddc:	06e101a3          	sb	a4,99(sp)
    5de0:	0004c683          	lbu	a3,0(s1)
    5de4:	02a00713          	li	a4,42
    5de8:	02e68b63          	beq	a3,a4,5e1e <_svfiprintf_r+0x146>
    5dec:	57b2                	lw	a5,44(sp)
    5dee:	8426                	mv	s0,s1
    5df0:	4681                	li	a3,0
    5df2:	4625                	li	a2,9
    5df4:	00044703          	lbu	a4,0(s0)
    5df8:	00140593          	addi	a1,s0,1
    5dfc:	fd070713          	addi	a4,a4,-48 # ffffdfd0 <_eusrstack+0xdffddfd0>
    5e00:	06e67463          	bgeu	a2,a4,5e68 <_svfiprintf_r+0x190>
    5e04:	c68d                	beqz	a3,5e2e <_svfiprintf_r+0x156>
    5e06:	d63e                	sw	a5,44(sp)
    5e08:	a01d                	j	5e2e <_svfiprintf_r+0x156>
    5e0a:	0405                	addi	s0,s0,1
    5e0c:	bfb9                	j	5d6a <_svfiprintf_r+0x92>
    5e0e:	41550533          	sub	a0,a0,s5
    5e12:	00ac1533          	sll	a0,s8,a0
    5e16:	8fc9                	or	a5,a5,a0
    5e18:	d03e                	sw	a5,32(sp)
    5e1a:	84a2                	mv	s1,s0
    5e1c:	bf51                	j	5db0 <_svfiprintf_r+0xd8>
    5e1e:	4772                	lw	a4,28(sp)
    5e20:	00470693          	addi	a3,a4,4
    5e24:	4318                	lw	a4,0(a4)
    5e26:	ce36                	sw	a3,28(sp)
    5e28:	02074963          	bltz	a4,5e5a <_svfiprintf_r+0x182>
    5e2c:	d63a                	sw	a4,44(sp)
    5e2e:	00044703          	lbu	a4,0(s0)
    5e32:	02e00793          	li	a5,46
    5e36:	04f71f63          	bne	a4,a5,5e94 <_svfiprintf_r+0x1bc>
    5e3a:	00144703          	lbu	a4,1(s0)
    5e3e:	02a00793          	li	a5,42
    5e42:	02f71b63          	bne	a4,a5,5e78 <_svfiprintf_r+0x1a0>
    5e46:	47f2                	lw	a5,28(sp)
    5e48:	0409                	addi	s0,s0,2
    5e4a:	00478713          	addi	a4,a5,4
    5e4e:	439c                	lw	a5,0(a5)
    5e50:	ce3a                	sw	a4,28(sp)
    5e52:	0207c163          	bltz	a5,5e74 <_svfiprintf_r+0x19c>
    5e56:	d23e                	sw	a5,36(sp)
    5e58:	a835                	j	5e94 <_svfiprintf_r+0x1bc>
    5e5a:	40e00733          	neg	a4,a4
    5e5e:	0027e793          	ori	a5,a5,2
    5e62:	d63a                	sw	a4,44(sp)
    5e64:	d03e                	sw	a5,32(sp)
    5e66:	b7e1                	j	5e2e <_svfiprintf_r+0x156>
    5e68:	036787b3          	mul	a5,a5,s6
    5e6c:	4685                	li	a3,1
    5e6e:	842e                	mv	s0,a1
    5e70:	97ba                	add	a5,a5,a4
    5e72:	b749                	j	5df4 <_svfiprintf_r+0x11c>
    5e74:	57fd                	li	a5,-1
    5e76:	b7c5                	j	5e56 <_svfiprintf_r+0x17e>
    5e78:	0405                	addi	s0,s0,1
    5e7a:	d202                	sw	zero,36(sp)
    5e7c:	4681                	li	a3,0
    5e7e:	4781                	li	a5,0
    5e80:	4625                	li	a2,9
    5e82:	00044703          	lbu	a4,0(s0)
    5e86:	00140593          	addi	a1,s0,1
    5e8a:	fd070713          	addi	a4,a4,-48
    5e8e:	06e67863          	bgeu	a2,a4,5efe <_svfiprintf_r+0x226>
    5e92:	f2f1                	bnez	a3,5e56 <_svfiprintf_r+0x17e>
    5e94:	00044583          	lbu	a1,0(s0)
    5e98:	460d                	li	a2,3
    5e9a:	00006517          	auipc	a0,0x6
    5e9e:	04e50513          	addi	a0,a0,78 # bee8 <__sf_fake_stdout+0x28>
    5ea2:	15b000ef          	jal	ra,67fc <memchr>
    5ea6:	cd11                	beqz	a0,5ec2 <_svfiprintf_r+0x1ea>
    5ea8:	00006797          	auipc	a5,0x6
    5eac:	04078793          	addi	a5,a5,64 # bee8 <__sf_fake_stdout+0x28>
    5eb0:	8d1d                	sub	a0,a0,a5
    5eb2:	04000793          	li	a5,64
    5eb6:	00a797b3          	sll	a5,a5,a0
    5eba:	5502                	lw	a0,32(sp)
    5ebc:	0405                	addi	s0,s0,1
    5ebe:	8d5d                	or	a0,a0,a5
    5ec0:	d02a                	sw	a0,32(sp)
    5ec2:	00044583          	lbu	a1,0(s0)
    5ec6:	4619                	li	a2,6
    5ec8:	00006517          	auipc	a0,0x6
    5ecc:	02450513          	addi	a0,a0,36 # beec <__sf_fake_stdout+0x2c>
    5ed0:	00140493          	addi	s1,s0,1
    5ed4:	02b10c23          	sb	a1,56(sp)
    5ed8:	125000ef          	jal	ra,67fc <memchr>
    5edc:	c525                	beqz	a0,5f44 <_svfiprintf_r+0x26c>
    5ede:	ffffa797          	auipc	a5,0xffffa
    5ee2:	12278793          	addi	a5,a5,290 # 0 <_sinit>
    5ee6:	e795                	bnez	a5,5f12 <_svfiprintf_r+0x23a>
    5ee8:	5702                	lw	a4,32(sp)
    5eea:	47f2                	lw	a5,28(sp)
    5eec:	10077713          	andi	a4,a4,256
    5ef0:	cf09                	beqz	a4,5f0a <_svfiprintf_r+0x232>
    5ef2:	0791                	addi	a5,a5,4
    5ef4:	ce3e                	sw	a5,28(sp)
    5ef6:	57d2                	lw	a5,52(sp)
    5ef8:	97d2                	add	a5,a5,s4
    5efa:	da3e                	sw	a5,52(sp)
    5efc:	b5b5                	j	5d68 <_svfiprintf_r+0x90>
    5efe:	036787b3          	mul	a5,a5,s6
    5f02:	4685                	li	a3,1
    5f04:	842e                	mv	s0,a1
    5f06:	97ba                	add	a5,a5,a4
    5f08:	bfad                	j	5e82 <_svfiprintf_r+0x1aa>
    5f0a:	079d                	addi	a5,a5,7
    5f0c:	9be1                	andi	a5,a5,-8
    5f0e:	07a1                	addi	a5,a5,8
    5f10:	b7d5                	j	5ef4 <_svfiprintf_r+0x21c>
    5f12:	0878                	addi	a4,sp,28
    5f14:	00000697          	auipc	a3,0x0
    5f18:	cd868693          	addi	a3,a3,-808 # 5bec <__ssputs_r>
    5f1c:	864a                	mv	a2,s2
    5f1e:	100c                	addi	a1,sp,32
    5f20:	854e                	mv	a0,s3
    5f22:	00000097          	auipc	ra,0x0
    5f26:	000000e7          	jalr	zero # 0 <_sinit>
    5f2a:	57fd                	li	a5,-1
    5f2c:	8a2a                	mv	s4,a0
    5f2e:	fcf514e3          	bne	a0,a5,5ef6 <_svfiprintf_r+0x21e>
    5f32:	00c95783          	lhu	a5,12(s2)
    5f36:	557d                	li	a0,-1
    5f38:	0407f793          	andi	a5,a5,64
    5f3c:	de0793e3          	bnez	a5,5d22 <_svfiprintf_r+0x4a>
    5f40:	5552                	lw	a0,52(sp)
    5f42:	b3c5                	j	5d22 <_svfiprintf_r+0x4a>
    5f44:	0878                	addi	a4,sp,28
    5f46:	00000697          	auipc	a3,0x0
    5f4a:	ca668693          	addi	a3,a3,-858 # 5bec <__ssputs_r>
    5f4e:	864a                	mv	a2,s2
    5f50:	100c                	addi	a1,sp,32
    5f52:	854e                	mv	a0,s3
    5f54:	2919                	jal	636a <_printf_i>
    5f56:	bfd1                	j	5f2a <_svfiprintf_r+0x252>

00005f58 <__sfputc_r>:
    5f58:	461c                	lw	a5,8(a2)
    5f5a:	17fd                	addi	a5,a5,-1
    5f5c:	c61c                	sw	a5,8(a2)
    5f5e:	0007da63          	bgez	a5,5f72 <__sfputc_r+0x1a>
    5f62:	4e18                	lw	a4,24(a2)
    5f64:	00e7c563          	blt	a5,a4,5f6e <__sfputc_r+0x16>
    5f68:	47a9                	li	a5,10
    5f6a:	00f59463          	bne	a1,a5,5f72 <__sfputc_r+0x1a>
    5f6e:	c70ff06f          	j	53de <__swbuf_r>
    5f72:	421c                	lw	a5,0(a2)
    5f74:	852e                	mv	a0,a1
    5f76:	00178713          	addi	a4,a5,1
    5f7a:	c218                	sw	a4,0(a2)
    5f7c:	00b78023          	sb	a1,0(a5)
    5f80:	8082                	ret

00005f82 <__sfputs_r>:
    5f82:	1101                	addi	sp,sp,-32
    5f84:	cc22                	sw	s0,24(sp)
    5f86:	ca26                	sw	s1,20(sp)
    5f88:	c84a                	sw	s2,16(sp)
    5f8a:	c64e                	sw	s3,12(sp)
    5f8c:	c452                	sw	s4,8(sp)
    5f8e:	ce06                	sw	ra,28(sp)
    5f90:	892a                	mv	s2,a0
    5f92:	89ae                	mv	s3,a1
    5f94:	8432                	mv	s0,a2
    5f96:	00d604b3          	add	s1,a2,a3
    5f9a:	5a7d                	li	s4,-1
    5f9c:	00941463          	bne	s0,s1,5fa4 <__sfputs_r+0x22>
    5fa0:	4501                	li	a0,0
    5fa2:	a809                	j	5fb4 <__sfputs_r+0x32>
    5fa4:	00044583          	lbu	a1,0(s0)
    5fa8:	864e                	mv	a2,s3
    5faa:	854a                	mv	a0,s2
    5fac:	3775                	jal	5f58 <__sfputc_r>
    5fae:	0405                	addi	s0,s0,1
    5fb0:	ff4516e3          	bne	a0,s4,5f9c <__sfputs_r+0x1a>
    5fb4:	40f2                	lw	ra,28(sp)
    5fb6:	4462                	lw	s0,24(sp)
    5fb8:	44d2                	lw	s1,20(sp)
    5fba:	4942                	lw	s2,16(sp)
    5fbc:	49b2                	lw	s3,12(sp)
    5fbe:	4a22                	lw	s4,8(sp)
    5fc0:	6105                	addi	sp,sp,32
    5fc2:	8082                	ret

00005fc4 <_vfiprintf_r>:
    5fc4:	7135                	addi	sp,sp,-160
    5fc6:	cd22                	sw	s0,152(sp)
    5fc8:	cb26                	sw	s1,148(sp)
    5fca:	c94a                	sw	s2,144(sp)
    5fcc:	c74e                	sw	s3,140(sp)
    5fce:	cf06                	sw	ra,156(sp)
    5fd0:	c552                	sw	s4,136(sp)
    5fd2:	c356                	sw	s5,132(sp)
    5fd4:	c15a                	sw	s6,128(sp)
    5fd6:	dede                	sw	s7,124(sp)
    5fd8:	dce2                	sw	s8,120(sp)
    5fda:	dae6                	sw	s9,116(sp)
    5fdc:	89aa                	mv	s3,a0
    5fde:	84ae                	mv	s1,a1
    5fe0:	8932                	mv	s2,a2
    5fe2:	8436                	mv	s0,a3
    5fe4:	c509                	beqz	a0,5fee <_vfiprintf_r+0x2a>
    5fe6:	4d1c                	lw	a5,24(a0)
    5fe8:	e399                	bnez	a5,5fee <_vfiprintf_r+0x2a>
    5fea:	81bff0ef          	jal	ra,5804 <__sinit>
    5fee:	00006797          	auipc	a5,0x6
    5ff2:	eb278793          	addi	a5,a5,-334 # bea0 <__sf_fake_stdin>
    5ff6:	0cf49b63          	bne	s1,a5,60cc <_vfiprintf_r+0x108>
    5ffa:	0049a483          	lw	s1,4(s3)
    5ffe:	00c4d783          	lhu	a5,12(s1)
    6002:	8ba1                	andi	a5,a5,8
    6004:	c7f5                	beqz	a5,60f0 <_vfiprintf_r+0x12c>
    6006:	489c                	lw	a5,16(s1)
    6008:	c7e5                	beqz	a5,60f0 <_vfiprintf_r+0x12c>
    600a:	02000793          	li	a5,32
    600e:	02f104a3          	sb	a5,41(sp)
    6012:	03000793          	li	a5,48
    6016:	d202                	sw	zero,36(sp)
    6018:	02f10523          	sb	a5,42(sp)
    601c:	c622                	sw	s0,12(sp)
    601e:	02500b93          	li	s7,37
    6022:	00006a97          	auipc	s5,0x6
    6026:	ebea8a93          	addi	s5,s5,-322 # bee0 <__sf_fake_stdout+0x20>
    602a:	4c05                	li	s8,1
    602c:	4b29                	li	s6,10
    602e:	844a                	mv	s0,s2
    6030:	00044783          	lbu	a5,0(s0)
    6034:	c399                	beqz	a5,603a <_vfiprintf_r+0x76>
    6036:	0f779063          	bne	a5,s7,6116 <_vfiprintf_r+0x152>
    603a:	41240cb3          	sub	s9,s0,s2
    603e:	000c8d63          	beqz	s9,6058 <_vfiprintf_r+0x94>
    6042:	86e6                	mv	a3,s9
    6044:	864a                	mv	a2,s2
    6046:	85a6                	mv	a1,s1
    6048:	854e                	mv	a0,s3
    604a:	3f25                	jal	5f82 <__sfputs_r>
    604c:	57fd                	li	a5,-1
    604e:	1ef50663          	beq	a0,a5,623a <_vfiprintf_r+0x276>
    6052:	5692                	lw	a3,36(sp)
    6054:	96e6                	add	a3,a3,s9
    6056:	d236                	sw	a3,36(sp)
    6058:	00044783          	lbu	a5,0(s0)
    605c:	1c078f63          	beqz	a5,623a <_vfiprintf_r+0x276>
    6060:	57fd                	li	a5,-1
    6062:	00140913          	addi	s2,s0,1
    6066:	c802                	sw	zero,16(sp)
    6068:	ce02                	sw	zero,28(sp)
    606a:	ca3e                	sw	a5,20(sp)
    606c:	cc02                	sw	zero,24(sp)
    606e:	040109a3          	sb	zero,83(sp)
    6072:	d482                	sw	zero,104(sp)
    6074:	00094583          	lbu	a1,0(s2)
    6078:	4615                	li	a2,5
    607a:	8556                	mv	a0,s5
    607c:	2741                	jal	67fc <memchr>
    607e:	00190413          	addi	s0,s2,1
    6082:	47c2                	lw	a5,16(sp)
    6084:	e959                	bnez	a0,611a <_vfiprintf_r+0x156>
    6086:	0107f713          	andi	a4,a5,16
    608a:	c709                	beqz	a4,6094 <_vfiprintf_r+0xd0>
    608c:	02000713          	li	a4,32
    6090:	04e109a3          	sb	a4,83(sp)
    6094:	0087f713          	andi	a4,a5,8
    6098:	c709                	beqz	a4,60a2 <_vfiprintf_r+0xde>
    609a:	02b00713          	li	a4,43
    609e:	04e109a3          	sb	a4,83(sp)
    60a2:	00094683          	lbu	a3,0(s2)
    60a6:	02a00713          	li	a4,42
    60aa:	08e68063          	beq	a3,a4,612a <_vfiprintf_r+0x166>
    60ae:	47f2                	lw	a5,28(sp)
    60b0:	844a                	mv	s0,s2
    60b2:	4681                	li	a3,0
    60b4:	4625                	li	a2,9
    60b6:	00044703          	lbu	a4,0(s0)
    60ba:	00140593          	addi	a1,s0,1
    60be:	fd070713          	addi	a4,a4,-48
    60c2:	0ae67963          	bgeu	a2,a4,6174 <_vfiprintf_r+0x1b0>
    60c6:	cab5                	beqz	a3,613a <_vfiprintf_r+0x176>
    60c8:	ce3e                	sw	a5,28(sp)
    60ca:	a885                	j	613a <_vfiprintf_r+0x176>
    60cc:	00006797          	auipc	a5,0x6
    60d0:	df478793          	addi	a5,a5,-524 # bec0 <__sf_fake_stdout>
    60d4:	00f49563          	bne	s1,a5,60de <_vfiprintf_r+0x11a>
    60d8:	0089a483          	lw	s1,8(s3)
    60dc:	b70d                	j	5ffe <_vfiprintf_r+0x3a>
    60de:	00006797          	auipc	a5,0x6
    60e2:	da278793          	addi	a5,a5,-606 # be80 <__sf_fake_stderr>
    60e6:	f0f49ce3          	bne	s1,a5,5ffe <_vfiprintf_r+0x3a>
    60ea:	00c9a483          	lw	s1,12(s3)
    60ee:	bf01                	j	5ffe <_vfiprintf_r+0x3a>
    60f0:	85a6                	mv	a1,s1
    60f2:	854e                	mv	a0,s3
    60f4:	baaff0ef          	jal	ra,549e <__swsetup_r>
    60f8:	d909                	beqz	a0,600a <_vfiprintf_r+0x46>
    60fa:	557d                	li	a0,-1
    60fc:	40fa                	lw	ra,156(sp)
    60fe:	446a                	lw	s0,152(sp)
    6100:	44da                	lw	s1,148(sp)
    6102:	494a                	lw	s2,144(sp)
    6104:	49ba                	lw	s3,140(sp)
    6106:	4a2a                	lw	s4,136(sp)
    6108:	4a9a                	lw	s5,132(sp)
    610a:	4b0a                	lw	s6,128(sp)
    610c:	5bf6                	lw	s7,124(sp)
    610e:	5c66                	lw	s8,120(sp)
    6110:	5cd6                	lw	s9,116(sp)
    6112:	610d                	addi	sp,sp,160
    6114:	8082                	ret
    6116:	0405                	addi	s0,s0,1
    6118:	bf21                	j	6030 <_vfiprintf_r+0x6c>
    611a:	41550533          	sub	a0,a0,s5
    611e:	00ac1533          	sll	a0,s8,a0
    6122:	8fc9                	or	a5,a5,a0
    6124:	c83e                	sw	a5,16(sp)
    6126:	8922                	mv	s2,s0
    6128:	b7b1                	j	6074 <_vfiprintf_r+0xb0>
    612a:	4732                	lw	a4,12(sp)
    612c:	00470693          	addi	a3,a4,4
    6130:	4318                	lw	a4,0(a4)
    6132:	c636                	sw	a3,12(sp)
    6134:	02074963          	bltz	a4,6166 <_vfiprintf_r+0x1a2>
    6138:	ce3a                	sw	a4,28(sp)
    613a:	00044703          	lbu	a4,0(s0)
    613e:	02e00793          	li	a5,46
    6142:	04f71f63          	bne	a4,a5,61a0 <_vfiprintf_r+0x1dc>
    6146:	00144703          	lbu	a4,1(s0)
    614a:	02a00793          	li	a5,42
    614e:	02f71b63          	bne	a4,a5,6184 <_vfiprintf_r+0x1c0>
    6152:	47b2                	lw	a5,12(sp)
    6154:	0409                	addi	s0,s0,2
    6156:	00478713          	addi	a4,a5,4
    615a:	439c                	lw	a5,0(a5)
    615c:	c63a                	sw	a4,12(sp)
    615e:	0207c163          	bltz	a5,6180 <_vfiprintf_r+0x1bc>
    6162:	ca3e                	sw	a5,20(sp)
    6164:	a835                	j	61a0 <_vfiprintf_r+0x1dc>
    6166:	40e00733          	neg	a4,a4
    616a:	0027e793          	ori	a5,a5,2
    616e:	ce3a                	sw	a4,28(sp)
    6170:	c83e                	sw	a5,16(sp)
    6172:	b7e1                	j	613a <_vfiprintf_r+0x176>
    6174:	036787b3          	mul	a5,a5,s6
    6178:	4685                	li	a3,1
    617a:	842e                	mv	s0,a1
    617c:	97ba                	add	a5,a5,a4
    617e:	bf25                	j	60b6 <_vfiprintf_r+0xf2>
    6180:	57fd                	li	a5,-1
    6182:	b7c5                	j	6162 <_vfiprintf_r+0x19e>
    6184:	0405                	addi	s0,s0,1
    6186:	ca02                	sw	zero,20(sp)
    6188:	4681                	li	a3,0
    618a:	4781                	li	a5,0
    618c:	4625                	li	a2,9
    618e:	00044703          	lbu	a4,0(s0)
    6192:	00140593          	addi	a1,s0,1
    6196:	fd070713          	addi	a4,a4,-48
    619a:	06e67663          	bgeu	a2,a4,6206 <_vfiprintf_r+0x242>
    619e:	f2f1                	bnez	a3,6162 <_vfiprintf_r+0x19e>
    61a0:	00044583          	lbu	a1,0(s0)
    61a4:	460d                	li	a2,3
    61a6:	00006517          	auipc	a0,0x6
    61aa:	d4250513          	addi	a0,a0,-702 # bee8 <__sf_fake_stdout+0x28>
    61ae:	25b9                	jal	67fc <memchr>
    61b0:	cd11                	beqz	a0,61cc <_vfiprintf_r+0x208>
    61b2:	00006797          	auipc	a5,0x6
    61b6:	d3678793          	addi	a5,a5,-714 # bee8 <__sf_fake_stdout+0x28>
    61ba:	8d1d                	sub	a0,a0,a5
    61bc:	04000793          	li	a5,64
    61c0:	00a797b3          	sll	a5,a5,a0
    61c4:	4542                	lw	a0,16(sp)
    61c6:	0405                	addi	s0,s0,1
    61c8:	8d5d                	or	a0,a0,a5
    61ca:	c82a                	sw	a0,16(sp)
    61cc:	00044583          	lbu	a1,0(s0)
    61d0:	4619                	li	a2,6
    61d2:	00006517          	auipc	a0,0x6
    61d6:	d1a50513          	addi	a0,a0,-742 # beec <__sf_fake_stdout+0x2c>
    61da:	00140913          	addi	s2,s0,1
    61de:	02b10423          	sb	a1,40(sp)
    61e2:	2d29                	jal	67fc <memchr>
    61e4:	c13d                	beqz	a0,624a <_vfiprintf_r+0x286>
    61e6:	ffffa797          	auipc	a5,0xffffa
    61ea:	e1a78793          	addi	a5,a5,-486 # 0 <_sinit>
    61ee:	e795                	bnez	a5,621a <_vfiprintf_r+0x256>
    61f0:	4742                	lw	a4,16(sp)
    61f2:	47b2                	lw	a5,12(sp)
    61f4:	10077713          	andi	a4,a4,256
    61f8:	cf09                	beqz	a4,6212 <_vfiprintf_r+0x24e>
    61fa:	0791                	addi	a5,a5,4
    61fc:	c63e                	sw	a5,12(sp)
    61fe:	5792                	lw	a5,36(sp)
    6200:	97d2                	add	a5,a5,s4
    6202:	d23e                	sw	a5,36(sp)
    6204:	b52d                	j	602e <_vfiprintf_r+0x6a>
    6206:	036787b3          	mul	a5,a5,s6
    620a:	4685                	li	a3,1
    620c:	842e                	mv	s0,a1
    620e:	97ba                	add	a5,a5,a4
    6210:	bfbd                	j	618e <_vfiprintf_r+0x1ca>
    6212:	079d                	addi	a5,a5,7
    6214:	9be1                	andi	a5,a5,-8
    6216:	07a1                	addi	a5,a5,8
    6218:	b7d5                	j	61fc <_vfiprintf_r+0x238>
    621a:	0078                	addi	a4,sp,12
    621c:	00000697          	auipc	a3,0x0
    6220:	d6668693          	addi	a3,a3,-666 # 5f82 <__sfputs_r>
    6224:	8626                	mv	a2,s1
    6226:	080c                	addi	a1,sp,16
    6228:	854e                	mv	a0,s3
    622a:	00000097          	auipc	ra,0x0
    622e:	000000e7          	jalr	zero # 0 <_sinit>
    6232:	57fd                	li	a5,-1
    6234:	8a2a                	mv	s4,a0
    6236:	fcf514e3          	bne	a0,a5,61fe <_vfiprintf_r+0x23a>
    623a:	00c4d783          	lhu	a5,12(s1)
    623e:	0407f793          	andi	a5,a5,64
    6242:	ea079ce3          	bnez	a5,60fa <_vfiprintf_r+0x136>
    6246:	5512                	lw	a0,36(sp)
    6248:	bd55                	j	60fc <_vfiprintf_r+0x138>
    624a:	0078                	addi	a4,sp,12
    624c:	00000697          	auipc	a3,0x0
    6250:	d3668693          	addi	a3,a3,-714 # 5f82 <__sfputs_r>
    6254:	8626                	mv	a2,s1
    6256:	080c                	addi	a1,sp,16
    6258:	854e                	mv	a0,s3
    625a:	2a01                	jal	636a <_printf_i>
    625c:	bfd9                	j	6232 <_vfiprintf_r+0x26e>

0000625e <_printf_common>:
    625e:	7179                	addi	sp,sp,-48
    6260:	ca56                	sw	s5,20(sp)
    6262:	499c                	lw	a5,16(a1)
    6264:	8aba                	mv	s5,a4
    6266:	4598                	lw	a4,8(a1)
    6268:	d422                	sw	s0,40(sp)
    626a:	d226                	sw	s1,36(sp)
    626c:	ce4e                	sw	s3,28(sp)
    626e:	cc52                	sw	s4,24(sp)
    6270:	d606                	sw	ra,44(sp)
    6272:	d04a                	sw	s2,32(sp)
    6274:	c85a                	sw	s6,16(sp)
    6276:	c65e                	sw	s7,12(sp)
    6278:	89aa                	mv	s3,a0
    627a:	842e                	mv	s0,a1
    627c:	84b2                	mv	s1,a2
    627e:	8a36                	mv	s4,a3
    6280:	00e7d363          	bge	a5,a4,6286 <_printf_common+0x28>
    6284:	87ba                	mv	a5,a4
    6286:	c09c                	sw	a5,0(s1)
    6288:	04344703          	lbu	a4,67(s0)
    628c:	c319                	beqz	a4,6292 <_printf_common+0x34>
    628e:	0785                	addi	a5,a5,1
    6290:	c09c                	sw	a5,0(s1)
    6292:	401c                	lw	a5,0(s0)
    6294:	0207f793          	andi	a5,a5,32
    6298:	c781                	beqz	a5,62a0 <_printf_common+0x42>
    629a:	409c                	lw	a5,0(s1)
    629c:	0789                	addi	a5,a5,2
    629e:	c09c                	sw	a5,0(s1)
    62a0:	00042903          	lw	s2,0(s0)
    62a4:	00697913          	andi	s2,s2,6
    62a8:	00091a63          	bnez	s2,62bc <_printf_common+0x5e>
    62ac:	01940b13          	addi	s6,s0,25
    62b0:	5bfd                	li	s7,-1
    62b2:	445c                	lw	a5,12(s0)
    62b4:	4098                	lw	a4,0(s1)
    62b6:	8f99                	sub	a5,a5,a4
    62b8:	04f94c63          	blt	s2,a5,6310 <_printf_common+0xb2>
    62bc:	401c                	lw	a5,0(s0)
    62be:	04344683          	lbu	a3,67(s0)
    62c2:	0207f793          	andi	a5,a5,32
    62c6:	00d036b3          	snez	a3,a3
    62ca:	eba5                	bnez	a5,633a <_printf_common+0xdc>
    62cc:	04340613          	addi	a2,s0,67
    62d0:	85d2                	mv	a1,s4
    62d2:	854e                	mv	a0,s3
    62d4:	9a82                	jalr	s5
    62d6:	57fd                	li	a5,-1
    62d8:	04f50363          	beq	a0,a5,631e <_printf_common+0xc0>
    62dc:	401c                	lw	a5,0(s0)
    62de:	4611                	li	a2,4
    62e0:	4098                	lw	a4,0(s1)
    62e2:	8b99                	andi	a5,a5,6
    62e4:	4454                	lw	a3,12(s0)
    62e6:	4481                	li	s1,0
    62e8:	00c79763          	bne	a5,a2,62f6 <_printf_common+0x98>
    62ec:	40e684b3          	sub	s1,a3,a4
    62f0:	0004d363          	bgez	s1,62f6 <_printf_common+0x98>
    62f4:	4481                	li	s1,0
    62f6:	441c                	lw	a5,8(s0)
    62f8:	4818                	lw	a4,16(s0)
    62fa:	00f75463          	bge	a4,a5,6302 <_printf_common+0xa4>
    62fe:	8f99                	sub	a5,a5,a4
    6300:	94be                	add	s1,s1,a5
    6302:	4901                	li	s2,0
    6304:	0469                	addi	s0,s0,26
    6306:	5b7d                	li	s6,-1
    6308:	05249863          	bne	s1,s2,6358 <_printf_common+0xfa>
    630c:	4501                	li	a0,0
    630e:	a809                	j	6320 <_printf_common+0xc2>
    6310:	4685                	li	a3,1
    6312:	865a                	mv	a2,s6
    6314:	85d2                	mv	a1,s4
    6316:	854e                	mv	a0,s3
    6318:	9a82                	jalr	s5
    631a:	01751e63          	bne	a0,s7,6336 <_printf_common+0xd8>
    631e:	557d                	li	a0,-1
    6320:	50b2                	lw	ra,44(sp)
    6322:	5422                	lw	s0,40(sp)
    6324:	5492                	lw	s1,36(sp)
    6326:	5902                	lw	s2,32(sp)
    6328:	49f2                	lw	s3,28(sp)
    632a:	4a62                	lw	s4,24(sp)
    632c:	4ad2                	lw	s5,20(sp)
    632e:	4b42                	lw	s6,16(sp)
    6330:	4bb2                	lw	s7,12(sp)
    6332:	6145                	addi	sp,sp,48
    6334:	8082                	ret
    6336:	0905                	addi	s2,s2,1
    6338:	bfad                	j	62b2 <_printf_common+0x54>
    633a:	00d40733          	add	a4,s0,a3
    633e:	03000613          	li	a2,48
    6342:	04c701a3          	sb	a2,67(a4)
    6346:	04544703          	lbu	a4,69(s0)
    634a:	00168793          	addi	a5,a3,1
    634e:	97a2                	add	a5,a5,s0
    6350:	0689                	addi	a3,a3,2
    6352:	04e781a3          	sb	a4,67(a5)
    6356:	bf9d                	j	62cc <_printf_common+0x6e>
    6358:	4685                	li	a3,1
    635a:	8622                	mv	a2,s0
    635c:	85d2                	mv	a1,s4
    635e:	854e                	mv	a0,s3
    6360:	9a82                	jalr	s5
    6362:	fb650ee3          	beq	a0,s6,631e <_printf_common+0xc0>
    6366:	0905                	addi	s2,s2,1
    6368:	b745                	j	6308 <_printf_common+0xaa>

0000636a <_printf_i>:
    636a:	7179                	addi	sp,sp,-48
    636c:	d422                	sw	s0,40(sp)
    636e:	d226                	sw	s1,36(sp)
    6370:	d04a                	sw	s2,32(sp)
    6372:	ce4e                	sw	s3,28(sp)
    6374:	d606                	sw	ra,44(sp)
    6376:	cc52                	sw	s4,24(sp)
    6378:	ca56                	sw	s5,20(sp)
    637a:	c85a                	sw	s6,16(sp)
    637c:	89b6                	mv	s3,a3
    637e:	0185c683          	lbu	a3,24(a1)
    6382:	06900793          	li	a5,105
    6386:	8932                	mv	s2,a2
    6388:	84aa                	mv	s1,a0
    638a:	842e                	mv	s0,a1
    638c:	04358613          	addi	a2,a1,67
    6390:	02f68d63          	beq	a3,a5,63ca <_printf_i+0x60>
    6394:	06d7e263          	bltu	a5,a3,63f8 <_printf_i+0x8e>
    6398:	05800793          	li	a5,88
    639c:	18f68863          	beq	a3,a5,652c <_printf_i+0x1c2>
    63a0:	00d7ed63          	bltu	a5,a3,63ba <_printf_i+0x50>
    63a4:	22068163          	beqz	a3,65c6 <_printf_i+0x25c>
    63a8:	04300793          	li	a5,67
    63ac:	0af68e63          	beq	a3,a5,6468 <_printf_i+0xfe>
    63b0:	04240a93          	addi	s5,s0,66
    63b4:	04d40123          	sb	a3,66(s0)
    63b8:	a0c9                	j	647a <_printf_i+0x110>
    63ba:	06300793          	li	a5,99
    63be:	0af68563          	beq	a3,a5,6468 <_printf_i+0xfe>
    63c2:	06400793          	li	a5,100
    63c6:	fef695e3          	bne	a3,a5,63b0 <_printf_i+0x46>
    63ca:	401c                	lw	a5,0(s0)
    63cc:	4308                	lw	a0,0(a4)
    63ce:	0807f693          	andi	a3,a5,128
    63d2:	00450593          	addi	a1,a0,4
    63d6:	c6c5                	beqz	a3,647e <_printf_i+0x114>
    63d8:	411c                	lw	a5,0(a0)
    63da:	c30c                	sw	a1,0(a4)
    63dc:	0007d863          	bgez	a5,63ec <_printf_i+0x82>
    63e0:	02d00713          	li	a4,45
    63e4:	40f007b3          	neg	a5,a5
    63e8:	04e401a3          	sb	a4,67(s0)
    63ec:	00006697          	auipc	a3,0x6
    63f0:	b0868693          	addi	a3,a3,-1272 # bef4 <__sf_fake_stdout+0x34>
    63f4:	4729                	li	a4,10
    63f6:	a86d                	j	64b0 <_printf_i+0x146>
    63f8:	07000793          	li	a5,112
    63fc:	16f68463          	beq	a3,a5,6564 <_printf_i+0x1fa>
    6400:	02d7e563          	bltu	a5,a3,642a <_printf_i+0xc0>
    6404:	06e00793          	li	a5,110
    6408:	18f68b63          	beq	a3,a5,659e <_printf_i+0x234>
    640c:	06f00793          	li	a5,111
    6410:	faf690e3          	bne	a3,a5,63b0 <_printf_i+0x46>
    6414:	400c                	lw	a1,0(s0)
    6416:	431c                	lw	a5,0(a4)
    6418:	0805f813          	andi	a6,a1,128
    641c:	00478513          	addi	a0,a5,4
    6420:	06080763          	beqz	a6,648e <_printf_i+0x124>
    6424:	c308                	sw	a0,0(a4)
    6426:	439c                	lw	a5,0(a5)
    6428:	a88d                	j	649a <_printf_i+0x130>
    642a:	07500793          	li	a5,117
    642e:	fef683e3          	beq	a3,a5,6414 <_printf_i+0xaa>
    6432:	07800793          	li	a5,120
    6436:	12f68b63          	beq	a3,a5,656c <_printf_i+0x202>
    643a:	07300793          	li	a5,115
    643e:	f6f699e3          	bne	a3,a5,63b0 <_printf_i+0x46>
    6442:	431c                	lw	a5,0(a4)
    6444:	41d0                	lw	a2,4(a1)
    6446:	4581                	li	a1,0
    6448:	00478693          	addi	a3,a5,4
    644c:	c314                	sw	a3,0(a4)
    644e:	0007aa83          	lw	s5,0(a5)
    6452:	8556                	mv	a0,s5
    6454:	2665                	jal	67fc <memchr>
    6456:	c501                	beqz	a0,645e <_printf_i+0xf4>
    6458:	41550533          	sub	a0,a0,s5
    645c:	c048                	sw	a0,4(s0)
    645e:	405c                	lw	a5,4(s0)
    6460:	c81c                	sw	a5,16(s0)
    6462:	040401a3          	sb	zero,67(s0)
    6466:	a871                	j	6502 <_printf_i+0x198>
    6468:	431c                	lw	a5,0(a4)
    646a:	04240a93          	addi	s5,s0,66
    646e:	00478693          	addi	a3,a5,4
    6472:	439c                	lw	a5,0(a5)
    6474:	c314                	sw	a3,0(a4)
    6476:	04f40123          	sb	a5,66(s0)
    647a:	4785                	li	a5,1
    647c:	b7d5                	j	6460 <_printf_i+0xf6>
    647e:	0407f693          	andi	a3,a5,64
    6482:	411c                	lw	a5,0(a0)
    6484:	c30c                	sw	a1,0(a4)
    6486:	dab9                	beqz	a3,63dc <_printf_i+0x72>
    6488:	07c2                	slli	a5,a5,0x10
    648a:	87c1                	srai	a5,a5,0x10
    648c:	bf81                	j	63dc <_printf_i+0x72>
    648e:	0405f593          	andi	a1,a1,64
    6492:	c308                	sw	a0,0(a4)
    6494:	d9c9                	beqz	a1,6426 <_printf_i+0xbc>
    6496:	0007d783          	lhu	a5,0(a5)
    649a:	06f00713          	li	a4,111
    649e:	0ee68863          	beq	a3,a4,658e <_printf_i+0x224>
    64a2:	00006697          	auipc	a3,0x6
    64a6:	a5268693          	addi	a3,a3,-1454 # bef4 <__sf_fake_stdout+0x34>
    64aa:	4729                	li	a4,10
    64ac:	040401a3          	sb	zero,67(s0)
    64b0:	404c                	lw	a1,4(s0)
    64b2:	c40c                	sw	a1,8(s0)
    64b4:	0005c563          	bltz	a1,64be <_printf_i+0x154>
    64b8:	4008                	lw	a0,0(s0)
    64ba:	996d                	andi	a0,a0,-5
    64bc:	c008                	sw	a0,0(s0)
    64be:	e399                	bnez	a5,64c4 <_printf_i+0x15a>
    64c0:	8ab2                	mv	s5,a2
    64c2:	cd91                	beqz	a1,64de <_printf_i+0x174>
    64c4:	8ab2                	mv	s5,a2
    64c6:	02e7f5b3          	remu	a1,a5,a4
    64ca:	1afd                	addi	s5,s5,-1
    64cc:	95b6                	add	a1,a1,a3
    64ce:	0005c583          	lbu	a1,0(a1)
    64d2:	00ba8023          	sb	a1,0(s5)
    64d6:	02e7d5b3          	divu	a1,a5,a4
    64da:	0ce7f063          	bgeu	a5,a4,659a <_printf_i+0x230>
    64de:	47a1                	li	a5,8
    64e0:	00f71e63          	bne	a4,a5,64fc <_printf_i+0x192>
    64e4:	401c                	lw	a5,0(s0)
    64e6:	8b85                	andi	a5,a5,1
    64e8:	cb91                	beqz	a5,64fc <_printf_i+0x192>
    64ea:	4058                	lw	a4,4(s0)
    64ec:	481c                	lw	a5,16(s0)
    64ee:	00e7c763          	blt	a5,a4,64fc <_printf_i+0x192>
    64f2:	03000793          	li	a5,48
    64f6:	fefa8fa3          	sb	a5,-1(s5)
    64fa:	1afd                	addi	s5,s5,-1
    64fc:	41560633          	sub	a2,a2,s5
    6500:	c810                	sw	a2,16(s0)
    6502:	874e                	mv	a4,s3
    6504:	86ca                	mv	a3,s2
    6506:	0070                	addi	a2,sp,12
    6508:	85a2                	mv	a1,s0
    650a:	8526                	mv	a0,s1
    650c:	d53ff0ef          	jal	ra,625e <_printf_common>
    6510:	5a7d                	li	s4,-1
    6512:	0b451e63          	bne	a0,s4,65ce <_printf_i+0x264>
    6516:	557d                	li	a0,-1
    6518:	50b2                	lw	ra,44(sp)
    651a:	5422                	lw	s0,40(sp)
    651c:	5492                	lw	s1,36(sp)
    651e:	5902                	lw	s2,32(sp)
    6520:	49f2                	lw	s3,28(sp)
    6522:	4a62                	lw	s4,24(sp)
    6524:	4ad2                	lw	s5,20(sp)
    6526:	4b42                	lw	s6,16(sp)
    6528:	6145                	addi	sp,sp,48
    652a:	8082                	ret
    652c:	04d582a3          	sb	a3,69(a1)
    6530:	00006697          	auipc	a3,0x6
    6534:	9c468693          	addi	a3,a3,-1596 # bef4 <__sf_fake_stdout+0x34>
    6538:	400c                	lw	a1,0(s0)
    653a:	4308                	lw	a0,0(a4)
    653c:	0805f813          	andi	a6,a1,128
    6540:	411c                	lw	a5,0(a0)
    6542:	0511                	addi	a0,a0,4
    6544:	02080d63          	beqz	a6,657e <_printf_i+0x214>
    6548:	c308                	sw	a0,0(a4)
    654a:	0015f713          	andi	a4,a1,1
    654e:	c701                	beqz	a4,6556 <_printf_i+0x1ec>
    6550:	0205e593          	ori	a1,a1,32
    6554:	c00c                	sw	a1,0(s0)
    6556:	4741                	li	a4,16
    6558:	fbb1                	bnez	a5,64ac <_printf_i+0x142>
    655a:	400c                	lw	a1,0(s0)
    655c:	fdf5f593          	andi	a1,a1,-33
    6560:	c00c                	sw	a1,0(s0)
    6562:	b7a9                	j	64ac <_printf_i+0x142>
    6564:	419c                	lw	a5,0(a1)
    6566:	0207e793          	ori	a5,a5,32
    656a:	c19c                	sw	a5,0(a1)
    656c:	07800793          	li	a5,120
    6570:	04f402a3          	sb	a5,69(s0)
    6574:	00006697          	auipc	a3,0x6
    6578:	99468693          	addi	a3,a3,-1644 # bf08 <__sf_fake_stdout+0x48>
    657c:	bf75                	j	6538 <_printf_i+0x1ce>
    657e:	0405f813          	andi	a6,a1,64
    6582:	c308                	sw	a0,0(a4)
    6584:	fc0803e3          	beqz	a6,654a <_printf_i+0x1e0>
    6588:	07c2                	slli	a5,a5,0x10
    658a:	83c1                	srli	a5,a5,0x10
    658c:	bf7d                	j	654a <_printf_i+0x1e0>
    658e:	00006697          	auipc	a3,0x6
    6592:	96668693          	addi	a3,a3,-1690 # bef4 <__sf_fake_stdout+0x34>
    6596:	4721                	li	a4,8
    6598:	bf11                	j	64ac <_printf_i+0x142>
    659a:	87ae                	mv	a5,a1
    659c:	b72d                	j	64c6 <_printf_i+0x15c>
    659e:	4194                	lw	a3,0(a1)
    65a0:	431c                	lw	a5,0(a4)
    65a2:	49cc                	lw	a1,20(a1)
    65a4:	0806f813          	andi	a6,a3,128
    65a8:	00478513          	addi	a0,a5,4
    65ac:	00080663          	beqz	a6,65b8 <_printf_i+0x24e>
    65b0:	c308                	sw	a0,0(a4)
    65b2:	439c                	lw	a5,0(a5)
    65b4:	c38c                	sw	a1,0(a5)
    65b6:	a801                	j	65c6 <_printf_i+0x25c>
    65b8:	c308                	sw	a0,0(a4)
    65ba:	0406f693          	andi	a3,a3,64
    65be:	439c                	lw	a5,0(a5)
    65c0:	daf5                	beqz	a3,65b4 <_printf_i+0x24a>
    65c2:	00b79023          	sh	a1,0(a5)
    65c6:	00042823          	sw	zero,16(s0)
    65ca:	8ab2                	mv	s5,a2
    65cc:	bf1d                	j	6502 <_printf_i+0x198>
    65ce:	4814                	lw	a3,16(s0)
    65d0:	8656                	mv	a2,s5
    65d2:	85ca                	mv	a1,s2
    65d4:	8526                	mv	a0,s1
    65d6:	9982                	jalr	s3
    65d8:	f3450fe3          	beq	a0,s4,6516 <_printf_i+0x1ac>
    65dc:	401c                	lw	a5,0(s0)
    65de:	8b89                	andi	a5,a5,2
    65e0:	e78d                	bnez	a5,660a <_printf_i+0x2a0>
    65e2:	47b2                	lw	a5,12(sp)
    65e4:	4448                	lw	a0,12(s0)
    65e6:	f2f559e3          	bge	a0,a5,6518 <_printf_i+0x1ae>
    65ea:	853e                	mv	a0,a5
    65ec:	b735                	j	6518 <_printf_i+0x1ae>
    65ee:	4685                	li	a3,1
    65f0:	8656                	mv	a2,s5
    65f2:	85ca                	mv	a1,s2
    65f4:	8526                	mv	a0,s1
    65f6:	9982                	jalr	s3
    65f8:	f1650fe3          	beq	a0,s6,6516 <_printf_i+0x1ac>
    65fc:	0a05                	addi	s4,s4,1
    65fe:	445c                	lw	a5,12(s0)
    6600:	4732                	lw	a4,12(sp)
    6602:	8f99                	sub	a5,a5,a4
    6604:	fefa45e3          	blt	s4,a5,65ee <_printf_i+0x284>
    6608:	bfe9                	j	65e2 <_printf_i+0x278>
    660a:	4a01                	li	s4,0
    660c:	01940a93          	addi	s5,s0,25
    6610:	5b7d                	li	s6,-1
    6612:	b7f5                	j	65fe <_printf_i+0x294>

00006614 <_sbrk_r>:
    6614:	1141                	addi	sp,sp,-16
    6616:	c422                	sw	s0,8(sp)
    6618:	842a                	mv	s0,a0
    661a:	852e                	mv	a0,a1
    661c:	2000d797          	auipc	a5,0x2000d
    6620:	b407ae23          	sw	zero,-1188(a5) # 20013178 <errno>
    6624:	c606                	sw	ra,12(sp)
    6626:	eedfb0ef          	jal	ra,2512 <_sbrk>
    662a:	57fd                	li	a5,-1
    662c:	00f51963          	bne	a0,a5,663e <_sbrk_r+0x2a>
    6630:	2000d797          	auipc	a5,0x2000d
    6634:	b4878793          	addi	a5,a5,-1208 # 20013178 <errno>
    6638:	439c                	lw	a5,0(a5)
    663a:	c391                	beqz	a5,663e <_sbrk_r+0x2a>
    663c:	c01c                	sw	a5,0(s0)
    663e:	40b2                	lw	ra,12(sp)
    6640:	4422                	lw	s0,8(sp)
    6642:	0141                	addi	sp,sp,16
    6644:	8082                	ret

00006646 <__sread>:
    6646:	1141                	addi	sp,sp,-16
    6648:	c422                	sw	s0,8(sp)
    664a:	842e                	mv	s0,a1
    664c:	00e59583          	lh	a1,14(a1)
    6650:	c606                	sw	ra,12(sp)
    6652:	2605                	jal	6972 <_read_r>
    6654:	00054963          	bltz	a0,6666 <__sread+0x20>
    6658:	487c                	lw	a5,84(s0)
    665a:	97aa                	add	a5,a5,a0
    665c:	c87c                	sw	a5,84(s0)
    665e:	40b2                	lw	ra,12(sp)
    6660:	4422                	lw	s0,8(sp)
    6662:	0141                	addi	sp,sp,16
    6664:	8082                	ret
    6666:	00c45783          	lhu	a5,12(s0)
    666a:	777d                	lui	a4,0xfffff
    666c:	177d                	addi	a4,a4,-1
    666e:	8ff9                	and	a5,a5,a4
    6670:	00f41623          	sh	a5,12(s0)
    6674:	b7ed                	j	665e <__sread+0x18>

00006676 <__swrite>:
    6676:	00c5d783          	lhu	a5,12(a1)
    667a:	1101                	addi	sp,sp,-32
    667c:	cc22                	sw	s0,24(sp)
    667e:	ca26                	sw	s1,20(sp)
    6680:	c84a                	sw	s2,16(sp)
    6682:	c64e                	sw	s3,12(sp)
    6684:	ce06                	sw	ra,28(sp)
    6686:	1007f793          	andi	a5,a5,256
    668a:	84aa                	mv	s1,a0
    668c:	842e                	mv	s0,a1
    668e:	8932                	mv	s2,a2
    6690:	89b6                	mv	s3,a3
    6692:	c791                	beqz	a5,669e <__swrite+0x28>
    6694:	00e59583          	lh	a1,14(a1)
    6698:	4689                	li	a3,2
    669a:	4601                	li	a2,0
    669c:	2235                	jal	67c8 <_lseek_r>
    669e:	00c45783          	lhu	a5,12(s0)
    66a2:	777d                	lui	a4,0xfffff
    66a4:	177d                	addi	a4,a4,-1
    66a6:	8ff9                	and	a5,a5,a4
    66a8:	00f41623          	sh	a5,12(s0)
    66ac:	00e41583          	lh	a1,14(s0)
    66b0:	4462                	lw	s0,24(sp)
    66b2:	40f2                	lw	ra,28(sp)
    66b4:	86ce                	mv	a3,s3
    66b6:	864a                	mv	a2,s2
    66b8:	49b2                	lw	s3,12(sp)
    66ba:	4942                	lw	s2,16(sp)
    66bc:	8526                	mv	a0,s1
    66be:	44d2                	lw	s1,20(sp)
    66c0:	6105                	addi	sp,sp,32
    66c2:	a83d                	j	6700 <_write_r>

000066c4 <__sseek>:
    66c4:	1141                	addi	sp,sp,-16
    66c6:	c422                	sw	s0,8(sp)
    66c8:	842e                	mv	s0,a1
    66ca:	00e59583          	lh	a1,14(a1)
    66ce:	c606                	sw	ra,12(sp)
    66d0:	28e5                	jal	67c8 <_lseek_r>
    66d2:	57fd                	li	a5,-1
    66d4:	00c45703          	lhu	a4,12(s0)
    66d8:	00f51b63          	bne	a0,a5,66ee <__sseek+0x2a>
    66dc:	77fd                	lui	a5,0xfffff
    66de:	17fd                	addi	a5,a5,-1
    66e0:	8ff9                	and	a5,a5,a4
    66e2:	00f41623          	sh	a5,12(s0)
    66e6:	40b2                	lw	ra,12(sp)
    66e8:	4422                	lw	s0,8(sp)
    66ea:	0141                	addi	sp,sp,16
    66ec:	8082                	ret
    66ee:	6785                	lui	a5,0x1
    66f0:	8fd9                	or	a5,a5,a4
    66f2:	00f41623          	sh	a5,12(s0)
    66f6:	c868                	sw	a0,84(s0)
    66f8:	b7fd                	j	66e6 <__sseek+0x22>

000066fa <__sclose>:
    66fa:	00e59583          	lh	a1,14(a1)
    66fe:	a825                	j	6736 <_close_r>

00006700 <_write_r>:
    6700:	1141                	addi	sp,sp,-16
    6702:	c422                	sw	s0,8(sp)
    6704:	842a                	mv	s0,a0
    6706:	852e                	mv	a0,a1
    6708:	85b2                	mv	a1,a2
    670a:	8636                	mv	a2,a3
    670c:	2000d797          	auipc	a5,0x2000d
    6710:	a607a623          	sw	zero,-1428(a5) # 20013178 <errno>
    6714:	c606                	sw	ra,12(sp)
    6716:	db1fb0ef          	jal	ra,24c6 <_write>
    671a:	57fd                	li	a5,-1
    671c:	00f51963          	bne	a0,a5,672e <_write_r+0x2e>
    6720:	2000d797          	auipc	a5,0x2000d
    6724:	a5878793          	addi	a5,a5,-1448 # 20013178 <errno>
    6728:	439c                	lw	a5,0(a5)
    672a:	c391                	beqz	a5,672e <_write_r+0x2e>
    672c:	c01c                	sw	a5,0(s0)
    672e:	40b2                	lw	ra,12(sp)
    6730:	4422                	lw	s0,8(sp)
    6732:	0141                	addi	sp,sp,16
    6734:	8082                	ret

00006736 <_close_r>:
    6736:	1141                	addi	sp,sp,-16
    6738:	c422                	sw	s0,8(sp)
    673a:	842a                	mv	s0,a0
    673c:	852e                	mv	a0,a1
    673e:	2000d797          	auipc	a5,0x2000d
    6742:	a207ad23          	sw	zero,-1478(a5) # 20013178 <errno>
    6746:	c606                	sw	ra,12(sp)
    6748:	2c8d                	jal	69ba <_close>
    674a:	57fd                	li	a5,-1
    674c:	00f51963          	bne	a0,a5,675e <_close_r+0x28>
    6750:	2000d797          	auipc	a5,0x2000d
    6754:	a2878793          	addi	a5,a5,-1496 # 20013178 <errno>
    6758:	439c                	lw	a5,0(a5)
    675a:	c391                	beqz	a5,675e <_close_r+0x28>
    675c:	c01c                	sw	a5,0(s0)
    675e:	40b2                	lw	ra,12(sp)
    6760:	4422                	lw	s0,8(sp)
    6762:	0141                	addi	sp,sp,16
    6764:	8082                	ret

00006766 <_fstat_r>:
    6766:	1141                	addi	sp,sp,-16
    6768:	c422                	sw	s0,8(sp)
    676a:	842a                	mv	s0,a0
    676c:	852e                	mv	a0,a1
    676e:	85b2                	mv	a1,a2
    6770:	2000d797          	auipc	a5,0x2000d
    6774:	a007a423          	sw	zero,-1528(a5) # 20013178 <errno>
    6778:	c606                	sw	ra,12(sp)
    677a:	2c81                	jal	69ca <_fstat>
    677c:	57fd                	li	a5,-1
    677e:	00f51963          	bne	a0,a5,6790 <_fstat_r+0x2a>
    6782:	2000d797          	auipc	a5,0x2000d
    6786:	9f678793          	addi	a5,a5,-1546 # 20013178 <errno>
    678a:	439c                	lw	a5,0(a5)
    678c:	c391                	beqz	a5,6790 <_fstat_r+0x2a>
    678e:	c01c                	sw	a5,0(s0)
    6790:	40b2                	lw	ra,12(sp)
    6792:	4422                	lw	s0,8(sp)
    6794:	0141                	addi	sp,sp,16
    6796:	8082                	ret

00006798 <_isatty_r>:
    6798:	1141                	addi	sp,sp,-16
    679a:	c422                	sw	s0,8(sp)
    679c:	842a                	mv	s0,a0
    679e:	852e                	mv	a0,a1
    67a0:	2000d797          	auipc	a5,0x2000d
    67a4:	9c07ac23          	sw	zero,-1576(a5) # 20013178 <errno>
    67a8:	c606                	sw	ra,12(sp)
    67aa:	2c05                	jal	69da <_isatty>
    67ac:	57fd                	li	a5,-1
    67ae:	00f51963          	bne	a0,a5,67c0 <_isatty_r+0x28>
    67b2:	2000d797          	auipc	a5,0x2000d
    67b6:	9c678793          	addi	a5,a5,-1594 # 20013178 <errno>
    67ba:	439c                	lw	a5,0(a5)
    67bc:	c391                	beqz	a5,67c0 <_isatty_r+0x28>
    67be:	c01c                	sw	a5,0(s0)
    67c0:	40b2                	lw	ra,12(sp)
    67c2:	4422                	lw	s0,8(sp)
    67c4:	0141                	addi	sp,sp,16
    67c6:	8082                	ret

000067c8 <_lseek_r>:
    67c8:	1141                	addi	sp,sp,-16
    67ca:	c422                	sw	s0,8(sp)
    67cc:	842a                	mv	s0,a0
    67ce:	852e                	mv	a0,a1
    67d0:	85b2                	mv	a1,a2
    67d2:	8636                	mv	a2,a3
    67d4:	2000d797          	auipc	a5,0x2000d
    67d8:	9a07a223          	sw	zero,-1628(a5) # 20013178 <errno>
    67dc:	c606                	sw	ra,12(sp)
    67de:	2431                	jal	69ea <_lseek>
    67e0:	57fd                	li	a5,-1
    67e2:	00f51963          	bne	a0,a5,67f4 <_lseek_r+0x2c>
    67e6:	2000d797          	auipc	a5,0x2000d
    67ea:	99278793          	addi	a5,a5,-1646 # 20013178 <errno>
    67ee:	439c                	lw	a5,0(a5)
    67f0:	c391                	beqz	a5,67f4 <_lseek_r+0x2c>
    67f2:	c01c                	sw	a5,0(s0)
    67f4:	40b2                	lw	ra,12(sp)
    67f6:	4422                	lw	s0,8(sp)
    67f8:	0141                	addi	sp,sp,16
    67fa:	8082                	ret

000067fc <memchr>:
    67fc:	0ff5f593          	andi	a1,a1,255
    6800:	962a                	add	a2,a2,a0
    6802:	00c51463          	bne	a0,a2,680a <memchr+0xe>
    6806:	4501                	li	a0,0
    6808:	8082                	ret
    680a:	00054783          	lbu	a5,0(a0)
    680e:	feb78de3          	beq	a5,a1,6808 <memchr+0xc>
    6812:	0505                	addi	a0,a0,1
    6814:	b7fd                	j	6802 <memchr+0x6>

00006816 <memcpy>:
    6816:	00a5c7b3          	xor	a5,a1,a0
    681a:	8b8d                	andi	a5,a5,3
    681c:	00c50733          	add	a4,a0,a2
    6820:	e781                	bnez	a5,6828 <memcpy+0x12>
    6822:	478d                	li	a5,3
    6824:	00c7ee63          	bltu	a5,a2,6840 <memcpy+0x2a>
    6828:	87aa                	mv	a5,a0
    682a:	0ae57063          	bgeu	a0,a4,68ca <memcpy+0xb4>
    682e:	0005c683          	lbu	a3,0(a1)
    6832:	0785                	addi	a5,a5,1
    6834:	0585                	addi	a1,a1,1
    6836:	fed78fa3          	sb	a3,-1(a5)
    683a:	fee7eae3          	bltu	a5,a4,682e <memcpy+0x18>
    683e:	8082                	ret
    6840:	00357693          	andi	a3,a0,3
    6844:	87aa                	mv	a5,a0
    6846:	ca91                	beqz	a3,685a <memcpy+0x44>
    6848:	0005c683          	lbu	a3,0(a1)
    684c:	0785                	addi	a5,a5,1
    684e:	0585                	addi	a1,a1,1
    6850:	fed78fa3          	sb	a3,-1(a5)
    6854:	0037f693          	andi	a3,a5,3
    6858:	b7fd                	j	6846 <memcpy+0x30>
    685a:	ffc77693          	andi	a3,a4,-4
    685e:	fe068613          	addi	a2,a3,-32
    6862:	06c7f063          	bgeu	a5,a2,68c2 <memcpy+0xac>
    6866:	0005a383          	lw	t2,0(a1)
    686a:	0045a283          	lw	t0,4(a1)
    686e:	0085af83          	lw	t6,8(a1)
    6872:	00c5af03          	lw	t5,12(a1)
    6876:	0105ae83          	lw	t4,16(a1)
    687a:	0145ae03          	lw	t3,20(a1)
    687e:	0185a303          	lw	t1,24(a1)
    6882:	01c5a883          	lw	a7,28(a1)
    6886:	02458593          	addi	a1,a1,36
    688a:	0077a023          	sw	t2,0(a5)
    688e:	ffc5a803          	lw	a6,-4(a1)
    6892:	0057a223          	sw	t0,4(a5)
    6896:	01f7a423          	sw	t6,8(a5)
    689a:	01e7a623          	sw	t5,12(a5)
    689e:	01d7a823          	sw	t4,16(a5)
    68a2:	01c7aa23          	sw	t3,20(a5)
    68a6:	0067ac23          	sw	t1,24(a5)
    68aa:	0117ae23          	sw	a7,28(a5)
    68ae:	02478793          	addi	a5,a5,36
    68b2:	ff07ae23          	sw	a6,-4(a5)
    68b6:	b775                	j	6862 <memcpy+0x4c>
    68b8:	4190                	lw	a2,0(a1)
    68ba:	0791                	addi	a5,a5,4
    68bc:	0591                	addi	a1,a1,4
    68be:	fec7ae23          	sw	a2,-4(a5)
    68c2:	fed7ebe3          	bltu	a5,a3,68b8 <memcpy+0xa2>
    68c6:	f6e7e4e3          	bltu	a5,a4,682e <memcpy+0x18>
    68ca:	8082                	ret

000068cc <memmove>:
    68cc:	04a5f363          	bgeu	a1,a0,6912 <memmove+0x46>
    68d0:	00c586b3          	add	a3,a1,a2
    68d4:	02d57f63          	bgeu	a0,a3,6912 <memmove+0x46>
    68d8:	fff64593          	not	a1,a2
    68dc:	4781                	li	a5,0
    68de:	17fd                	addi	a5,a5,-1
    68e0:	00f59363          	bne	a1,a5,68e6 <memmove+0x1a>
    68e4:	8082                	ret
    68e6:	00f68733          	add	a4,a3,a5
    68ea:	00074803          	lbu	a6,0(a4) # fffff000 <_eusrstack+0xdffdf000>
    68ee:	00c78733          	add	a4,a5,a2
    68f2:	972a                	add	a4,a4,a0
    68f4:	01070023          	sb	a6,0(a4)
    68f8:	b7dd                	j	68de <memmove+0x12>
    68fa:	00f58733          	add	a4,a1,a5
    68fe:	00074683          	lbu	a3,0(a4)
    6902:	00f50733          	add	a4,a0,a5
    6906:	0785                	addi	a5,a5,1
    6908:	00d70023          	sb	a3,0(a4)
    690c:	fef617e3          	bne	a2,a5,68fa <memmove+0x2e>
    6910:	8082                	ret
    6912:	4781                	li	a5,0
    6914:	bfe5                	j	690c <memmove+0x40>

00006916 <__malloc_lock>:
    6916:	8082                	ret

00006918 <__malloc_unlock>:
    6918:	8082                	ret

0000691a <_realloc_r>:
    691a:	e581                	bnez	a1,6922 <_realloc_r+0x8>
    691c:	85b2                	mv	a1,a2
    691e:	9f4ff06f          	j	5b12 <_malloc_r>
    6922:	1101                	addi	sp,sp,-32
    6924:	cc22                	sw	s0,24(sp)
    6926:	ce06                	sw	ra,28(sp)
    6928:	ca26                	sw	s1,20(sp)
    692a:	c84a                	sw	s2,16(sp)
    692c:	c64e                	sw	s3,12(sp)
    692e:	8432                	mv	s0,a2
    6930:	ee01                	bnez	a2,6948 <_realloc_r+0x2e>
    6932:	938ff0ef          	jal	ra,5a6a <_free_r>
    6936:	4901                	li	s2,0
    6938:	40f2                	lw	ra,28(sp)
    693a:	4462                	lw	s0,24(sp)
    693c:	854a                	mv	a0,s2
    693e:	44d2                	lw	s1,20(sp)
    6940:	4942                	lw	s2,16(sp)
    6942:	49b2                	lw	s3,12(sp)
    6944:	6105                	addi	sp,sp,32
    6946:	8082                	ret
    6948:	84ae                	mv	s1,a1
    694a:	89aa                	mv	s3,a0
    694c:	28a9                	jal	69a6 <_malloc_usable_size_r>
    694e:	8926                	mv	s2,s1
    6950:	fe8574e3          	bgeu	a0,s0,6938 <_realloc_r+0x1e>
    6954:	85a2                	mv	a1,s0
    6956:	854e                	mv	a0,s3
    6958:	9baff0ef          	jal	ra,5b12 <_malloc_r>
    695c:	892a                	mv	s2,a0
    695e:	dd69                	beqz	a0,6938 <_realloc_r+0x1e>
    6960:	85a6                	mv	a1,s1
    6962:	8622                	mv	a2,s0
    6964:	eb3ff0ef          	jal	ra,6816 <memcpy>
    6968:	85a6                	mv	a1,s1
    696a:	854e                	mv	a0,s3
    696c:	8feff0ef          	jal	ra,5a6a <_free_r>
    6970:	b7e1                	j	6938 <_realloc_r+0x1e>

00006972 <_read_r>:
    6972:	1141                	addi	sp,sp,-16
    6974:	c422                	sw	s0,8(sp)
    6976:	842a                	mv	s0,a0
    6978:	852e                	mv	a0,a1
    697a:	85b2                	mv	a1,a2
    697c:	8636                	mv	a2,a3
    697e:	2000c797          	auipc	a5,0x2000c
    6982:	7e07ad23          	sw	zero,2042(a5) # 20013178 <errno>
    6986:	c606                	sw	ra,12(sp)
    6988:	288d                	jal	69fa <_read>
    698a:	57fd                	li	a5,-1
    698c:	00f51963          	bne	a0,a5,699e <_read_r+0x2c>
    6990:	2000c797          	auipc	a5,0x2000c
    6994:	7e878793          	addi	a5,a5,2024 # 20013178 <errno>
    6998:	439c                	lw	a5,0(a5)
    699a:	c391                	beqz	a5,699e <_read_r+0x2c>
    699c:	c01c                	sw	a5,0(s0)
    699e:	40b2                	lw	ra,12(sp)
    69a0:	4422                	lw	s0,8(sp)
    69a2:	0141                	addi	sp,sp,16
    69a4:	8082                	ret

000069a6 <_malloc_usable_size_r>:
    69a6:	ffc5a783          	lw	a5,-4(a1)
    69aa:	ffc78513          	addi	a0,a5,-4
    69ae:	0007d563          	bgez	a5,69b8 <_malloc_usable_size_r+0x12>
    69b2:	95aa                	add	a1,a1,a0
    69b4:	419c                	lw	a5,0(a1)
    69b6:	953e                	add	a0,a0,a5
    69b8:	8082                	ret

000069ba <_close>:
    69ba:	05800793          	li	a5,88
    69be:	2000c717          	auipc	a4,0x2000c
    69c2:	7af72d23          	sw	a5,1978(a4) # 20013178 <errno>
    69c6:	557d                	li	a0,-1
    69c8:	8082                	ret

000069ca <_fstat>:
    69ca:	05800793          	li	a5,88
    69ce:	2000c717          	auipc	a4,0x2000c
    69d2:	7af72523          	sw	a5,1962(a4) # 20013178 <errno>
    69d6:	557d                	li	a0,-1
    69d8:	8082                	ret

000069da <_isatty>:
    69da:	05800793          	li	a5,88
    69de:	2000c717          	auipc	a4,0x2000c
    69e2:	78f72d23          	sw	a5,1946(a4) # 20013178 <errno>
    69e6:	4501                	li	a0,0
    69e8:	8082                	ret

000069ea <_lseek>:
    69ea:	05800793          	li	a5,88
    69ee:	2000c717          	auipc	a4,0x2000c
    69f2:	78f72523          	sw	a5,1930(a4) # 20013178 <errno>
    69f6:	557d                	li	a0,-1
    69f8:	8082                	ret

000069fa <_read>:
    69fa:	05800793          	li	a5,88
    69fe:	2000c717          	auipc	a4,0x2000c
    6a02:	76f72d23          	sw	a5,1914(a4) # 20013178 <errno>
    6a06:	557d                	li	a0,-1
    6a08:	8082                	ret
    6a0a:	0000                	unimp
    6a0c:	6e69                	lui	t3,0x1a
    6a0e:	7469                	lui	s0,0xffffa
    6a10:	6520                	flw	fs0,72(a0)
    6a12:	38333873          	csrrc	a6,mibound,t1
    6a16:	0d38                	addi	a4,sp,664
    6a18:	0000                	unimp
	...

00006a1c <asc2_1608>:
	...
    6a2c:	0000 1000 1010 1010 0010 1000 0010 0000     ................
    6a3c:	0000 2800 2828 0028 0000 0000 0000 0000     ...((((.........
    6a4c:	0000 1200 1612 247f fe24 4828 0048 0000     .......$$.(HH...
    6a5c:	0000 0808 493e 6848 0b3e 4909 083e 0008     ....>IHh>..I>...
    6a6c:	0000 6000 9090 0c62 4630 0909 0006 0000     ...`..b.0F......
    6a7c:	0000 1c00 2020 3030 4549 6245 003d 0000     ....  00IEEb=...
    6a8c:	0000 1000 1010 0010 0000 0000 0000 0000     ................
    6a9c:	0000 080c 1008 1010 1010 0810 0408 0000     ................
    6aac:	0000 1030 0810 0808 0808 1008 3010 0000     ..0..........0..
    6abc:	0000 0800 3e49 6b1c 0008 0000 0000 0000     ....I>.k........
    6acc:	0000 0000 1000 1010 10fe 1010 0000 0000     ................
	...
    6ae4:	0000 1800 1018 0020 0000 0000 0000 0000     ...... .........
    6af4:	3800 0000 0000 0000 0000 0000 0000 0000     .8..............
    6b04:	0000 1800 0018 0000 0000 0200 0404 0804     ................
    6b14:	1008 2010 2020 0040 0000 1c00 4122 4941     ...   @....."AAI
    6b24:	4141 2241 001c 0000 0000 1800 0828 0808     AAA"........(...
    6b34:	0808 0808 003e 0000 0000 3e00 0143 0201     ....>......>C...
    6b44:	0c06 2010 007f 0000 0000 3e00 0141 1c03     ... .......>A...
    6b54:	0103 4301 003e 0000 0000 0600 1a0a 2212     ...C>.........."
    6b64:	7f42 0202 0002 0000 0000 7e00 4040 427c     B..........~@@|B
    6b74:	0101 4201 003c 0000 0000 1e00 6031 5e40     ...B<.......1`@^
    6b84:	4163 2341 001e 0000 0000 7f00 0203 0404     cAA#............
    6b94:	0808 1010 0020 0000 0000 3e00 4141 3e41     .... ......>AAA>
    6ba4:	4163 6341 003e 0000 0000 3c00 4162 6341     cAAc>......<bAAc
    6bb4:	013d 4603 003c 0000 0000 0000 0000 1818     =..F<...........
    6bc4:	0000 1800 0018 0000 0000 0000 0000 1818     ................
    6bd4:	0000 1800 1018 0020 0000 0000 0100 380e     ...... ........8
    6be4:	3840 010e 0000 0000 0000 0000 0000 007f     @8..............
    6bf4:	7f00 0000 0000 0000 0000 0000 4000 0e38     .............@8.
    6c04:	0e01 4038 0000 0000 0000 3800 0444 180c     ..8@.......8D...
    6c14:	1010 1000 0010 0000 0000 1e00 2133 4947     ............3!GI
    6c24:	4949 4749 3020 000e 0000 0800 1414 1414     IIIG 0..........
    6c34:	3e22 4122 0041 0000 0000 7e00 4141 7e41     ">"AA......~AAA~
    6c44:	4143 4341 007e 0000 0000 1e00 4021 4040     CAAC~.......!@@@
    6c54:	4040 2140 001e 0000 0000 7c00 4142 4141     @@@!.......|BAAA
    6c64:	4141 4241 007c 0000 0000 7f00 4040 7f40     AAAB|.......@@@.
    6c74:	4040 4040 007f 0000 0000 7f00 4040 7f40     @@@@........@@@.
    6c84:	4040 4040 0040 0000 0000 1e00 4021 4040     @@@@@.......!@@@
    6c94:	4143 2141 001e 0000 0000 4100 4141 7f41     CAA!.......AAAA.
    6ca4:	4141 4141 0041 0000 0000 7c00 1010 1010     AAAAA......|....
    6cb4:	1010 1010 007c 0000 0000 1c00 0404 0404     ....|...........
    6cc4:	0404 4404 0038 0000 0000 4200 4844 7050     ...D8......BDHPp
    6cd4:	4878 4644 0042 0000 0000 4000 4040 4040     xHDFB......@@@@@
    6ce4:	4040 4040 007f 0000 0000 6300 5563 5555     @@@@.......ccUUU
    6cf4:	4149 4141 0041 0000 0000 6100 5161 4951     IAAAA......aaQQI
    6d04:	4549 4345 0043 0000 0000 1c00 4122 4141     IEECC......."AAA
    6d14:	4141 2241 001c 0000 0000 7e00 4143 4341     AAA".......~CAAC
    6d24:	407e 4040 0040 0000 0000 1c00 4122 4141     ~@@@@......."AAA
    6d34:	4141 2241 061e 0002 0000 7e00 4143 4341     AAA".......~CAAC
    6d44:	427c 4141 0040 0000 0000 1e00 4061 3040     |BAA@.......a@@0
    6d54:	010e 4301 003e 0000 0000 fe00 1010 1010     ...C>...........
    6d64:	1010 1010 0010 0000 0000 4100 4141 4141     ...........AAAAA
    6d74:	4141 6341 003e 0000 0000 4100 2241 2222     AAAc>......AA"""
    6d84:	1414 1414 0008 0000 0000 8100 8181 5a5a     ..............ZZ
    6d94:	665a 6666 0066 0000 0000 4100 1422 0814     Zffff......A"...
    6da4:	1414 2222 0041 0000 0000 8200 4444 3828     ..""A.......DD(8
    6db4:	1010 1010 0010 0000 0000 7f00 0203 0804     ................
    6dc4:	1008 6020 007f 0000 0000 101c 1010 1010     .. `............
    6dd4:	1010 1010 1c10 0000 0000 4000 2020 1020     ...........@   .
    6de4:	0810 0408 0404 0002 0000 0838 0808 0808     ..........8.....
    6df4:	0808 0808 3808 0000 0000 1000 4428 00c6     .....8......(D..
	...
    6e18:	0000 ff00 3000 0810 0000 0000 0000 0000     .....0..........
	...
    6e30:	1c00 0222 423e 4642 003a 0000 0000 4040     ..".>BBF:.....@@
    6e40:	7c40 4264 4242 6442 005c 0000 0000 0000     @|dBBBBd\.......
    6e50:	1c00 4022 4040 2240 001c 0000 0000 0202     .."@@@@"........
    6e60:	3e02 4226 4242 2642 003a 0000 0000 0000     .>&BBBB&:.......
    6e70:	3c00 4226 407e 2240 001c 0000 0000 100c     .<&B~@@"........
    6e80:	7c10 1010 1010 1010 0010 0000 0000 0000     .|..............
    6e90:	3a00 4226 4242 2642 023a 1c22 0000 4040     .:&BBBB&:."...@@
    6ea0:	5c40 4262 4242 4242 0042 0000 0000 1010     @\bBBBBBB.......
    6eb0:	7000 1010 1010 1010 007c 0000 0000 0808     .p......|.......
    6ec0:	3800 0808 0808 0808 0808 7008 0000 4040     .8.........p..@@
    6ed0:	4440 5048 4870 4448 0042 0000 0000 1070     @DHPpHHDB.....p.
    6ee0:	1010 1010 1010 1010 000e 0000 0000 0000     ................
    6ef0:	7e00 4949 4949 4949 0049 0000 0000 0000     .~IIIIIII.......
    6f00:	5c00 4262 4242 4242 0042 0000 0000 0000     .\bBBBBBB.......
    6f10:	3c00 4266 4242 6642 003c 0000 0000 0000     .<fBBBBf<.......
    6f20:	5c00 4264 4242 6442 407c 4040 0000 0000     .\dBBBBd|@@@....
    6f30:	3a00 4226 4242 2642 023a 0202 0000 0000     .:&BBBB&:.......
    6f40:	3c00 2032 2020 2020 0020 0000 0000 0000     .<2      .......
    6f50:	3c00 4042 0e70 4202 003c 0000 0000 1000     .<B@p..B<.......
    6f60:	7e10 1010 1010 1010 000e 0000 0000 0000     .~..............
    6f70:	4200 4242 4242 4642 003a 0000 0000 0000     .BBBBBBF:.......
    6f80:	4200 2442 2424 1818 0018 0000 0000 0000     .BB$$$..........
    6f90:	8100 5a81 5a5a 245a 0024 0000 0000 0000     ...ZZZZ$$.......
    6fa0:	4200 1824 1818 2424 0042 0000 0000 0000     .B$...$$B.......
    6fb0:	4200 2422 1424 1818 0808 3010 0000 0000     .B"$$......0....
    6fc0:	7e00 0402 1008 4020 007e 0000 0000 100c     .~.... @~.......
    6fd0:	1010 1010 1060 1010 1010 000c 0000 1010     ....`...........
    6fe0:	1010 1010 1010 1010 1010 1010 0000 1060     ..............`.
    6ff0:	1010 1010 100c 1010 1010 0060               ..........`.

00006ffc <asc2_2412>:
	...
    7034:	0006 0006 0006 0006 0006 0006 0006 0006     ................
    7044:	0006 0006 0000 0000 0006 0006 0006 0000     ................
	...
    7064:	8019 8019 8019 8019 8019 8019 0000 0000     ................
	...
    7094:	6006 4004 c00c c00c f07f f07f 8008 8019     .`.@............
    70a4:	8019 e0ff e0ff 0033 0033 0022 0022 0000     ......3.3."."...
	...
    70c0:	0000 0002 0002 800f c01f 403a 0032 0032     ..........:@2.2.
    70d0:	003a 001f c007 e002 6002 6002 e022 c03f     :........`.`".?.
    70e0:	801f 0002 0002 0002 0000 0000 0000 0000     ................
    70f0:	0000 0000 0078 0048 00cc 00cc 00cc 4048     ....x.H.......H@
    7100:	c079 000e c073 4002 6006 6006 6006 4002     y...s..@.`.`.`.@
    7110:	c003 0000 0000 0000 0000 0000 0000 0000     ................
    7120:	0000 0000 800f 801f 0018 0018 0018 000c     ................
    7130:	001e 3036 3063 b063 a061 e060 c030 603f     ..60c0c.a.`.0.?`
    7140:	700e 0000 0000 0000 0000 0000 0000 0000     .p..............
    7150:	0000 0000 0006 0006 0006 0006 0006 0006     ................
	...
    7180:	0000 0001 0002 0002 0006 0006 0004 000c     ................
    7190:	000c 000c 000c 000c 000c 000c 0004 0006     ................
    71a0:	0006 0002 0002 0001 0000 0000 0000 0000     ................
    71b0:	0000 0008 0004 0004 0006 0006 0002 0003     ................
    71c0:	0003 0003 0003 0003 0003 0003 0002 0006     ................
    71d0:	0006 0004 0004 0008 0000 0000 0000 0000     ................
    71e0:	0000 0000 0004 0004 4044 8035 000e 000e     ........D@5.....
    71f0:	8035 4044 0004 0004 0000 0000 0000 0000     5.D@............
	...
    7218:	0006 0006 0006 0006 0006 e07f e07f 0006     ................
    7228:	0006 0006 0006 0006 0000 0000 0000 0000     ................
	...
    725c:	0006 0006 0006 0006 000c 000c 0000 0000     ................
	...
    7284:	001f 001f 0000 0000 0000 0000 0000 0000     ................
	...
    72bc:	0006 0006 0006 0000 0000 0000 0000 0000     ................
	...
    72d4:	6000 c000 c000 8001 8001 0003 0003 0006     .`..............
    72e4:	0006 0006 000c 000c 0018 0018 0030 0030     ............0.0.
    72f4:	0060 0000 0000 0000 0000 0000 0000 0000     `...............
    7304:	001e 803f 8031 c071 c060 c060 c066 c066     ..?.1.q.`.`.f.f.
    7314:	c060 c060 c060 c071 8031 803f 000e 0000     `.`.`.q.1.?.....
	...
    7334:	0007 001f 001b 0003 0003 0003 0003 0003     ................
    7344:	0003 0003 0003 0003 0003 e01f e01f 0000     ................
	...
    7364:	003f 807f c041 c000 c000 c000 c001 8001     ?...A...........
    7374:	0003 0006 000c 0018 0030 c07f c07f 0000     ........0.......
	...
    7394:	003f 807f c041 c000 c000 c001 800f 800f     ?...A...........
    73a4:	8001 c000 c000 c000 c041 807f 003f 0000     ........A...?...
	...
    73c4:	8003 8003 8007 8005 800d 8009 8019 8031     ..............1.
    73d4:	8031 8061 e07f e07f 8001 8001 8001 0000     1.a.............
	...
    73f4:	803f 803f 0030 0030 0030 003f 803f c021     ?.?.0.0.0.?.?.!.
    7404:	c000 c000 c000 c000 8041 807f 003e 0000     ........A...>...
	...
    7424:	000f 801f 8038 0030 0070 0060 006f 807f     ....8.0.p.`.o...
    7434:	c071 c060 c060 c060 c031 803f 001f 0000     q.`.`.`.1.?.....
	...
    7454:	c07f c07f 8001 8001 8001 0003 0003 0003     ................
    7464:	0006 0006 0006 000c 000c 000c 0018 0000     ................
	...
    7484:	001f 803f c071 c060 c060 8031 001f 803f     ..?.q.`.`.1...?.
    7494:	8031 c060 c060 c060 c071 803f 001f 0000     1.`.`.`.q.?.....
	...
    74b4:	001f 803f 8071 c060 c060 c060 c071 c03f     ..?.q.`.`.`.q.?.
    74c4:	c01e c000 c000 8001 8023 003f 001e 0000     ........#.?.....
	...
    74ec:	0006 0006 0006 0000 0000 0000 0000 0000     ................
    74fc:	0006 0006 0006 0000 0000 0000 0000 0000     ................
	...
    751c:	0006 0006 0006 0000 0000 0000 0000 0000     ................
    752c:	0006 0006 0006 0006 000c 000c 0000 0000     ................
	...
    7548:	0000 2000 e001 8007 001e 0070 0070 001e     ... ......p.p...
    7558:	8007 e001 2000 0000 0000 0000 0000 0000     ..... ..........
	...
    7580:	e07f e07f 0000 0000 e07f e07f 0000 0000     ................
	...
    75a8:	0000 0040 0078 001e 8007 e000 e000 8007     ..@.x...........
    75b8:	001e 0078 0040 0000 0000 0000 0000 0000     ..x.@...........
	...
    75d4:	800f c01f 6010 6000 e000 c001 8003 0006     .....`.`........
    75e4:	0006 0006 0000 0000 0006 0006 0006 0000     ................
	...
    7604:	0000 8007 c018 6030 6030 e023 6062 6066     ......0`0`#.b`f`
    7614:	6066 6066 6066 6066 6062 e033 0030 0018     f`f`f`f`b`3.0...
    7624:	001c 8007 0000 0000 0000 0000 0000 0000     ................
    7634:	0006 0006 000f 000f 000f 801f 8019 8019     ................
    7644:	8019 c03f c03f c030 c030 6060 6060 0000     ..?.?.0.0.````..
	...
    7664:	007f 807f c061 c060 c060 c061 807f 807f     ....a.`.`.a.....
    7674:	c060 6060 6060 6060 e060 c07f 807f 0000     `.```````.......
	...
    7694:	c007 e01f 2038 0030 0060 0060 0060 0060     ....8 0.`.`.`.`.
    76a4:	0060 0060 0060 0030 2038 e01f c007 0000     `.`.`.0.8 ......
	...
    76c4:	007e 807f c061 c060 6060 6060 6060 6060     ~...a.`.````````
    76d4:	6060 6060 6060 c060 c061 807f 007e 0000     ```````.a...~...
	...
    76f4:	e07f e07f 0060 0060 0060 0060 e07f e07f     ....`.`.`.`.....
    7704:	0060 0060 0060 0060 0060 e07f e07f 0000     `.`.`.`.`.......
	...
    7724:	e07f e07f 0060 0060 0060 0060 c07f c07f     ....`.`.`.`.....
    7734:	0060 0060 0060 0060 0060 0060 0060 0000     `.`.`.`.`.`.`...
	...
    7754:	800f c01f 4038 0030 0060 0060 0060 e061     ....8@0.`.`.`.a.
    7764:	e061 6060 6060 6030 6038 e01f 800f 0000     a.````0`8`......
	...
    7784:	6060 6060 6060 6060 6060 6060 e07f e07f     ````````````....
    7794:	6060 6060 6060 6060 6060 6060 6060 0000     ``````````````..
	...
    77b4:	c03f c03f 0006 0006 0006 0006 0006 0006     ?.?.............
    77c4:	0006 0006 0006 0006 0006 c03f c03f 0000     ..........?.?...
	...
    77e4:	801f 801f 8001 8001 8001 8001 8001 8001     ................
    77f4:	8001 8001 8001 8001 8043 007f 003e 0000     ........C...>...
	...
    7814:	6060 c060 8061 0063 0066 006c 007c 007e     ```.a.c.f.l.|.~.
    7824:	0076 0063 8063 8061 c060 e060 6060 0000     v.c.c.a.`.`.``..
	...
    7844:	0060 0060 0060 0060 0060 0060 0060 0060     `.`.`.`.`.`.`.`.
    7854:	0060 0060 0060 0060 0060 e07f e07f 0000     `.`.`.`.`.......
	...
    7874:	e070 e070 e070 e079 6069 6069 606f 6066     p.p.p.y.i`i`o`f`
    7884:	6066 6066 6060 6060 6060 6060 6060 0000     f`f```````````..
	...
    78a4:	6070 6070 6078 6078 606c 606c 6064 6066     p`p`x`x`l`l`d`f`
    78b4:	6062 6063 6063 e061 e061 e060 e060 0000     b`c`c`a.a.`.`...
	...
    78d4:	000f c03f c030 e070 6060 6060 6060 6060     ..?.0.p.````````
    78e4:	6060 6060 6060 e070 c030 c03f 000f 0000     ``````p.0.?.....
	...
    7904:	807f c07f e060 6060 6060 6060 e060 c07f     ....`.```````...
    7914:	807f 0060 0060 0060 0060 0060 0060 0000     ..`.`.`.`.`.`...
	...
    7934:	000f c03f c030 e070 6060 6060 6060 6060     ..?.0.p.````````
    7944:	6060 6060 6060 e070 c030 801f 000f 8001     ``````p.0.......
    7954:	c000 8000 0000 0000 0000 0000 0000 0000     ................
    7964:	007f c07f e060 6060 6060 6060 c060 c07f     ....`.```````...
    7974:	807f c061 c060 6060 6060 3060 3060 0000     ..a.`.`````0`0..
	...
    7994:	801f c03f 4070 0060 0060 0070 003e 801f     ..?.p@`.`.p.>...
    79a4:	c001 6000 6000 6000 e040 c07f 803f 0000     ...`.`.`@...?...
	...
    79c4:	f0ff f0ff 0006 0006 0006 0006 0006 0006     ................
    79d4:	0006 0006 0006 0006 0006 0006 0006 0000     ................
	...
    79f4:	6060 6060 6060 6060 6060 6060 6060 6060     ````````````````
    7a04:	6060 6060 6060 6060 e070 c03f 801f 0000     ````````p.?.....
	...
    7a24:	6060 6060 c030 c030 c030 c030 8019 8019     ````0.0.0.0.....
    7a34:	8019 801f 000f 000f 000f 0006 0006 0000     ................
	...
    7a54:	30c0 30c0 30c0 6060 6066 6066 606f 606f     .0.0.0``f`f`o`o`
    7a64:	6069 6069 c039 c039 c039 c030 c030 0000     i`i`9.9.9.0.0...
	...
    7a84:	e070 c030 c039 8019 000f 000f 0006 0006     p.0.9...........
    7a94:	000f 000f 801b 8019 c031 c030 e060 0000     ........1.0.`...
	...
    7ab4:	70e0 6060 c030 c030 8019 801f 000f 0006     .p``0.0.........
    7ac4:	0006 0006 0006 0006 0006 0006 0006 0000     ................
	...
    7ae4:	e07f e07f c000 c001 8001 0003 0007 0006     ................
    7af4:	000e 000c 0018 0038 0030 e07f e07f 0000     ......8.0.......
	...
    7b10:	0000 8007 8007 0006 0006 0006 0006 0006     ................
    7b20:	0006 0006 0006 0006 0006 0006 0006 0006     ................
    7b30:	0006 0006 8007 8007 0000 0000 0000 0000     ................
    7b40:	0000 0000 0060 0030 0030 0018 0018 000c     ....`.0.0.......
    7b50:	000c 0006 0006 0006 0003 0003 8001 8001     ................
    7b60:	c000 c000 6000 0000 0000 0000 0000 0000     .....`..........
    7b70:	0000 000f 000f 0003 0003 0003 0003 0003     ................
    7b80:	0003 0003 0003 0003 0003 0003 0003 0003     ................
    7b90:	0003 0003 000f 000f 0000 0000 0000 0000     ................
    7ba0:	0000 0000 0007 800f 800d c018 6030 3060     ............0``0
	...
    7bf8:	f0ff f0ff 0000 0000 0018 000c 0006 0003     ................
	...
    7c3c:	001f 803f c021 c000 c01f c03f c070 c060     ..?.!.....?.p.`.
    7c4c:	c061 c07f c01c 0000 0000 0000 0000 0000     a...............
    7c5c:	0000 0000 0000 0060 0060 0060 0060 0060     ......`.`.`.`.`.
    7c6c:	006f 807f 8071 c060 c060 c060 c060 c060     o...q.`.`.`.`.`.
    7c7c:	8071 807f 006f 0000 0000 0000 0000 0000     q...o...........
	...
    7c9c:	000f 803f 8030 0060 0060 0060 0060 0060     ..?.0.`.`.`.`.`.
    7cac:	8030 803f 000f 0000 0000 0000 0000 0000     0.?.............
    7cbc:	0000 0000 0000 c000 c000 c000 c000 c000     ................
    7ccc:	c01e c03f c031 c060 c060 c060 c060 c060     ..?.1.`.`.`.`.`.
    7cdc:	c031 c03f c01e 0000 0000 0000 0000 0000     1.?.............
	...
    7cfc:	000f 803f c031 c060 c07f c07f 0060 0060     ..?.1.`.....`.`.
    7d0c:	4030 c03f 800f 0000 0000 0000 0000 0000     0@?.............
    7d1c:	0000 0000 0000 e001 e003 0006 0006 0006     ................
    7d2c:	e03f e03f 0006 0006 0006 0006 0006 0006     ?.?.............
    7d3c:	0006 0006 0006 0000 0000 0000 0000 0000     ................
	...
    7d5c:	c01e c03f c031 c060 c060 c060 c060 c060     ..?.1.`.`.`.`.`.
    7d6c:	c031 c03f c01e c000 c021 803f 001f 0000     1.?.....!.?.....
    7d7c:	0000 0000 0000 0060 0060 0060 0060 0060     ......`.`.`.`.`.
    7d8c:	0067 807f c071 c060 c060 c060 c060 c060     g...q.`.`.`.`.`.
    7d9c:	c060 c060 c060 0000 0000 0000 0000 0000     `.`.`...........
    7dac:	0000 0000 0000 0006 0006 0000 0000 0000     ................
    7dbc:	003e 003e 0006 0006 0006 0006 0006 0006     >.>.............
    7dcc:	0006 e07f e07f 0000 0000 0000 0000 0000     ................
    7ddc:	0000 0000 0000 0003 0003 0000 0000 0000     ................
    7dec:	001f 001f 0003 0003 0003 0003 0003 0003     ................
    7dfc:	0003 0003 0003 0003 0003 003e 003c 0000     ..........>.<...
    7e0c:	0000 0000 0000 0060 0060 0060 0060 0060     ......`.`.`.`.`.
    7e1c:	c061 8063 0067 006e 007c 007c 0076 0067     a.c.g.n.|.|.v.g.
    7e2c:	0063 8061 c061 0000 0000 0000 0000 0000     c.a.a...........
    7e3c:	0000 0000 0000 00fc 00fc 000c 000c 000c     ................
    7e4c:	000c 000c 000c 000c 000c 000c 000c 000c     ................
    7e5c:	000e c007 c003 0000 0000 0000 0000 0000     ................
	...
    7e7c:	c06d e07f 6066 6066 6066 6066 6066 6066     m...f`f`f`f`f`f`
    7e8c:	6066 6066 6066 0000 0000 0000 0000 0000     f`f`f`..........
	...
    7eac:	0067 807f c071 c060 c060 c060 c060 c060     g...q.`.`.`.`.`.
    7ebc:	c060 c060 c060 0000 0000 0000 0000 0000     `.`.`...........
	...
    7edc:	001f 803f 8031 c060 c060 c060 c060 c060     ..?.1.`.`.`.`.`.
    7eec:	8031 803f 001f 0000 0000 0000 0000 0000     1.?.............
	...
    7f0c:	006f 807f 8071 c060 c060 c060 c060 c060     o...q.`.`.`.`.`.
    7f1c:	8071 807f 006f 0060 0060 0060 0060 0000     q...o.`.`.`.`...
	...
    7f3c:	c01e c03f c031 c060 c060 c060 c060 c060     ..?.1.`.`.`.`.`.
    7f4c:	c031 c03f c01e c000 c000 c000 c000 0000     1.?.............
	...
    7f6c:	e00c f00d 100f 000e 000c 000c 000c 000c     ................
    7f7c:	000c 000c 000c 0000 0000 0000 0000 0000     ................
	...
    7f9c:	801f c03f 4060 0060 007f 801f c001 c000     ..?.`@`.........
    7fac:	c041 807f 003f 0000 0000 0000 0000 0000     A...?...........
	...
    7fc4:	0000 000c 000c 000c c07f c07f 000c 000c     ................
    7fd4:	000c 000c 000c 000c 000c c00f c007 0000     ................
	...
    7ffc:	c060 c060 c060 c060 c060 c060 c060 c060     `.`.`.`.`.`.`.`.
    800c:	c071 c03f c01c 0000 0000 0000 0000 0000     q.?.............
	...
    802c:	c060 c071 8031 8031 803b 001b 001b 001b     `.q.1.1.;.......
    803c:	000e 000e 000e 0000 0000 0000 0000 0000     ................
	...
    805c:	30c0 30c0 6060 6066 6066 6066 c03f c039     .0.0``f`f`f`?.9.
    806c:	c039 c039 c030 0000 0000 0000 0000 0000     9.9.0...........
	...
    808c:	c071 8031 001b 001f 000e 000e 000e 001f     q.1.............
    809c:	001b 8031 c071 0000 0000 0000 0000 0000     ..1.q...........
	...
    80bc:	c060 8031 8031 8031 001b 001b 001f 000e     `.1.1.1.........
    80cc:	000e 0006 000c 000c 000c 0038 0038 0000     ..........8.8...
	...
    80ec:	c07f c07f 8003 0003 0007 000e 001c 0018     ................
    80fc:	0030 c07f c07f 0000 0000 0000 0000 0000     0...............
    810c:	0000 0000 0000 c003 c007 0006 0006 0006     ................
    811c:	0006 0006 0006 003c 003c 000e 0006 0006     ......<.<.......
    812c:	0006 0006 0006 0006 c007 c003 0000 0000     ................
    813c:	0000 0000 0000 0006 0006 0006 0006 0006     ................
    814c:	0006 0006 0006 0006 0006 0006 0006 0006     ................
    815c:	0006 0006 0006 0006 0006 0006 0006 0006     ................
    816c:	0000 0000 0000 003c 003e 0006 0006 0006     ......<.>.......
    817c:	0006 0006 0006 c003 c003 0007 0006 0006     ................
    818c:	0006 0006 0006 0006 003e 003c 0000 0000     ........>.<.....

0000819c <asc2_3216>:
	...
    81e8:	c001 c001 c001 c001 c001 c001 c001 c001     ................
    81f8:	c001 c001 c001 c001 c001 c001 0000 0000     ................
    8208:	0000 c001 c001 c001 0000 0000 0000 0000     ................
	...
    8228:	3006 3006 3006 3006 3006 3006 3006 3006     .0.0.0.0.0.0.0.0
	...
    8264:	0000 8c01 8c03 0c03 1803 1803 1803 ff7f     ................
    8274:	ff7f 3006 3006 300e 700c 600c feff feff     ...0.0.0.p.`....
    8284:	6018 c018 c018 c018 c030 8031 0000 0000     .`......0.1.....
	...
    82a4:	0000 8000 8000 8000 f003 fc0f 8c0e 801c     ................
    82b4:	801c 801c 801c 800e e00f f803 fc00 9e00     ................
    82c4:	8e00 8e00 8e00 9c10 f81f f007 8000 8000     ................
    82d4:	8000 8000 0000 0000 0000 0000 0000 0000     ................
    82e4:	0000 0000 003c 007e 00e7 00c3 00c3 00c3     ....<.~.........
    82f4:	00e7 1c7e 783c c001 0007 783c fc70 ce01     ..~.<x....<xp...
    8304:	8601 8601 8601 ce01 fc00 7800 0000 0000     ...........x....
	...
    8328:	c007 e00f 201e 001c 001c 001c 001e 000e     ..... ..........
    8338:	000f 001f 833f c333 e371 e370 f670 7e70     ....?.3.q.p.p.p~
    8348:	3c78 3e3c ee1f cf07 0000 0000 0000 0000     x<<>............
	...
    8368:	8001 8001 8001 8001 8001 8001 8001 8001     ................
	...
    83a4:	0000 3000 6000 6000 e000 c000 c001 c001     ...0.`.`........
    83b4:	8001 8003 8003 8003 8003 8003 8003 8003     ................
    83c4:	8003 8003 8001 c001 c001 c000 e000 6000     ...............`
    83d4:	6000 3000 0000 0000 0000 0000 0000 0000     .`.0............
    83e4:	0000 0006 0003 0003 8003 8001 c001 c001     ................
    83f4:	c000 e000 e000 e000 e000 e000 e000 e000     ................
    8404:	e000 e000 c000 c001 c001 8001 8003 0003     ................
    8414:	0003 0006 0000 0000 0000 0000 0000 0000     ................
    8424:	0000 0000 8001 8001 8421 9c39 f00f c003     ........!.9.....
    8434:	c003 f00f 9c39 8421 8001 8001 0000 0000     ....9.!.........
	...
    8470:	8001 8001 8001 8001 8001 8001 fe7f fe7f     ................
    8480:	8001 8001 8001 8001 8001 8001 0000 0000     ................
	...
    84c8:	c001 c001 c001 c001 8001 8003 8003 0003     ................
	...
    84fc:	0000 f007 f007 0000 0000 0000 0000 0000     ................
	...
    8548:	8003 8003 8003 8003 0000 0000 0000 0000     ................
	...
    8568:	1c00 3800 3800 7000 7000 7000 e000 e000     ...8.8.p.p.p....
    8578:	c001 c001 8003 8003 8003 0007 0007 000e     ................
    8588:	000e 001c 001c 001c 0038 0038 0070 0000     ........8.8.p...
	...
    85a8:	e003 f80f 380e 1c1c 1c1c 0e38 0e38 0e38     .....8....8.8.8.
    85b8:	ce39 ce39 ce39 0e38 0e38 0e38 0e38 1c1c     9.9.9.8.8.8.8...
    85c8:	1c1c 380e f80f e003 0000 0000 0000 0000     ...8............
	...
    85e8:	e003 e00f e00c e000 e000 e000 e000 e000     ................
    85f8:	e000 e000 e000 e000 e000 e000 e000 e000     ................
    8608:	e000 e000 fe0f fe0f 0000 0000 0000 0000     ................
	...
    8628:	e00f f83f 3c38 1e20 0e00 0e00 0e00 0e00     ..?.8< .........
    8638:	1e00 3c00 7c00 f800 f000 e001 c003 0007     ...<.|..........
    8648:	000e 001c fe3f fe3f 0000 0000 0000 0000     ....?.?.........
	...
    8668:	f007 f81f 1c18 0e00 0e00 0e00 0e00 3c00     ...............<
    8678:	f007 f007 3c00 1c00 0e00 0e00 0e00 0e00     .....<..........
    8688:	1e00 3c30 f83f e00f 0000 0000 0000 0000     ..0<?...........
	...
    86a8:	7000 f000 f001 f001 7003 7007 7006 700c     .p.......p.p.p.p
    86b8:	700c 7018 7038 7030 7060 fe7f fe7f 7000     .p.p8p0p`p.....p
    86c8:	7000 7000 7000 7000 0000 0000 0000 0000     .p.p.p.p........
	...
    86e8:	fc1f fc1f 001c 001c 001c 001c e01f f81f     ................
    86f8:	3c10 1c00 0e00 0e00 0e00 0e00 0e00 0e00     .<..............
    8708:	1c00 3c20 f83f e01f 0000 0000 0000 0000     .. <?...........
	...
    8728:	f801 fc07 040f 001e 001c 001c 0038 f039     ............8.9.
    8738:	f83b 3c3e 1e3c 0e38 0e38 0e38 0e38 0e18     ;.><<.8.8.8.8...
    8748:	1c1c 3c0e f80f f003 0000 0000 0000 0000     ...<............
	...
    8768:	fe3f fe3f 1e00 1c00 1c00 3800 3800 3800     ?.?........8.8.8
    8778:	7000 7000 f000 e000 e000 e001 c001 c001     .p.p............
    8788:	8003 8003 8003 0007 0000 0000 0000 0000     ................
	...
    87a8:	f007 fc1f 1c1c 0e38 0e38 0e38 0e38 1c1c     ......8.8.8.8...
    87b8:	f007 f80f 3c1e 1c1c 0e38 0e38 0e38 0e38     .....<..8.8.8.8.
    87c8:	1e3c 3c1e f80f f007 0000 0000 0000 0000     <..<............
	...
    87e8:	e007 f80f 381e 1c3c 0c38 0e38 0e38 0e38     .....8<.8.8.8.8.
    87f8:	0e38 1e3c 3e1e ee0f ce07 0e00 1c00 1c00     8.<..>..........
    8808:	3c00 7810 f01f c00f 0000 0000 0000 0000     .<.x............
	...
    8834:	8003 8003 8003 8003 0000 0000 0000 0000     ................
    8844:	0000 0000 8003 8003 8003 8003 0000 0000     ................
	...
    8874:	8003 8003 8003 8003 0000 0000 0000 0000     ................
    8884:	0000 0000 8003 8003 8003 8003 0003 0007     ................
    8894:	0007 0006 0000 0000 0000 0000 0000 0000     ................
	...
    88b0:	0200 1e00 7e00 f801 c00f 003f 0078 0078     .....~....?.x.x.
    88c0:	003f c00f f801 7e00 1e00 0200 0000 0000     ?......~........
	...
    88f8:	fe7f fe7f 0000 0000 0000 fe7f fe7f 0000     ................
	...
    8930:	0040 0078 007e 801f f003 fc00 1e00 1e00     @.x.~...........
    8940:	fc00 f003 801f 007e 0078 0040 0000 0000     ......~.x.@.....
	...
    8968:	e003 f80f 381c 1c10 1c00 3c00 3c00 7800     .....8.....<.<.x
    8978:	f000 e001 c003 8003 8003 8003 8003 0000     ................
    8988:	0000 8003 8003 8003 0000 0000 0000 0000     ................
	...
    89a8:	0000 f801 fc07 0e0e 061c 0318 0330 7b30     ............0.0{
    89b8:	ff61 8761 0363 0363 0363 0363 0363 8761     a.a.c.c.c.c.c.a.
    89c8:	ff71 7b30 0030 0018 001c 040f fc03 fc00     q.0{0...........
	...
    89e8:	c001 e003 e003 e003 e003 7007 7007 7007     ...........p.p.p
    89f8:	780f 380e 380e 380e fc1f fc1f 1c1c 0e38     .x.8.8.8......8.
    8a08:	0e38 0e38 0f78 0770 0000 0000 0000 0000     8.8.x.p.........
	...
    8a28:	e03f f83f 3838 1c38 1c38 1c38 1c38 3838     ?.?.888.8.8.8.88
    8a38:	f03f f03f 3c38 1c38 0e38 0e38 0e38 0e38     ?.?.8<8.8.8.8.8.
    8a48:	1e38 3c38 f83f e03f 0000 0000 0000 0000     8.8<?.?.........
	...
    8a68:	f801 fc07 0c0f 041e 001c 001c 0038 0038     ............8.8.
    8a78:	0038 0038 0038 0038 0038 0038 001c 001c     8.8.8.8.8.8.....
    8a88:	041e 0c0f fc07 f801 0000 0000 0000 0000     ................
	...
    8aa8:	c03f f03f 7838 1c38 1c38 0c38 0e38 0e38     ?.?.8x8.8.8.8.8.
    8ab8:	0e38 0e38 0e38 0e38 0e38 0e38 0c38 1c38     8.8.8.8.8.8.8.8.
    8ac8:	1c38 7838 f03f c03f 0000 0000 0000 0000     8.8x?.?.........
	...
    8ae8:	fe1f fe1f 001c 001c 001c 001c 001c 001c     ................
    8af8:	fc1f fc1f 001c 001c 001c 001c 001c 001c     ................
    8b08:	001c 001c fe1f fe1f 0000 0000 0000 0000     ................
	...
    8b28:	fe1f fe1f 001c 001c 001c 001c 001c 001c     ................
    8b38:	fc1f fc1f 001c 001c 001c 001c 001c 001c     ................
    8b48:	001c 001c 001c 001c 0000 0000 0000 0000     ................
	...
    8b68:	f801 fc07 0c0f 041e 001c 001c 0038 0038     ............8.8.
    8b78:	0038 7e38 7e38 0e38 0e38 0e38 0e1c 0e1c     8.8~8~8.8.8.....
    8b88:	0e1c 1e0f fe07 f801 0000 0000 0000 0000     ................
	...
    8ba8:	0e38 0e38 0e38 0e38 0e38 0e38 0e38 0e38     8.8.8.8.8.8.8.8.
    8bb8:	fe3f fe3f 0e38 0e38 0e38 0e38 0e38 0e38     ?.?.8.8.8.8.8.8.
    8bc8:	0e38 0e38 0e38 0e38 0000 0000 0000 0000     8.8.8.8.........
	...
    8be8:	fc1f fc1f c001 c001 c001 c001 c001 c001     ................
    8bf8:	c001 c001 c001 c001 c001 c001 c001 c001     ................
    8c08:	c001 c001 fc1f fc1f 0000 0000 0000 0000     ................
	...
    8c28:	f807 f807 3800 3800 3800 3800 3800 3800     .....8.8.8.8.8.8
    8c38:	3800 3800 3800 3800 3800 3800 3800 3800     .8.8.8.8.8.8.8.8
    8c48:	3820 7030 f03f c00f 0000 0000 0000 0000      80p?...........
	...
    8c68:	0738 0e38 1c38 3838 7038 e038 c039 803b     8.8.8.888p8.9.;.
    8c78:	803f c03f c03f e03d f038 7038 7838 3c38     ?.?.?.=.8.8p8x8<
    8c88:	1c38 1e38 0f38 0738 0000 0000 0000 0000     8.8.8.8.........
	...
    8ca8:	001c 001c 001c 001c 001c 001c 001c 001c     ................
    8cb8:	001c 001c 001c 001c 001c 001c 001c 001c     ................
    8cc8:	001c 001c fe1f fe1f 0000 0000 0000 0000     ................
	...
    8ce8:	1e78 1e78 3e7c 3e7c 3e7c 6e76 6e76 6e76     x.x.|>|>|>vnvnvn
    8cf8:	4e72 ce73 ce73 8e71 8e71 0e70 0e70 0e70     rNs.s.q.q.p.p.p.
    8d08:	0e70 0e70 0e70 0e70 0000 0000 0000 0000     p.p.p.p.........
	...
    8d28:	0e3c 0e3c 0e3e 0e3e 0e3e 0e3b 0e3b 8e3b     <.<.>.>.>.;.;.;.
    8d38:	8e39 8e39 ce38 ce38 ee38 6e38 6e38 3e38     9.9.8.8.8.8n8n8>
    8d48:	3e38 3e38 1e38 1e38 0000 0000 0000 0000     8>8>8.8.........
	...
    8d68:	e003 f80f 380e 1c1c 1c1c 0e38 0e38 0e38     .....8....8.8.8.
    8d78:	0e38 0e38 0e38 0e38 0e38 0e38 0e38 1c1c     8.8.8.8.8.8.8...
    8d88:	1c1c 380e f80f e003 0000 0000 0000 0000     ...8............
	...
    8da8:	f01f fc1f 1e1c 0f1c 071c 071c 071c 071c     ................
    8db8:	0f1c 1e1c fc1f f01f 001c 001c 001c 001c     ................
    8dc8:	001c 001c 001c 001c 0000 0000 0000 0000     ................
	...
    8de8:	e003 f80f 380e 1c1c 1c1c 0e38 0e38 0e38     .....8....8.8.8.
    8df8:	0e38 0e38 0e38 0e38 0e38 0e38 0e38 1c1c     8.8.8.8.8.8.8...
    8e08:	1c1c 380e f80f e003 7000 3800 1c00 1000     ...8.....p.8....
	...
    8e28:	e03f f03f 7838 3c38 1c38 1c38 1c38 1c38     ?.?.8x8<8.8.8.8.
    8e38:	1c38 3838 f03f e03f f038 7838 3838 3c38     8.88?.?.8.8x888<
    8e48:	1c38 1e38 0e38 0f38 0000 0000 0000 0000     8.8.8.8.........
	...
    8e68:	f003 fc0f 0c1e 043c 0038 0038 0038 003e     ......<.8.8.8.>.
    8e78:	c01f f80f fc03 3c00 1e00 0e00 0e00 0e00     .......<........
    8e88:	1e20 3c38 f83f e00f 0000 0000 0000 0000      .8<?...........
	...
    8ea8:	ff7f ff7f c001 c001 c001 c001 c001 c001     ................
    8eb8:	c001 c001 c001 c001 c001 c001 c001 c001     ................
    8ec8:	c001 c001 c001 c001 0000 0000 0000 0000     ................
	...
    8ee8:	1c38 1c38 1c38 1c38 1c38 1c38 1c38 1c38     8.8.8.8.8.8.8.8.
    8ef8:	1c38 1c38 1c38 1c38 1c38 1c38 1c38 1c38     8.8.8.8.8.8.8.8.
    8f08:	1c38 381c f00f e007 0000 0000 0000 0000     8..8............
	...
    8f28:	0770 0f78 0e38 0e38 0e38 1c1c 1c1c 1c1c     p.x.8.8.8.......
    8f38:	3c1e 380e 380e 380e 7007 7007 7007 e003     .<.8.8.8.p.p.p..
    8f48:	e003 e003 e003 c001 0000 0000 0000 0000     ................
	...
    8f68:	07e0 07e0 07e0 0e70 0e70 0e70 ce73 ce73     ......p.p.p.s.s.
    8f78:	ce73 ce73 dc3b 7c3e 7c3e 7c3e 7c3e 3c3c     s.s.;.>|>|>|>|<<
    8f88:	3c3c 381c 381c 1818 0000 0000 0000 0000     <<.8.8..........
	...
    8fa8:	0778 0f3c 0e1c 1e1e 3c0f 3807 f007 f003     x.<......<.8....
    8fb8:	e001 e001 e001 f003 f007 7807 3c0f 1c0e     ...........x.<..
    8fc8:	1e1e 0e3c 0738 0778 0000 0000 0000 0000     ..<.8.x.........
	...
    8fe8:	0f78 0e38 1e3c 1c1c 3c1e 380e 7007 f007     x.8.<....<.8.p..
    8ff8:	e003 e003 c001 c001 c001 c001 c001 c001     ................
    9008:	c001 c001 c001 c001 0000 0000 0000 0000     ................
	...
    9028:	fe3f fe3f 1e00 1c00 3c00 7800 7000 f000     ?.?......<.x.p..
    9038:	e000 e001 c003 8003 8007 0007 000f 001e     ................
    9048:	001c 003c fe3f fe3f 0000 0000 0000 0000     ..<.?.?.........
	...
    9064:	0000 f003 f003 8003 8003 8003 8003 8003     ................
    9074:	8003 8003 8003 8003 8003 8003 8003 8003     ................
    9084:	8003 8003 8003 8003 8003 8003 8003 8003     ................
    9094:	f003 f003 0000 0000 0000 0000 0000 0000     ................
    90a4:	0000 0000 0070 0038 0038 001c 001c 001c     ....p.8.8.......
    90b4:	000e 000e 0007 0007 8003 8003 8003 c001     ................
    90c4:	c001 e000 e000 7000 7000 7000 3800 3800     .......p.p.p.8.8
    90d4:	1c00 0000 0000 0000 0000 0000 0000 0000     ................
    90e4:	0000 e007 e007 e000 e000 e000 e000 e000     ................
    90f4:	e000 e000 e000 e000 e000 e000 e000 e000     ................
    9104:	e000 e000 e000 e000 e000 e000 e000 e000     ................
    9114:	e007 e007 0000 0000 0000 0000 0000 0000     ................
    9124:	0000 0000 c003 c003 e007 700e 300c 1818     ...........p.0..
    9134:	1c38 0e70 0000 0000 0000 0000 0000 0000     8.p.............
	...
    9198:	0000 ffff 0000 0000 0000 0000 000e 0007     ................
    91a8:	0003 8001 c000 0000 0000 0000 0000 0000     ................
	...
    91f0:	0000 f007 fc1f 1c18 0e00 0e00 fe07 fe0f     ................
    9200:	0e1c 0e38 0e38 1e38 1e38 3e3c ee1f ce07     ..8.8.8.8.<>....
	...
    9224:	0000 001c 001c 001c 001c 001c 001c f81c     ................
    9234:	fc1f 1e1f 0e1e 071c 071c 071c 071c 071c     ................
    9244:	071c 071c 0e1e 1e1f fc1f f81c 0000 0000     ................
	...
    9270:	0000 f001 f807 0c0f 000e 001c 001c 001c     ................
    9280:	001c 001c 001c 001e 000e 0c0f f807 f001     ................
	...
    92a4:	0000 0e00 0e00 0e00 0e00 0e00 0e00 ce07     ................
    92b4:	fe0f 3e1e 1e1c 0e38 0e38 0e38 0e38 0e38     ...>..8.8.8.8.8.
    92c4:	0e38 0e38 1e1c 3e1e fe0f ce07 0000 0000     8.8....>........
	...
    92f0:	0000 e003 f80f 3c1e 1c1c 0e3c 0e38 0e38     .......<..<.8.8.
    9300:	fe3f fe3f 0038 0038 041c 0c1e f80f e003     ?.?.8.8.........
	...
    9324:	0000 7e00 fe00 e001 c001 c001 c001 fe1f     ...~............
    9334:	fe1f c001 c001 c001 c001 c001 c001 c001     ................
    9344:	c001 c001 c001 c001 c001 c001 0000 0000     ................
	...
    9370:	0000 ce07 ee0f 3e1e 1e1c 0e38 0e38 0e38     .......>..8.8.8.
    9380:	0e38 0e38 0e38 0e38 1e1c 3e1e ee0f ce07     8.8.8.8....>....
    9390:	0e00 0e00 1c00 3c08 f80f e007 0000 0000     .......<........
    93a0:	0000 0000 0000 001c 001c 001c 001c 001c     ................
    93b0:	001c f01c f81d 3c1e 1c1e 1c1c 1c1c 1c1c     .......<........
    93c0:	1c1c 1c1c 1c1c 1c1c 1c1c 1c1c 1c1c 1c1c     ................
	...
    93e4:	0000 c001 c001 c001 0000 0000 0000 c01f     ................
    93f4:	c01f c001 c001 c001 c001 c001 c001 c001     ................
    9404:	c001 c001 c001 c001 fe3f fe3f 0000 0000     ........?.?.....
	...
    9424:	0000 e000 e000 e000 0000 0000 0000 e00f     ................
    9434:	e00f e000 e000 e000 e000 e000 e000 e000     ................
    9444:	e000 e000 e000 e000 e000 e000 e000 e000     ................
    9454:	e000 c001 c01f 001f 0000 0000 0000 0000     ................
    9464:	0000 001c 001c 001c 001c 001c 001c 0f1c     ................
    9474:	1e1c 3c1c 781c f01c e01d c01f e01f e01f     ...<.x..........
    9484:	f01e 781c 3c1c 1c1c 1e1c 0f1c 0000 0000     ...x.<..........
	...
    94a4:	0000 807f 807f 8003 8003 8003 8003 8003     ................
    94b4:	8003 8003 8003 8003 8003 8003 8003 8003     ................
    94c4:	8003 8003 8003 c001 fc01 7c00 0000 0000     ...........|....
	...
    94f0:	0000 1c77 be7f e771 c771 c771 c771 c771     ..w...q.q.q.q.q.
    9500:	c771 c771 c771 c771 c771 c771 c771 c771     q.q.q.q.q.q.q.q.
	...
    9530:	0000 f01c f81d 3c1e 1c1e 1c1c 1c1c 1c1c     .......<........
    9540:	1c1c 1c1c 1c1c 1c1c 1c1c 1c1c 1c1c 1c1c     ................
	...
    9570:	0000 e003 f80f 3c1e 1c1c 0e38 0e38 0e38     .......<..8.8.8.
    9580:	0e38 0e38 0e38 0e38 1c1c 3c1e f80f e003     8.8.8.8....<....
	...
    95b0:	0000 f81c fc1f 1e1f 0e1e 071c 071c 071c     ................
    95c0:	071c 071c 071c 071c 0e1e 1e1f fc1f f81c     ................
    95d0:	001c 001c 001c 001c 001c 001c 0000 0000     ................
	...
    95f0:	0000 ce07 fe0f 3e1e 1e1c 0e38 0e38 0e38     .......>..8.8.8.
    9600:	0e38 0e38 0e38 0e38 1e1c 3e1e fe0f ce07     8.8.8.8....>....
    9610:	0e00 0e00 0e00 0e00 0e00 0e00 0000 0000     ................
	...
    9630:	0000 3c07 7e07 c207 8007 8007 0007 0007     ...<.~..........
    9640:	0007 0007 0007 0007 0007 0007 0007 0007     ................
	...
    9670:	0000 f003 f80f 081e 001c 001c 001f f00f     ................
    9680:	f807 fc00 3c00 1c00 1c00 3c10 f81f e007     .....<.....<....
	...
    96a8:	0000 8003 8003 8003 8003 fe3f fe3f 8003     ..........?.?...
    96b8:	8003 8003 8003 8003 8003 8003 8003 8003     ................
    96c8:	8003 c003 fe01 fe00 0000 0000 0000 0000     ................
	...
    96f0:	0000 1c1c 1c1c 1c1c 1c1c 1c1c 1c1c 1c1c     ................
    9700:	1c1c 1c1c 1c1c 1c1c 3c1c 3c1e dc0f 9c07     .........<.<....
	...
    9730:	0000 0e70 1c38 1c38 1c38 381c 381c 781e     ..p.8.8.8..8.8.x
    9740:	700e 700e f00f e007 e007 e007 c003 c003     .p.p............
	...
    9770:	0000 07e0 07e0 0e70 0e70 8e71 8e71 de7b     ......p.p.q.q.{.
    9780:	dc3b 5c3a 5c3a 7c3e 781e 381c 381c 381c     ;.:\:\>|.x.8.8.8
	...
    97b0:	0000 3c3c 781e 700e f00f e007 c003 c003     ..<<.x.p........
    97c0:	8001 c003 e007 f00f 700e 781e 3c3c 1e78     .........p.x<<x.
	...
    97f0:	0000 0e70 1c38 1c38 3c3c 381c 381c 781e     ..p.8.8.<<.8.8.x
    9800:	700e 700e e007 e007 e007 c003 c003 8003     .p.p............
    9810:	8003 8003 0007 000f 003e 003c 0000 0000     ........>.<.....
	...
    9830:	0000 fc1f fc1f 3c00 7800 7000 f000 e001     .......<.x.p....
    9840:	c001 c003 8007 0007 000f 001e fc1f fc1f     ................
	...
    9864:	0000 7c00 fc00 e001 c001 c001 c001 c001     ...|............
    9874:	c001 c001 c001 c001 8003 001f 001f 8003     ................
    9884:	c001 c001 c001 c001 c001 c001 c001 c001     ................
    9894:	e001 fc00 7c00 0000 0000 0000 0000 0000     .....|..........
    98a4:	0000 8001 8001 8001 8001 8001 8001 8001     ................
    98b4:	8001 8001 8001 8001 8001 8001 8001 8001     ................
    98c4:	8001 8001 8001 8001 8001 8001 8001 8001     ................
    98d4:	8001 8001 8001 8001 0000 0000 0000 0000     ................
    98e4:	0000 001f 801f c003 c001 c001 c001 c001     ................
    98f4:	c001 c001 c001 c001 e000 7c00 7c00 e000     ...........|.|..
    9904:	c001 c001 c001 c001 c001 c001 c001 c001     ................
    9914:	c003 801f 001f 0000                         ........

0000991c <chinese_char>:
    991c:	0000 0000 0004 6600 0700 60c4 0439 0130     .......f...`9.0.
    992c:	1004 0401 0110 0804 ff7f 01fc 0004 0601     ................
    993c:	0100 3006 3601 0120 40c2 020f 79c0 8003     ...0.6 ..@...y..
    994c:	0321 0100 0007 0d01 0184 c410 e001 0f74     !.............t.
    995c:	1c00 0002 0006 0000 0000 0000 0000 3000     ...............0
    996c:	0100 00f0 003f 0100 fc03 0201 0108 0802     ....?...........
    997c:	fa3f 0308 0802 0203 0308 08c2 3207 0508     ?............2..
    998c:	0812 1a09 1908 0802 0211 2108 f803 0241     ...........!..A.
    999c:	0108 0802 0001 0100 0080 0001 0000 0000     ................
    99ac:	0000 0200 0001 0103 0280 0003 0302 0400     ................
    99bc:	0002 e71f 10fc 0844 4810 1008 0848 5010     ......D..H..H..P
    99cc:	1008 0844 c31f 1008 0841 4110 1008 0840     ..D.....A..A..@.
    99dc:	4010 1008 0840 4010 1f08 18c0 4110 1018     .@..@..@.....A..
    99ec:	f040 0000 0020 0000 0000 0000 0000 0008     @... ...........
    99fc:	0400 f01f 1006 0230 3010 907f 0130 3010     ......0..0..0..0
    9a0c:	1003 0230 f01f 1004 0e30 3010 900d 1430     ..0.....0..0..0.
    9a1c:	3090 9f24 44f0 3010 1004 0430 3010 1004     .0$..D.0..0..0..
    9a2c:	0430 3410 ff04 04fe 0000 0004 0000 0000     0..4............
    9a3c:	0000 0000 0000 ff1f 18f8 1800 0018 1b18     ................
    9a4c:	f8ff 1818 1818 1818 1818 1818 1818 ff19     ................
    9a5c:	1898 1818 1e18 1818 1819 1918 1898 9818     ................
    9a6c:	1818 1f58 f8ff 0018 1818 1800 ff1f 18f8     ..X.............
    9a7c:	1800 0018 0000 0000 6469 3d20 2520 0d78     ........id = %x.
    9a8c:	000a 0000 6854 7265 2065 7369 6e20 206f     ....There is no 
    9a9c:	6e61 2079 6564 6966 656e 4120 4353 5f32     any define ASC2_
    9aac:	3231 3830 2620 2026 5341 3243 325f 3134     1208 && ASC2_241
    9abc:	2032 2626 4120 4353 5f32 3432 3631 2620     2 && ASC2_2416 &
    9acc:	2026 5341 3243 335f 3132 2036 0021 0000     & ASC2_3216 !...
    9adc:	6f66 746e 7320 7a69 2865 6425 2029 7369     font size(%d) is
    9aec:	6e20 746f 7320 7075 6f70 7472 0021 0000      not support!...
    9afc:	4f53 474e 5220 4345 474f 494e 4954 4e4f     SONG RECOGNITION
    9b0c:	0000 0000 5753 2031 4f54 5220 4345 474f     ....SW1 TO RECOG
    9b1c:	494e 4954 4e4f 0000 4f4a 5f59 4f44 4e57     NITION..JOY_DOWN
    9b2c:	5420 204f 5250 4341 4954 4543 0000 0000      TO PRACTICE....
    9b3c:	6572 6f63 6e67 7a69 6e69 2e67 2e2e 0000     recognizing.....
    9b4c:	7773 2032 6f74 7120 6975 2074 6572 6f63     sw2 to quit reco
    9b5c:	6e67 7469 6f69 006e 6572 7573 746c 003a     gnition.result:.
    9b6c:	003c 0000 003e 0000 6977 6c6c 7020 6172     <...>...will pra
    9b7c:	7463 6369 2065 6170 6172 656d 6574 7372     ctice parameters
    9b8c:	2e2e 0d2e 0000 0000 0a0d 7270 6361 6974     ..........practi
    9b9c:	6563 7320 6174 7472 2e2e 0d2e 0d0a 0000     ce start........
    9bac:	7270 6361 6974 6963 676e 2e2e 002e 0000     practicing......
    9bbc:	6c70 6165 6573 7320 6570 6b61 253a 2073     please speak:%s 
    9bcc:	0a0d 0000 6461 7264 253a 3830 0d78 000a     ....addr:%08x...
    9bdc:	0a0d 2520 2073 7270 6361 6974 6563 7320     .. %s practice s
    9bec:	6375 6563 7373 0a0d 0000 0000 7325 7020     uccess......%s p
    9bfc:	6172 7463 6369 2065 6166 6c69 2120 2121     ractice fail !!!
    9c0c:	0a0d 0000 7270 6361 6974 6563 6520 646e     ....practice end
    9c1c:	2121 0d21 0000 0000 7270 6361 6974 6563     !!!.....practice
    9c2c:	6420 6e6f 2165 0000 483c 5041 5950 4220      done!..<HAPPY B
    9c3c:	5249 4854 4144 3e59 0000 0000 533c 4545     IRTHDAY>....<SEE
    9c4c:	5920 554f 4120 4147 4e49 003e ce3c bad2      YOU AGAIN>.<...
    9c5c:	cecd b5d2 d7c4 b9e6 3efa 0000 6f73 676e     .........>..song
    9c6c:	5f31 6170 7472 495f 0000 0000 6f73 676e     1_part_I....song
    9c7c:	5f31 6170 7472 495f 0049 0000 6f73 676e     1_part_II...song
    9c8c:	5f31 6170 7472 495f 4949 0000 6f73 676e     1_part_III..song
    9c9c:	5f32 6170 7472 495f 0000 0000 6f73 676e     2_part_I....song
    9cac:	5f32 6170 7472 495f 0049 0000 6f73 676e     2_part_II...song
    9cbc:	5f32 6170 7472 495f 4949 0000 6f73 676e     2_part_III..song
    9ccc:	5f33 6170 7472 495f 0000 0000 6f73 676e     3_part_I....song
    9cdc:	5f33 6170 7472 495f 0049 0000 6f73 676e     3_part_II...song
    9cec:	5f33 6170 7472 495f 4949 0000 6572 6763     3_part_III..recg
    9cfc:	6620 6961 216c 2121 000d 0000 6572 6763      fail!!!....recg
    9d0c:	6620 6961 216c 0000 6572 6763 6520 646e      fail!..recg end
    9d1c:	792c 756f 2072 7073 6165 696b 676e 6920     ,your speaking i
    9d2c:	3a73 2520 0d73 000a 7073 6165 696b 676e     s: %s...speaking
    9d3c:	2e2e 0d2e 0000 0000 0000 0000 cccd cccc     ................
    9d4c:	cccc 4022 0000 447a 0000 0000 6666 6666     .."@..zD....ffff
    9d5c:	6666 3fee                                   ff.?

00009d60 <cos_tab>:
    9d60:	0000 3f80 feb0 3f7f fac2 3f7f f4dc 3f7f     ...?...?...?...?
    9d70:	ec57 3f7f e133 3f7f d36f 3f7f c3b5 3f7f     W..?3..?o..?...?
    9d80:	b15b 3f7f 9c63 3f7f 84cb 3f7f 6a94 3f7f     [..?c..?...?.j.?
    9d90:	4e66 3f7f 2f98 3f7f 0e2c 3f7f eac8 3f7e     fN.?./.?,..?..~?
    9da0:	c41e 3f7e 9b7c 3f7e 70e3 3f7e 4303 3f7e     ..~?|.~?.p~?.C~?
    9db0:	132b 3f7e e0b5 3f7d ab9f 3f7d 7492 3f7d     +.~?..}?..}?.t}?
    9dc0:	3ae7 3f7d fe9b 3f7c bfb1 3f7c 7ed0 3f7c     .:}?..|?..|?.~|?
    9dd0:	3b4f 3f7c f530 3f7b ad19 3f7b 61bb 3f7b     O;|?0.{?..{?.a{?
    9de0:	150e 3f7b c519 3f7a 732e 3f7a 1ea3 3f7a     ..{?..z?.sz?..z?
    9df0:	c77a 3f79 6e59 3f79 1299 3f79 b439 3f78     z.y?Yny?..y?9.x?
    9e00:	53e3 3f78 f0ed 3f77 8c00 3f77 23cd 3f77     .Sx?..w?..w?.#w?
    9e10:	ba49 3f76 4d7f 3f76 debe 3f75 6d5d 3f75     I.v?.Mv?..u?]mu?
    9e20:	fa05 3f74 840e 3f74 0c20 3f74 9192 3f73     ..t?..t? .t?..s?
    9e30:	1466 3f73 9542 3f72 137f 3f72 8f1d 3f71     f.s?B.r?..r?..q?
    9e40:	08c4 3f71 8073 3f70 f584 3f6f 67f5 3f6f     ..q?s.p?..o?.go?
    9e50:	d86f 3f6e 46f1 3f6e b2d5 3f6d 1c19 3f6d     o.n?.Fn?..m?..m?
    9e60:	8366 3f6c e814 3f6b 4acb 3f6b ab8a 3f6a     f.l?..k?.Jk?..j?
    9e70:	09ab 3f6a 65d4 3f69 bf5d 3f68 16f0 3f68     ..j?.ei?].h?..h?
    9e80:	6be3 3f67 bee0 3f66 0f3d 3f66 5e4a 3f65     .kg?..f?=.f?J^e?
    9e90:	aa11 3f64 f488 3f63 3c60 3f63 8241 3f62     ..d?..c?`<c?A.b?
    9ea0:	c582 3f61 06cd 3f61 4620 3f60 82d4 3f5f     ..a?..a? F`?.._?
    9eb0:	be38 3f5e f6fd 3f5d 2d23 3f5d 61fa 3f5c     8.^?..]?#-]?.a\?
    9ec0:	9431 3f5b c472 3f5a f2bb 3f59 1e64 3f59     1.[?r.Z?..Y?d.Y?
    9ed0:	4817 3f58 6fd2 3f57 9596 3f56 b963 3f55     .HX?.oW?..V?c.U?
    9ee0:	db38 3f54 fb16 3f53 1855 3f53 339c 3f52     8.T?..S?U.S?.3R?
    9ef0:	4cec 3f51 64ed 3f50 7a4e 3f4f 8db9 3f4e     .LQ?.dP?NzO?..N?
    9f00:	9f2c 3f4d aea7 3f4c bc2c 3f4b c7b9 3f4a     ,.M?..L?,.K?..J?
    9f10:	d14e 3f49 d8ed 3f48 de94 3f47 e243 3f46     N.I?..H?..G?C.F?
    9f20:	e3fc 3f45 e3bd 3f44 e22e 3f43 de01 3f42     ..E?..D?..C?..B?
    9f30:	d884 3f41 d10f 3f40 c7a4 3f3f bc41 3f3e     ..A?..@?..??A.>?
    9f40:	aee6 3f3d a03c 3f3c 8ef3 3f3b 7c5b 3f3a     ..=?<.<?..;?[|:?
    9f50:	6873 3f39 51ec 3f38 3a15 3f37 2047 3f36     sh9?.Q8?.:7?G 6?
    9f60:	0529 3f35 e76d 3f33 c908 3f32 a805 3f31     ).5?m.3?..2?..1?
    9f70:	85b2 3f30 6167 3f2f 3bcd 3f2e 143c 3f2d     ..0?ga/?.;.?<.-?
    9f80:	eb5b 3f2b c083 3f2a 945b 3f29 663c 3f28     [.+?..*?[.)?<f(?
    9f90:	3626 3f27 04c0 3f26 d20b 3f24 9d5e 3f23     &6'?..&?..$?^.#?
    9fa0:	6762 3f22 3016 3f21 f6d3 3f1f bc41 3f1e     bg"?.0!?...?A..?
    9fb0:	7fb7 3f1d 41dd 3f1c 02b4 3f1b c23b 3f19     ...?.A.?...?;..?
    9fc0:	7fcc 3f18 3c0c 3f17 f6fd 3f15 aff7 3f14     ...?.<.?...?...?
    9fd0:	6849 3f13 1ea3 3f12 d3ae 3f10 876a 3f0f     Ih.?...?...?j..?
    9fe0:	39d6 3f0e eaf2 3f0c 9a17 3f0b 4895 3f0a     .9.?...?...?.H.?
    9ff0:	f5c3 3f08 a0f9 3f07 4b88 3f06 f4c7 3f04     ...?...?.K.?...?
    a000:	9c0f 3f03 42af 3f02 e7ff 3f00 1801 3eff     ...?.B.?...?...>
    a010:	5d64 3efc a027 3ef9 e04c 3ef6 1f21 3ef4     d].>'..>L..>!..>
    a020:	5b57 3ef1 94ee 3eee cbe6 3eeb 003f 3ee9     W[.>...>...>?..>
    a030:	3348 3ee6 63b2 3ee3 92cd 3ee0 bdf9 3edd     H3.>.c.>...>...>
    a040:	e925 3eda 1062 3ed8 3650 3ed5 599f 3ed2     %..>b..>P6.>.Y.>
    a050:	7b9e 3ecf 9afe 3ecc b90f 3ec9 d5d0 3ec6     .{.>...>...>...>
    a060:	eea2 3ec3 0774 3ec1 1da8 3ebe 313c 3ebb     ...>t..>...><1.>
    a070:	44d0 3eb8 5476 3eb5 641b 3eb2 7122 3eaf     .D.>vT.>.d.>"q.>
    a080:	7cd9 3eac 8740 3ea9 8f08 3ea6 9581 3ea3     .|.>@..>...>...>
    a090:	9aaa 3ea0 9e84 3e9d a10e 3e9a a0f9 3e97     ...>...>...>...>
    a0a0:	9f95 3e94 9e30 3e91 9a2c 3e8e 94d9 3e8b     ...>0..>,..>...>
    a0b0:	8e37 3e88 8644 3e85 7e52 3e82 e782 3e7e     7..>D..>R~.>..~>
    a0c0:	cfc0 3e78 b55f 3e72 9afe 3e6c 7b5f 3e66     ..x>_.r>..l>_{f>
    a0d0:	5bc0 3e60 3982 3e5a 14a5 3e54 ed29 3e4d     .[`>.9Z>..T>).M>
    a0e0:	c5ac 3e47 9b91 3e41 6ed6 3e3b 3f7d 3e35     ..G>..A>.n;>}?5>
    a0f0:	1023 3e2f de2b 3e28 ac32 3e22 779a 3e1c     #./>+.(>2.">.w.>
    a100:	4064 3e16 092d 3e10 cf57 3e09 9581 3e03     d@.>-..>W..>...>
    a110:	b218 3dfa 392e 3dee bb06 3de1 3cde 3dd5     ...=.9.=...=.<.=
    a120:	bd23 3dc8 3ac9 3dbc b656 3daf 3051 3da3     #..=.:.=V..=Q0.=
    a130:	a93f 3d96 2014 3d8a 2bbb 3d7b 1427 3d62     ?..=. .=.+{='.b=
    a140:	fb87 3d48 dfc2 3d2f c2f0 3d16 4a23 3cfb     ..H=../=...=#J.<
    a150:	0a35 3cc9 ca47 3c96 1080 3c49 0fa9 3bc9     5..<G..<..I<...;
    a160:	0000 0000 0fa9 bbc9 1080 bc49 ca47 bc96     ..........I.G...
    a170:	0a35 bcc9 4a23 bcfb c2f0 bd16 dfc2 bd2f     5...#J......../.
    a180:	fb87 bd48 1427 bd62 2bbb bd7b 2014 bd8a     ..H.'.b..+{.. ..
    a190:	a93f bd96 3051 bda3 b656 bdaf 3ac9 bdbc     ?...Q0..V....:..
    a1a0:	bd23 bdc8 3cde bdd5 bb06 bde1 392e bdee     #....<.......9..
    a1b0:	b218 bdfa 9581 be03 cf57 be09 092d be10     ........W...-...
    a1c0:	4064 be16 779a be1c ac32 be22 de2b be28     d@...w..2.".+.(.
    a1d0:	1023 be2f 3f7d be35 6ed6 be3b 9b91 be41     #./.}?5..n;...A.
    a1e0:	c5ac be47 ed29 be4d 14a5 be54 3982 be5a     ..G.).M...T..9Z.
    a1f0:	5bc0 be60 7b5f be66 9afe be6c b55f be72     .[`._{f...l._.r.
    a200:	cfc0 be78 e782 be7e 7e52 be82 8644 be85     ..x...~.R~..D...
    a210:	8e37 be88 94d9 be8b 9a2c be8e 9e30 be91     7.......,...0...
    a220:	9f95 be94 a0f9 be97 a10e be9a 9e84 be9d     ................
    a230:	9aaa bea0 9581 bea3 8f08 bea6 8740 bea9     ............@...
    a240:	7cd9 beac 7122 beaf 641b beb2 5476 beb5     .|.."q...d..vT..
    a250:	44d0 beb8 313c bebb 1da8 bebe 0774 bec1     .D..<1......t...
    a260:	eea2 bec3 d5d0 bec6 b90f bec9 9afe becc     ................
    a270:	7b9e becf 599f bed2 3650 bed5 1062 bed8     .{...Y..P6..b...
    a280:	e925 beda bdf9 bedd 92cd bee0 63b2 bee3     %............c..
    a290:	3348 bee6 003f bee9 cbe6 beeb 94ee beee     H3..?...........
    a2a0:	5b57 bef1 1f21 bef4 e04c bef6 a027 bef9     W[..!...L...'...
    a2b0:	5d64 befc 1801 beff e7ff bf00 42af bf02     d]...........B..
    a2c0:	9c0f bf03 f4c7 bf04 4b88 bf06 a0f9 bf07     .........K......
    a2d0:	f5c3 bf08 4895 bf0a 9a17 bf0b eaf2 bf0c     .....H..........
    a2e0:	39d6 bf0e 876a bf0f d3ae bf10 1ea3 bf12     .9..j...........
    a2f0:	6849 bf13 aff7 bf14 f6fd bf15 3c0c bf17     Ih...........<..
    a300:	7fcc bf18 c23b bf19 02b4 bf1b 41dd bf1c     ....;........A..
    a310:	7fb7 bf1d bc41 bf1e f6d3 bf1f 3016 bf21     ....A........0!.
    a320:	6762 bf22 9d5e bf23 d20b bf24 04c0 bf26     bg".^.#...$...&.
    a330:	3626 bf27 663c bf28 945b bf29 c083 bf2a     &6'.<f(.[.)...*.
    a340:	eb5b bf2b 143c bf2d 3bcd bf2e 6167 bf2f     [.+.<.-..;..ga/.
    a350:	85b2 bf30 a805 bf31 c908 bf32 e76d bf33     ..0...1...2.m.3.
    a360:	0529 bf35 2047 bf36 3a15 bf37 51ec bf38     ).5.G 6..:7..Q8.
    a370:	6873 bf39 7c5b bf3a 8ef3 bf3b a03c bf3c     sh9.[|:...;.<.<.
    a380:	aee6 bf3d bc41 bf3e c7a4 bf3f d10f bf40     ..=.A.>...?...@.
    a390:	d884 bf41 de01 bf42 e22e bf43 e3bd bf44     ..A...B...C...D.
    a3a0:	e3fc bf45 e243 bf46 de94 bf47 d8ed bf48     ..E.C.F...G...H.
    a3b0:	d14e bf49 c7b9 bf4a bc2c bf4b aea7 bf4c     N.I...J.,.K...L.
    a3c0:	9f2c bf4d 8db9 bf4e 7a4e bf4f 64ed bf50     ,.M...N.NzO..dP.
    a3d0:	4cec bf51 339c bf52 1855 bf53 fb16 bf53     .LQ..3R.U.S...S.
    a3e0:	db38 bf54 b963 bf55 9596 bf56 6fd2 bf57     8.T.c.U...V..oW.
    a3f0:	4817 bf58 1e64 bf59 f2bb bf59 c472 bf5a     .HX.d.Y...Y.r.Z.
    a400:	9431 bf5b 61fa bf5c 2d23 bf5d f6fd bf5d     1.[..a\.#-]...].
    a410:	be38 bf5e 82d4 bf5f 4620 bf60 06cd bf61     8.^..._. F`...a.
    a420:	c582 bf61 8241 bf62 3c60 bf63 f488 bf63     ..a.A.b.`<c...c.
    a430:	aa11 bf64 5e4a bf65 0f3d bf66 bee0 bf66     ..d.J^e.=.f...f.
    a440:	6be3 bf67 16f0 bf68 bf5d bf68 65d4 bf69     .kg...h.].h..ei.
    a450:	09ab bf6a ab8a bf6a 4acb bf6b e814 bf6b     ..j...j..Jk...k.
    a460:	8366 bf6c 1c19 bf6d b2d5 bf6d 46f1 bf6e     f.l...m...m..Fn.
    a470:	d86f bf6e 67f5 bf6f f584 bf6f 8073 bf70     o.n..go...o.s.p.
    a480:	08c4 bf71 8f1d bf71 137f bf72 9542 bf72     ..q...q...r.B.r.
    a490:	1466 bf73 9192 bf73 0c20 bf74 840e bf74     f.s...s. .t...t.
    a4a0:	fa05 bf74 6d5d bf75 debe bf75 4d7f bf76     ..t.]mu...u..Mv.
    a4b0:	ba49 bf76 23cd bf77 8c00 bf77 f0ed bf77     I.v..#w...w...w.
    a4c0:	53e3 bf78 b439 bf78 1299 bf79 6e59 bf79     .Sx.9.x...y.Yny.
    a4d0:	c77a bf79 1ea3 bf7a 732e bf7a c519 bf7a     z.y...z..sz...z.
    a4e0:	150e bf7b 61bb bf7b ad19 bf7b f530 bf7b     ..{..a{...{.0.{.
    a4f0:	3b4f bf7c 7ed0 bf7c bfb1 bf7c fe9b bf7c     O;|..~|...|...|.
    a500:	3ae7 bf7d 7492 bf7d ab9f bf7d e0b5 bf7d     .:}..t}...}...}.
    a510:	132b bf7e 4303 bf7e 70e3 bf7e 9b7c bf7e     +.~..C~..p~.|.~.
    a520:	c41e bf7e eac8 bf7e 0e2c bf7f 2f98 bf7f     ..~...~.,..../..
    a530:	4e66 bf7f 6a94 bf7f 84cb bf7f 9c63 bf7f     fN...j......c...
    a540:	b15b bf7f c3b5 bf7f d36f bf7f e133 bf7f     [.......o...3...
    a550:	ec57 bf7f f4dc bf7f fac2 bf7f feb0 bf7f     W...............

0000a560 <dct_arg>:
    a560:	0000 3f80 e148 3f7a 3333 3f73 6666 3f66     ...?H.z?33s?fff?
    a570:	7ae1 3f54 0000 3f40 f5c3 3f28 5c29 3f0f     .zT?..@?..(?)\.?
    a580:	47ae 3ee1 d70a 3ea3 cccd 3e4c 5c29 3d8f     .G.>...>..L>)\.=
    a590:	5c29 bd8f cccd be4c d70a bea3 47ae bee1     )\....L......G..
    a5a0:	5c29 bf0f f5c3 bf28 0000 bf40 7ae1 bf54     )\....(...@..zT.
    a5b0:	6666 bf66 3333 bf73 e148 bf7a 0000 bf80     fff.33s.H.z.....
    a5c0:	70a4 3f7d 851f 3f6b 3d71 3f4a 28f6 3f1c     .p}?..k?q=J?.(.?
    a5d0:	8f5c 3ec2 1eb8 3e05 1eb8 be05 8f5c bec2     \..>...>....\...
    a5e0:	28f6 bf1c 3d71 bf4a 851f bf6b 70a4 bf7d     .(..q=J...k..p}.
    a5f0:	70a4 bf7d 851f bf6b 3d71 bf4a 28f6 bf1c     .p}...k.q=J..(..
    a600:	8f5c bec2 1eb8 be05 1eb8 3e05 8f5c 3ec2     \..........>\..>
    a610:	28f6 3f1c 3d71 3f4a 851f 3f6b 70a4 3f7d     .(.?q=J?..k?.p}?
    a620:	e148 3f7a 7ae1 3f54 5c29 3f0f cccd 3e4c     H.z?.zT?)\.?..L>
    a630:	cccd be4c 5c29 bf0f 7ae1 bf54 e148 bf7a     ..L.)\...zT.H.z.
    a640:	e148 bf7a 7ae1 bf54 5c29 bf0f cccd be4c     H.z..zT.)\....L.
    a650:	cccd 3e4c 5c29 3f0f 7ae1 3f54 e148 3f7a     ..L>)\.?.zT?H.z?
    a660:	e148 3f7a 7ae1 3f54 5c29 3f0f cccd 3e4c     H.z?.zT?)\.?..L>
    a670:	cccd be4c 5c29 bf0f 7ae1 bf54 e148 bf7a     ..L.)\...zT.H.z.
    a680:	51ec 3f78 c28f 3f35 1eb8 3e85 1eb8 be85     .Qx?..5?...>....
    a690:	c28f bf35 51ec bf78 51ec bf78 c28f bf35     ..5..Qx..Qx...5.
    a6a0:	1eb8 be85 1eb8 3e85 c28f 3f35 51ec 3f78     .......>..5?.Qx?
    a6b0:	51ec 3f78 c28f 3f35 1eb8 3e85 1eb8 be85     .Qx?..5?...>....
    a6c0:	c28f bf35 51ec bf78 51ec bf78 c28f bf35     ..5..Qx..Qx...5.
    a6d0:	1eb8 be85 1eb8 3e85 c28f 3f35 51ec 3f78     .......>..5?.Qx?
    a6e0:	3333 3f73 5c29 3f0f 5c29 bd8f f5c3 bf28     33s?)\.?)\....(.
    a6f0:	e148 bf7a 6666 bf66 47ae bee1 cccd 3e4c     H.z.fff..G....L>
    a700:	0000 3f40 0000 3f80 7ae1 3f54 d70a 3ea3     ..@?...?.zT?...>
    a710:	d70a bea3 7ae1 bf54 0000 bf80 0000 bf40     .....zT.......@.
    a720:	cccd be4c 47ae 3ee1 6666 3f66 e148 3f7a     ..L..G.>fff?H.z?
    a730:	f5c3 3f28 5c29 3d8f 5c29 bf0f 3333 bf73     ..(?)\.=)\..33s.
    a740:	851f 3f6b 8f5c 3ec2 8f5c bec2 851f bf6b     ..k?\..>\.....k.
    a750:	851f bf6b 8f5c bec2 8f5c 3ec2 851f 3f6b     ..k.\...\..>..k?
    a760:	851f 3f6b 8f5c 3ec2 8f5c bec2 851f bf6b     ..k?\..>\.....k.
    a770:	851f bf6b 8f5c bec2 8f5c 3ec2 851f 3f6b     ..k.\...\..>..k?
    a780:	851f 3f6b 8f5c 3ec2 8f5c bec2 851f bf6b     ..k?\..>\.....k.
    a790:	851f bf6b 8f5c bec2 8f5c 3ec2 851f 3f6b     ..k.\...\..>..k?
    a7a0:	6666 3f66 cccd 3e4c f5c3 bf28 0000 bf80     fff?..L>..(.....
    a7b0:	5c29 bf0f d70a 3ea3 3333 3f73 7ae1 3f54     )\.....>33s?.zT?
    a7c0:	5c29 3d8f 0000 bf40 e148 bf7a 47ae bee1     )\.=..@.H.z..G..
    a7d0:	47ae 3ee1 e148 3f7a 0000 3f40 5c29 bd8f     .G.>H.z?..@?)\..
    a7e0:	7ae1 bf54 3333 bf73 d70a bea3 5c29 3f0f     .zT.33s.....)\.?
    a7f0:	0000 3f80 f5c3 3f28 cccd be4c 6666 bf66     ...?..(?..L.fff.
    a800:	b852 3f5e 0000 0000 b852 bf5e b852 bf5e     R.^?....R.^.R.^.
    a810:	0000 0000 b852 3f5e b852 3f5e 0000 0000     ....R.^?R.^?....
    a820:	b852 bf5e b852 bf5e 0000 0000 b852 3f5e     R.^.R.^.....R.^?
    a830:	b852 3f5e 0000 0000 b852 bf5e b852 bf5e     R.^?....R.^.R.^.
    a840:	0000 0000 b852 3f5e b852 3f5e 0000 0000     ....R.^?R.^?....
    a850:	b852 bf5e b852 bf5e 0000 0000 b852 3f5e     R.^.R.^.....R.^?
    a860:	7ae1 3f54 cccd be4c e148 bf7a 5c29 bf0f     .zT?..L.H.z.)\..
    a870:	5c29 3f0f e148 3f7a cccd 3e4c 7ae1 bf54     )\.?H.z?..L>.zT.
    a880:	7ae1 bf54 cccd 3e4c e148 3f7a 5c29 3f0f     .zT...L>H.z?)\.?
    a890:	5c29 bf0f e148 bf7a cccd be4c 7ae1 3f54     )\..H.z...L..zT?
    a8a0:	7ae1 3f54 cccd be4c e148 bf7a 5c29 bf0f     .zT?..L.H.z.)\..
    a8b0:	5c29 3f0f e148 3f7a cccd 3e4c 7ae1 bf54     )\.?H.z?..L>.zT.
    a8c0:	3d71 3f4a 8f5c bec2 70a4 bf7d 1eb8 be05     q=J?\....p}.....
    a8d0:	851f 3f6b 28f6 3f1c 28f6 bf1c 851f bf6b     ..k?.(.?.(....k.
    a8e0:	1eb8 3e05 70a4 3f7d 8f5c 3ec2 3d71 bf4a     ...>.p}?\..>q=J.
    a8f0:	3d71 bf4a 8f5c 3ec2 70a4 3f7d 1eb8 3e05     q=J.\..>.p}?...>
    a900:	851f bf6b 28f6 bf1c 28f6 3f1c 851f 3f6b     ..k..(...(.?..k?
    a910:	1eb8 be05 70a4 bf7d 8f5c bec2 3d71 3f4a     .....p}.\...q=J?
    a920:	0000 3f40 5c29 bf0f 6666 bf66 d70a 3ea3     ..@?)\..fff....>
    a930:	e148 3f7a 5c29 bd8f 0000 bf80 cccd be4c     H.z?)\........L.
    a940:	3333 3f73 47ae 3ee1 7ae1 bf54 f5c3 bf28     33s?.G.>.zT...(.
    a950:	f5c3 3f28 7ae1 3f54 47ae bee1 3333 bf73     ..(?.zT?.G..33s.
    a960:	cccd 3e4c 0000 3f80 5c29 3d8f e148 bf7a     ..L>...?)\.=H.z.
    a970:	d70a bea3 6666 3f66 5c29 3f0f 0000 bf40     ....fff?)\.?..@.
    a980:	c28f 3f35 c28f bf35 c28f bf35 c28f 3f35     ..5?..5...5...5?
    a990:	c28f 3f35 c28f bf35 c28f bf35 c28f 3f35     ..5?..5...5...5?
    a9a0:	c28f 3f35 c28f bf35 c28f bf35 c28f 3f35     ..5?..5...5...5?
    a9b0:	c28f 3f35 c28f bf35 c28f bf35 c28f 3f35     ..5?..5...5...5?
    a9c0:	c28f 3f35 c28f bf35 c28f bf35 c28f 3f35     ..5?..5...5...5?
    a9d0:	c28f 3f35 c28f bf35 c28f bf35 c28f 3f35     ..5?..5...5...5?

0000a9e0 <hamm>:
    a9e0:	d70a 3da3 9342 3da4 c7eb 3da6 73f7 3daa     ...=B..=...=.s.=
    a9f0:	95d5 3daf 2b6b 3db6 321a 3dbe a744 3dc7     ...=k+.=.2.=D..=
    aa00:	88ce 3dd2 cd4b 3dde 710d 3dec 7415 3dfb     ...=K..=.q.=.t.=
    aa10:	e5f3 3e05 b9a1 3e0e 2fd7 3e18 45f6 3e22     ...>...>./.>.E">
    aa20:	f95d 3e2c 44d0 3e38 2310 3e44 917d 3e50     ].,>.D8>.#D>}.P>
    aa30:	883c 3e5d 04ab 3e6b feef 3e78 b8e5 3e83     <.]>..k>..x>...>
    aa40:	2d4d 3e8b d773 3e92 b607 3e9a c669 3ea2     M-.>s..>...>i..>
    aa50:	020c 3eab 68f1 3eb3 f727 3ebb a8c1 3ec4     ...>.h.>'..>...>
    aa60:	7881 3ecd 6666 3ed6 6be3 3edf 87a9 3ee8     .x.>ff.>.k.>...>
    aa70:	b478 3ef1 efb3 3efa 1a0d 3f02 c02f 3f06     x..>...>...?/..?
    aa80:	66f9 3f0b 0dc3 3f10 b296 3f14 52d2 3f19     .f.?...?...?.R.?
    aa90:	ec81 3f1d 7efa 3f22 079e 3f27 8477 3f2b     ...?.~"?..'?w.+?
    aaa0:	f434 3f2f 54de 3f34 a527 3f38 e26d 3f3c     4./?.T4?'.8?m.<?
    aab0:	0b63 3f41 1eb8 3f45 1a76 3f49 fca4 3f4c     c.A?..E?v.I?..L?
    aac0:	c49c 3f50 7065 3f54 feb0 3f57 6d87 3f5b     ..P?epT?..W?.m[?
    aad0:	bb99 3f5e e83e 3f61 f228 3f64 d75e 3f67     ..^?>.a?(.d?^.g?
    aae0:	9739 3f6a 3112 3f6d a2f0 3f6f ec2d 3f71     9.j?.1m?..o?-.q?
    aaf0:	0c20 3f74 0221 3f76 cc3a 3f77 6b12 3f79      .t?!.v?:.w?.ky?
    ab00:	dd59 3f7a 2310 3f7c 3ae7 3f7d 24dd 3f7e     Y.z?.#|?.:}?.$~?
    ab10:	e04c 3f7e 6d33 3f7f caea 3f7f fa1a 3f7f     L.~?3m.?...?...?
    ab20:	fa1a 3f7f caea 3f7f 6d33 3f7f e04c 3f7e     ...?...?3m.?L.~?
    ab30:	24dd 3f7e 3ae7 3f7d 2310 3f7c dd59 3f7a     .$~?.:}?.#|?Y.z?
    ab40:	6b12 3f79 cc3a 3f77 0221 3f76 0c20 3f74     .ky?:.w?!.v? .t?
    ab50:	ec2d 3f71 a2f0 3f6f 3112 3f6d 9739 3f6a     -.q?..o?.1m?9.j?
    ab60:	d75e 3f67 f228 3f64 e83e 3f61 bb99 3f5e     ^.g?(.d?>.a?..^?
    ab70:	6d87 3f5b feb0 3f57 7065 3f54 c49c 3f50     .m[?..W?epT?..P?
    ab80:	fca4 3f4c 1a76 3f49 1eb8 3f45 0b63 3f41     ..L?v.I?..E?c.A?
    ab90:	e26d 3f3c a527 3f38 54de 3f34 f434 3f2f     m.<?'.8?.T4?4./?
    aba0:	8477 3f2b 079e 3f27 7efa 3f22 ec81 3f1d     w.+?..'?.~"?...?
    abb0:	52d2 3f19 b296 3f14 0dc3 3f10 66f9 3f0b     .R.?...?...?.f.?
    abc0:	c02f 3f06 1a0d 3f02 efb3 3efa b478 3ef1     /..?...?...>x..>
    abd0:	87a9 3ee8 6be3 3edf 6666 3ed6 7881 3ecd     ...>.k.>ff.>.x.>
    abe0:	a8c1 3ec4 f727 3ebb 68f1 3eb3 020c 3eab     ...>'..>.h.>...>
    abf0:	c669 3ea2 b607 3e9a d773 3e92 2d4d 3e8b     i..>...>s..>M-.>
    ac00:	b8e5 3e83 feef 3e78 04ab 3e6b 883c 3e5d     ...>..x>..k><.]>
    ac10:	917d 3e50 2310 3e44 44d0 3e38 f95d 3e2c     }.P>.#D>.D8>].,>
    ac20:	45f6 3e22 2fd7 3e18 b9a1 3e0e e5f3 3e05     .E">./.>...>...>
    ac30:	7415 3dfb 710d 3dec cd4b 3dde 88ce 3dd2     .t.=.q.=K..=...=
    ac40:	a744 3dc7 321a 3dbe 2b6b 3db6 95d5 3daf     D..=.2.=k+.=...=
    ac50:	73f7 3daa c7eb 3da6 9342 3da4 d70a 3da3     .s.=...=B..=...=

0000ac60 <sin_tab>:
    ac60:	0000 0000 0fa9 bbc9 1080 bc49 ca47 bc96     ..........I.G...
    ac70:	0a35 bcc9 4a23 bcfb c2f0 bd16 dfc2 bd2f     5...#J......../.
    ac80:	fb87 bd48 1427 bd62 2bbb bd7b 2014 bd8a     ..H.'.b..+{.. ..
    ac90:	a93f bd96 3051 bda3 b656 bdaf 3ac9 bdbc     ?...Q0..V....:..
    aca0:	bd23 bdc8 3cde bdd5 bb06 bde1 392e bdee     #....<.......9..
    acb0:	b218 bdfa 9581 be03 cf57 be09 092d be10     ........W...-...
    acc0:	4064 be16 779a be1c ac32 be22 de2b be28     d@...w..2.".+.(.
    acd0:	1023 be2f 3f7d be35 6ed6 be3b 9b91 be41     #./.}?5..n;...A.
    ace0:	c5ac be47 ed29 be4d 14a5 be54 3982 be5a     ..G.).M...T..9Z.
    acf0:	5bc0 be60 7b5f be66 9afe be6c b55f be72     .[`._{f...l._.r.
    ad00:	cfc0 be78 e782 be7e 7e52 be82 8644 be85     ..x...~.R~..D...
    ad10:	8e37 be88 94d9 be8b 9a2c be8e 9e30 be91     7.......,...0...
    ad20:	9f95 be94 a0f9 be97 a10e be9a 9e84 be9d     ................
    ad30:	9aaa bea0 9581 bea3 8f08 bea6 8740 bea9     ............@...
    ad40:	7cd9 beac 7122 beaf 641b beb2 5476 beb5     .|.."q...d..vT..
    ad50:	44d0 beb8 313c bebb 1da8 bebe 0774 bec1     .D..<1......t...
    ad60:	eea2 bec3 d5d0 bec6 b90f bec9 9afe becc     ................
    ad70:	7b9e becf 599f bed2 3650 bed5 1062 bed8     .{...Y..P6..b...
    ad80:	e925 beda bdf9 bedd 92cd bee0 63b2 bee3     %............c..
    ad90:	3348 bee6 003f bee9 cbe6 beeb 94ee beee     H3..?...........
    ada0:	5b57 bef1 1f21 bef4 e04c bef6 a027 bef9     W[..!...L...'...
    adb0:	5d64 befc 1801 beff e7ff bf00 42af bf02     d]...........B..
    adc0:	9c0f bf03 f4c7 bf04 4b88 bf06 a0f9 bf07     .........K......
    add0:	f5c3 bf08 4895 bf0a 9a17 bf0b eaf2 bf0c     .....H..........
    ade0:	39d6 bf0e 876a bf0f d3ae bf10 1ea3 bf12     .9..j...........
    adf0:	6849 bf13 aff7 bf14 f6fd bf15 3c0c bf17     Ih...........<..
    ae00:	7fcc bf18 c23b bf19 02b4 bf1b 41dd bf1c     ....;........A..
    ae10:	7fb7 bf1d bc41 bf1e f6d3 bf1f 3016 bf21     ....A........0!.
    ae20:	6762 bf22 9d5e bf23 d20b bf24 04c0 bf26     bg".^.#...$...&.
    ae30:	3626 bf27 663c bf28 945b bf29 c083 bf2a     &6'.<f(.[.)...*.
    ae40:	eb5b bf2b 143c bf2d 3bcd bf2e 6167 bf2f     [.+.<.-..;..ga/.
    ae50:	85b2 bf30 a805 bf31 c908 bf32 e76d bf33     ..0...1...2.m.3.
    ae60:	0529 bf35 2047 bf36 3a15 bf37 51ec bf38     ).5.G 6..:7..Q8.
    ae70:	6873 bf39 7c5b bf3a 8ef3 bf3b a03c bf3c     sh9.[|:...;.<.<.
    ae80:	aee6 bf3d bc41 bf3e c7a4 bf3f d10f bf40     ..=.A.>...?...@.
    ae90:	d884 bf41 de01 bf42 e22e bf43 e3bd bf44     ..A...B...C...D.
    aea0:	e3fc bf45 e243 bf46 de94 bf47 d8ed bf48     ..E.C.F...G...H.
    aeb0:	d14e bf49 c7b9 bf4a bc2c bf4b aea7 bf4c     N.I...J.,.K...L.
    aec0:	9f2c bf4d 8db9 bf4e 7a4e bf4f 64ed bf50     ,.M...N.NzO..dP.
    aed0:	4cec bf51 339c bf52 1855 bf53 fb16 bf53     .LQ..3R.U.S...S.
    aee0:	db38 bf54 b963 bf55 9596 bf56 6fd2 bf57     8.T.c.U...V..oW.
    aef0:	4817 bf58 1e64 bf59 f2bb bf59 c472 bf5a     .HX.d.Y...Y.r.Z.
    af00:	9431 bf5b 61fa bf5c 2d23 bf5d f6fd bf5d     1.[..a\.#-]...].
    af10:	be38 bf5e 82d4 bf5f 4620 bf60 06cd bf61     8.^..._. F`...a.
    af20:	c582 bf61 8241 bf62 3c60 bf63 f488 bf63     ..a.A.b.`<c...c.
    af30:	aa11 bf64 5e4a bf65 0f3d bf66 bee0 bf66     ..d.J^e.=.f...f.
    af40:	6be3 bf67 16f0 bf68 bf5d bf68 65d4 bf69     .kg...h.].h..ei.
    af50:	09ab bf6a ab8a bf6a 4acb bf6b e814 bf6b     ..j...j..Jk...k.
    af60:	8366 bf6c 1c19 bf6d b2d5 bf6d 46f1 bf6e     f.l...m...m..Fn.
    af70:	d86f bf6e 67f5 bf6f f584 bf6f 8073 bf70     o.n..go...o.s.p.
    af80:	08c4 bf71 8f1d bf71 137f bf72 9542 bf72     ..q...q...r.B.r.
    af90:	1466 bf73 9192 bf73 0c20 bf74 840e bf74     f.s...s. .t...t.
    afa0:	fa05 bf74 6d5d bf75 debe bf75 4d7f bf76     ..t.]mu...u..Mv.
    afb0:	ba49 bf76 23cd bf77 8c00 bf77 f0ed bf77     I.v..#w...w...w.
    afc0:	53e3 bf78 b439 bf78 1299 bf79 6e59 bf79     .Sx.9.x...y.Yny.
    afd0:	c77a bf79 1ea3 bf7a 732e bf7a c519 bf7a     z.y...z..sz...z.
    afe0:	150e bf7b 61bb bf7b ad19 bf7b f530 bf7b     ..{..a{...{.0.{.
    aff0:	3b4f bf7c 7ed0 bf7c bfb1 bf7c fe9b bf7c     O;|..~|...|...|.
    b000:	3ae7 bf7d 7492 bf7d ab9f bf7d e0b5 bf7d     .:}..t}...}...}.
    b010:	132b bf7e 4303 bf7e 70e3 bf7e 9b7c bf7e     +.~..C~..p~.|.~.
    b020:	c41e bf7e eac8 bf7e 0e2c bf7f 2f98 bf7f     ..~...~.,..../..
    b030:	4e66 bf7f 6a94 bf7f 84cb bf7f 9c63 bf7f     fN...j......c...
    b040:	b15b bf7f c3b5 bf7f d36f bf7f e133 bf7f     [.......o...3...
    b050:	ec57 bf7f f4dc bf7f fac2 bf7f feb0 bf7f     W...............
    b060:	0000 bf80 feb0 bf7f fac2 bf7f f4dc bf7f     ................
    b070:	ec57 bf7f e133 bf7f d36f bf7f c3b5 bf7f     W...3...o.......
    b080:	b15b bf7f 9c63 bf7f 84cb bf7f 6a94 bf7f     [...c........j..
    b090:	4e66 bf7f 2f98 bf7f 0e2c bf7f eac8 bf7e     fN.../..,.....~.
    b0a0:	c41e bf7e 9b7c bf7e 70e3 bf7e 4303 bf7e     ..~.|.~..p~..C~.
    b0b0:	132b bf7e e0b5 bf7d ab9f bf7d 7492 bf7d     +.~...}...}..t}.
    b0c0:	3ae7 bf7d fe9b bf7c bfb1 bf7c 7ed0 bf7c     .:}...|...|..~|.
    b0d0:	3b4f bf7c f530 bf7b ad19 bf7b 61bb bf7b     O;|.0.{...{..a{.
    b0e0:	150e bf7b c519 bf7a 732e bf7a 1ea3 bf7a     ..{...z..sz...z.
    b0f0:	c77a bf79 6e59 bf79 1299 bf79 b439 bf78     z.y.Yny...y.9.x.
    b100:	53e3 bf78 f0ed bf77 8c00 bf77 23cd bf77     .Sx...w...w..#w.
    b110:	ba49 bf76 4d7f bf76 debe bf75 6d5d bf75     I.v..Mv...u.]mu.
    b120:	fa05 bf74 840e bf74 0c20 bf74 9192 bf73     ..t...t. .t...s.
    b130:	1466 bf73 9542 bf72 137f bf72 8f1d bf71     f.s.B.r...r...q.
    b140:	08c4 bf71 8073 bf70 f584 bf6f 67f5 bf6f     ..q.s.p...o..go.
    b150:	d86f bf6e 46f1 bf6e b2d5 bf6d 1c19 bf6d     o.n..Fn...m...m.
    b160:	8366 bf6c e814 bf6b 4acb bf6b ab8a bf6a     f.l...k..Jk...j.
    b170:	09ab bf6a 65d4 bf69 bf5d bf68 16f0 bf68     ..j..ei.].h...h.
    b180:	6be3 bf67 bee0 bf66 0f3d bf66 5e4a bf65     .kg...f.=.f.J^e.
    b190:	aa11 bf64 f488 bf63 3c60 bf63 8241 bf62     ..d...c.`<c.A.b.
    b1a0:	c582 bf61 06cd bf61 4620 bf60 82d4 bf5f     ..a...a. F`..._.
    b1b0:	be38 bf5e f6fd bf5d 2d23 bf5d 61fa bf5c     8.^...].#-]..a\.
    b1c0:	9431 bf5b c472 bf5a f2bb bf59 1e64 bf59     1.[.r.Z...Y.d.Y.
    b1d0:	4817 bf58 6fd2 bf57 9596 bf56 b963 bf55     .HX..oW...V.c.U.
    b1e0:	db38 bf54 fb16 bf53 1855 bf53 339c bf52     8.T...S.U.S..3R.
    b1f0:	4cec bf51 64ed bf50 7a4e bf4f 8db9 bf4e     .LQ..dP.NzO...N.
    b200:	9f2c bf4d aea7 bf4c bc2c bf4b c7b9 bf4a     ,.M...L.,.K...J.
    b210:	d14e bf49 d8ed bf48 de94 bf47 e243 bf46     N.I...H...G.C.F.
    b220:	e3fc bf45 e3bd bf44 e22e bf43 de01 bf42     ..E...D...C...B.
    b230:	d884 bf41 d10f bf40 c7a4 bf3f bc41 bf3e     ..A...@...?.A.>.
    b240:	aee6 bf3d a03c bf3c 8ef3 bf3b 7c5b bf3a     ..=.<.<...;.[|:.
    b250:	6873 bf39 51ec bf38 3a15 bf37 2047 bf36     sh9..Q8..:7.G 6.
    b260:	0529 bf35 e76d bf33 c908 bf32 a805 bf31     ).5.m.3...2...1.
    b270:	85b2 bf30 6167 bf2f 3bcd bf2e 143c bf2d     ..0.ga/..;..<.-.
    b280:	eb5b bf2b c083 bf2a 945b bf29 663c bf28     [.+...*.[.).<f(.
    b290:	3626 bf27 04c0 bf26 d20b bf24 9d5e bf23     &6'...&...$.^.#.
    b2a0:	6762 bf22 3016 bf21 f6d3 bf1f bc41 bf1e     bg"..0!.....A...
    b2b0:	7fb7 bf1d 41dd bf1c 02b4 bf1b c23b bf19     .....A......;...
    b2c0:	7fcc bf18 3c0c bf17 f6fd bf15 aff7 bf14     .....<..........
    b2d0:	6849 bf13 1ea3 bf12 d3ae bf10 876a bf0f     Ih..........j...
    b2e0:	39d6 bf0e eaf2 bf0c 9a17 bf0b 4895 bf0a     .9...........H..
    b2f0:	f5c3 bf08 a0f9 bf07 4b88 bf06 f4c7 bf04     .........K......
    b300:	9c0f bf03 42af bf02 e7ff bf00 1801 beff     .....B..........
    b310:	5d64 befc a027 bef9 e04c bef6 1f21 bef4     d]..'...L...!...
    b320:	5b57 bef1 94ee beee cbe6 beeb 003f bee9     W[..........?...
    b330:	3348 bee6 63b2 bee3 92cd bee0 bdf9 bedd     H3...c..........
    b340:	e925 beda 1062 bed8 3650 bed5 599f bed2     %...b...P6...Y..
    b350:	7b9e becf 9afe becc b90f bec9 d5d0 bec6     .{..............
    b360:	eea2 bec3 0774 bec1 1da8 bebe 313c bebb     ....t.......<1..
    b370:	44d0 beb8 5476 beb5 641b beb2 7122 beaf     .D..vT...d.."q..
    b380:	7cd9 beac 8740 bea9 8f08 bea6 9581 bea3     .|..@...........
    b390:	9aaa bea0 9e84 be9d a10e be9a a0f9 be97     ................
    b3a0:	9f95 be94 9e30 be91 9a2c be8e 94d9 be8b     ....0...,.......
    b3b0:	8e37 be88 8644 be85 7e52 be82 e782 be7e     7...D...R~....~.
    b3c0:	cfc0 be78 b55f be72 9afe be6c 7b5f be66     ..x._.r...l._{f.
    b3d0:	5bc0 be60 3982 be5a 14a5 be54 ed29 be4d     .[`..9Z...T.).M.
    b3e0:	c5ac be47 9b91 be41 6ed6 be3b 3f7d be35     ..G...A..n;.}?5.
    b3f0:	1023 be2f de2b be28 ac32 be22 779a be1c     #./.+.(.2."..w..
    b400:	4064 be16 092d be10 cf57 be09 9581 be03     d@..-...W.......
    b410:	b218 bdfa 392e bdee bb06 bde1 3cde bdd5     .....9.......<..
    b420:	bd23 bdc8 3ac9 bdbc b656 bdaf 3051 bda3     #....:..V...Q0..
    b430:	a93f bd96 2014 bd8a 2bbb bd7b 1427 bd62     ?.... ...+{.'.b.
    b440:	fb87 bd48 dfc2 bd2f c2f0 bd16 4a23 bcfb     ..H.../.....#J..
    b450:	0a35 bcc9 ca47 bc96 1080 bc49 0fa9 bbc9     5...G.....I.....

0000b460 <tri_cen>:
    b460:	000b 0016 0021 002c 0037 0042 004d 0058     ....!.,.7.B.M.X.
    b470:	0063 006e 0079 0086 0098 00ab 00bf 00d6     c.n.y...........
    b480:	00ed 0107 0123 0141 0162 0185 01ab 01d4     ....#.A.b.......

0000b490 <tri_even>:
    b490:	005b 00b6 0111 016c 01c7 0221 027c 02d7     [.....l...!.|...
    b4a0:	0332 038d 03e8 038d 0332 02d7 027c 0221     2.......2...|.!.
    b4b0:	01c7 016c 0111 00b6 005b 0000 005b 00b6     ..l.....[...[...
    b4c0:	0111 016c 01c7 0221 027c 02d7 0332 038d     ..l...!.|...2...
    b4d0:	03e8 038d 0332 02d7 027c 0221 01c7 016c     ....2...|.!...l.
    b4e0:	0111 00b6 005b 0000 005b 00b6 0111 016c     ....[...[.....l.
    b4f0:	01c7 0221 027c 02d7 0332 038d 03e8 038d     ..!.|...2.......
    b500:	0332 02d7 027c 0221 01c7 016c 0111 00b6     2...|.!...l.....
    b510:	005b 0000 005b 00b6 0111 016c 01c7 0221     [...[.....l...!.
    b520:	027c 02d7 0332 038d 03e8 038d 0332 02d7     |...2.......2...
    b530:	027c 0221 01c7 016c 0111 00b6 005b 0000     |.!...l.....[...
    b540:	005b 00b6 0111 016c 01c7 0221 027c 02d7     [.....l...!.|...
    b550:	0332 038d 03e8 038d 0332 02d7 027c 0221     2.......2...|.!.
    b560:	01c7 016c 0111 00b6 005b 0000 005b 00b6     ..l.....[...[...
    b570:	0111 016c 01c7 0221 027c 02d7 0332 038d     ..l...!.|...2...
    b580:	03e8 039b 034e 0301 02b4 0267 021a 01ce     ....N.....g.....
    b590:	0181 0134 00e7 009a 004d 0000 0038 006f     ..4.....M...8.o.
    b5a0:	00a7 00de 0116 014d 0185 01bc 01f4 022c     ......M.......,.
    b5b0:	0263 029b 02d2 030a 0341 0379 03b0 03e8     c.......A.y.....
    b5c0:	03b3 037f 034a 0315 02e1 02ac 0278 0243     ....J.......x.C.
    b5d0:	020e 01da 01a5 0170 013c 0107 00d3 009e     ......p.<.......
    b5e0:	0069 0035 0000 0032 0064 0096 00c8 00fa     i.5...2.d.......
    b5f0:	012c 015e 0190 01c2 01f4 0226 0258 028a     ,.^.......&.X...
    b600:	02bc 02ee 0320 0352 0384 03b6 03e8 03bd     .... .R.........
    b610:	0391 0366 033a 030f 02e3 02b8 028c 0261     ..f.:.........a.
    b620:	0235 020a 01de 01b3 0187 015c 0130 0105     5.........\.0...
    b630:	00d9 00ae 0082 0057 002b 0000 002b 0057     ......W.+...+.W.
    b640:	0082 00ae 00d9 0105 0130 015c 0187 01b3     ........0.\.....
    b650:	01de 020a 0235 0261 028c 02b8 02e3 030f     ....5.a.........
    b660:	033a 0366 0391 03bd 03e8 03c2 039b 0375     :.f...........u.
    b670:	034e 0328 0301 02db 02b4 028e 0267 0241     N.(.........g.A.
    b680:	021a 01f4 01ce 01a7 0181 015a 0134 010d     ..........Z.4...
    b690:	00e7 00c0 009a 0073 004d 0026 0000 0024     ......s.M.&...$.
    b6a0:	0047 006b 008f 00b3 00d6 00fa 011e 0141     G.k...........A.
    b6b0:	0165 0189 01ad 01d0 01f4 0218 023b 025f     e...........;._.
    b6c0:	0283 02a7 02ca 02ee 0312 0335 0359 037d     ..........5.Y.}.
    b6d0:	03a1 03c4 03e8 03c7 03a5 0384 0363 0341     ............c.A.
    b6e0:	0320 02ff 02dd 02bc 029b 0279 0258 0237      .........y.X.7.
    b6f0:	0215 01f4 01d3 01b1 0190 016f 014d 012c     ..........o.M.,.
    b700:	010b 00e9 00c8 00a7 0085 0064 0043 0021     ..........d.C.!.
    b710:	0000 001e 003d 005b 0079 0098 00b6 00d4     ....=.[.y.......
    b720:	00f2 0111 012f 014d 016c 018a 01a8 01c7     ..../.M.l.......
    b730:	01e5 0203 0221 0240 025e 027c 029b 02b9     ....!.@.^.|.....
    b740:	02d7 02f6 0314 0332 0350 036f 038d 03ab     ......2.P.o.....
    b750:	03ca 03e8 03cb 03af 0392 0376 0359 033d     ..........v.Y.=.
    b760:	0320 0303 02e7 02ca 02ae 0291 0275 0258      ...........u.X.
    b770:	023b 021f 0202 01e6 01c9 01ad 0190 0173     ;.............s.
    b780:	0157 013a 011e 0101 00e5 00c8 00ab 008f     W.:.............
    b790:	0072 0056 0039 001d 0000 001a 0035 004f     r.V.9.......5.O.
    b7a0:	0069 0084 009e 00b8 00d3 00ed 0107 0121     i.............!.
    b7b0:	013c 0156 0170 018b 01a5 01bf 01da 01f4     <.V.p...........
    b7c0:	020e 0229 0243 025d 0278 0292 02ac 02c7     ..).C.].x.......
    b7d0:	02e1 02fb 0315 0330 034a 0364 037f 0399     ......0.J.d.....
    b7e0:	03b3 03ce 03e8 03d0 03b7 039f 0386 036e     ..............n.
    b7f0:	0356 033d 0325 030c 02f4 02dc 02c3 02ab     V.=.%...........
    b800:	0293 027a 0262 0249 0231 0219 0200 01e8     ..z.b.I.1.......
    b810:	01cf 01b7 019f 0186 016e 0155 013d 0125     ........n.U.=.%.
    b820:	010c 00f4 00dc 00c3 00ab 0092 007a 0062     ............z.b.
    b830:	0049 0031 0018 0000 0000 0000 0000 0000     I.1.............
	...

0000b890 <tri_odd>:
	...
    b8a4:	0000 005b 00b6 0111 016c 01c7 0221 027c     ..[.....l...!.|.
    b8b4:	02d7 0332 038d 03e8 038d 0332 02d7 027c     ..2.......2...|.
    b8c4:	0221 01c7 016c 0111 00b6 005b 0000 005b     !...l.....[...[.
    b8d4:	00b6 0111 016c 01c7 0221 027c 02d7 0332     ....l...!.|...2.
    b8e4:	038d 03e8 038d 0332 02d7 027c 0221 01c7     ......2...|.!...
    b8f4:	016c 0111 00b6 005b 0000 005b 00b6 0111     l.....[...[.....
    b904:	016c 01c7 0221 027c 02d7 0332 038d 03e8     l...!.|...2.....
    b914:	038d 0332 02d7 027c 0221 01c7 016c 0111     ..2...|.!...l...
    b924:	00b6 005b 0000 005b 00b6 0111 016c 01c7     ..[...[.....l...
    b934:	0221 027c 02d7 0332 038d 03e8 038d 0332     !.|...2.......2.
    b944:	02d7 027c 0221 01c7 016c 0111 00b6 005b     ..|.!...l.....[.
    b954:	0000 005b 00b6 0111 016c 01c7 0221 027c     ..[.....l...!.|.
    b964:	02d7 0332 038d 03e8 038d 0332 02d7 027c     ..2.......2...|.
    b974:	0221 01c7 016c 0111 00b6 005b 0000 004d     !...l.....[...M.
    b984:	009a 00e7 0134 0181 01ce 021a 0267 02b4     ....4.......g...
    b994:	0301 034e 039b 03e8 03b0 0379 0341 030a     ..N.......y.A...
    b9a4:	02d2 029b 0263 022c 01f4 01bc 0185 014d     ....c.,.......M.
    b9b4:	0116 00de 00a7 006f 0038 0000 0035 0069     ......o.8...5.i.
    b9c4:	009e 00d3 0107 013c 0170 01a5 01da 020e     ......<.p.......
    b9d4:	0243 0278 02ac 02e1 0315 034a 037f 03b3     C.x.......J.....
    b9e4:	03e8 03b6 0384 0352 0320 02ee 02bc 028a     ......R. .......
    b9f4:	0258 0226 01f4 01c2 0190 015e 012c 00fa     X.&.......^.,...
    ba04:	00c8 0096 0064 0032 0000 002b 0057 0082     ....d.2...+.W...
    ba14:	00ae 00d9 0105 0130 015c 0187 01b3 01de     ......0.\.......
    ba24:	020a 0235 0261 028c 02b8 02e3 030f 033a     ..5.a.........:.
    ba34:	0366 0391 03bd 03e8 03bd 0391 0366 033a     f...........f.:.
    ba44:	030f 02e3 02b8 028c 0261 0235 020a 01de     ........a.5.....
    ba54:	01b3 0187 015c 0130 0105 00d9 00ae 0082     ....\.0.........
    ba64:	0057 002b 0000 0026 004d 0073 009a 00c0     W.+...&.M.s.....
    ba74:	00e7 010d 0134 015a 0181 01a7 01ce 01f4     ....4.Z.........
    ba84:	021a 0241 0267 028e 02b4 02db 0301 0328     ..A.g.........(.
    ba94:	034e 0375 039b 03c2 03e8 03c4 03a1 037d     N.u...........}.
    baa4:	0359 0335 0312 02ee 02ca 02a7 0283 025f     Y.5..........._.
    bab4:	023b 0218 01f4 01d0 01ad 0189 0165 0141     ;...........e.A.
    bac4:	011e 00fa 00d6 00b3 008f 006b 0047 0024     ..........k.G.$.
    bad4:	0000 0021 0043 0064 0085 00a7 00c8 00e9     ..!.C.d.........
    bae4:	010b 012c 014d 016f 0190 01b1 01d3 01f4     ..,.M.o.........
    baf4:	0215 0237 0258 0279 029b 02bc 02dd 02ff     ..7.X.y.........
    bb04:	0320 0341 0363 0384 03a5 03c7 03e8 03ca      .A.c...........
    bb14:	03ab 038d 036f 0350 0332 0314 02f6 02d7     ....o.P.2.......
    bb24:	02b9 029b 027c 025e 0240 0221 0203 01e5     ....|.^.@.!.....
    bb34:	01c7 01a8 018a 016c 014d 012f 0111 00f2     ......l.M./.....
    bb44:	00d4 00b6 0098 0079 005b 003d 001e 0000     ......y.[.=.....
    bb54:	001d 0039 0056 0072 008f 00ab 00c8 00e5     ..9.V.r.........
    bb64:	0101 011e 013a 0157 0173 0190 01ad 01c9     ....:.W.s.......
    bb74:	01e6 0202 021f 023b 0258 0275 0291 02ae     ......;.X.u.....
    bb84:	02ca 02e7 0303 0320 033d 0359 0376 0392     ...... .=.Y.v...
    bb94:	03af 03cb 03e8 03ce 03b3 0399 037f 0364     ..............d.
    bba4:	034a 0330 0315 02fb 02e1 02c7 02ac 0292     J.0.............
    bbb4:	0278 025d 0243 0229 020e 01f4 01da 01bf     x.].C.).........
    bbc4:	01a5 018b 0170 0156 013c 0121 0107 00ed     ....p.V.<.!.....
    bbd4:	00d3 00b8 009e 0084 0069 004f 0035 001a     ........i.O.5...
    bbe4:	0000 0018 0031 0049 0062 007a 0092 00ab     ....1.I.b.z.....
    bbf4:	00c3 00dc 00f4 010c 0125 013d 0155 016e     ........%.=.U.n.
    bc04:	0186 019f 01b7 01cf 01e8 0200 0219 0231     ..............1.
    bc14:	0249 0262 027a 0293 02ab 02c3 02dc 02f4     I.b.z...........
    bc24:	030c 0325 033d 0356 036e 0386 039f 03b7     ..%.=.V.n.......
    bc34:	03d0 03e8 03d1 03bb 03a4 038d 0376 0360     ............v.`.
    bc44:	0349 0332 031b 0305 02ee 02d7 02c1 02aa     I.2.............
    bc54:	0293 027c 0266 024f 0238 0221 020b 01f4     ..|.f.O.8.!.....
    bc64:	01dd 01c7 01b0 0199 0182 016c 0155 013e     ..........l.U.>.
    bc74:	0127 0111 00fa 00e3 00cd 00b6 009f 0088     '...............
    bc84:	0072 005b 0044 002d 0017 0000 0000 4120     r.[.D.-....... A
	...
    bc9c:	0000 fff0 0000 e000 ffff c7ef 6f6c 6667     ............logf
    bcac:	0000 0000 7173 7472 0066 0000 0000 cc00     ....sqrtf.......
    bcbc:	0000 4c00 0000 3f80 f7d1 3717 7180 3f31     ...L...?...7.q1?
    bccc:	aaab 3eaa 0000 3f00 0000 4000 d04f 3e1c     ...>...?...@O..>
    bcdc:	8e29 3e63 cccd 3ecc 8897 3e17 3325 3e3a     ).c>...>...>%3:>
    bcec:	4925 3e92 aaab 3f2a 0000 0000 0000 0000     %I.>..*?........
    bcfc:	0000 7ff8 7960 ffff 7948 ffff 78d4 ffff     ....`y..Hy...x..
    bd0c:	7944 ffff 78d4 ffff 7c54 ffff 78d4 ffff     Dy...x..T|...x..
    bd1c:	7944 ffff 793a ffff 793a ffff 7c54 ffff     Dy..:y..:y..T|..
    bd2c:	7944 ffff 78dc ffff 78dc ffff 78dc ffff     Dy...x...x...x..
    bd3c:	789a ffff 80c8 ffff 7f82 ffff 7f82 ffff     .x..............
    bd4c:	7f80 ffff 7f88 ffff 7f88 ffff 83b4 ffff     ................
    bd5c:	7f80 ffff 7f88 ffff 83b4 ffff 7f88 ffff     ................
    bd6c:	7f80 ffff 80b4 ffff 80b4 ffff 80b4 ffff     ................
    bd7c:	80a6 ffff                                   ....

0000bd80 <__clz_tab>:
    bd80:	0100 0202 0303 0303 0404 0404 0404 0404     ................
    bd90:	0505 0505 0505 0505 0505 0505 0505 0505     ................
    bda0:	0606 0606 0606 0606 0606 0606 0606 0606     ................
    bdb0:	0606 0606 0606 0606 0606 0606 0606 0606     ................
    bdc0:	0707 0707 0707 0707 0707 0707 0707 0707     ................
    bdd0:	0707 0707 0707 0707 0707 0707 0707 0707     ................
    bde0:	0707 0707 0707 0707 0707 0707 0707 0707     ................
    bdf0:	0707 0707 0707 0707 0707 0707 0707 0707     ................
    be00:	0808 0808 0808 0808 0808 0808 0808 0808     ................
    be10:	0808 0808 0808 0808 0808 0808 0808 0808     ................
    be20:	0808 0808 0808 0808 0808 0808 0808 0808     ................
    be30:	0808 0808 0808 0808 0808 0808 0808 0808     ................
    be40:	0808 0808 0808 0808 0808 0808 0808 0808     ................
    be50:	0808 0808 0808 0808 0808 0808 0808 0808     ................
    be60:	0808 0808 0808 0808 0808 0808 0808 0808     ................
    be70:	0808 0808 0808 0808 0808 0808 0808 0808     ................

0000be80 <__sf_fake_stderr>:
	...

0000bea0 <__sf_fake_stdin>:
	...

0000bec0 <__sf_fake_stdout>:
	...
    bee0:	2d23 2b30 0020 0000 6c68 004c 6665 4567     #-0+ ...hlL.efgE
    bef0:	4746 0000 3130 3332 3534 3736 3938 4241     FG..0123456789AB
    bf00:	4443 4645 0000 0000 3130 3332 3534 3736     CDEF....01234567
    bf10:	3938 6261 6463 6665 0000 0000               89abcdef....
